 psftp

 Timestamp is 5d84fb6b (Fri Sep 20 21:46:43 2019)

 Preferred load address is 00400000

 Start         Length     Name                   Class
 0001:00000000 00067d79H .text$mn                CODE
 0001:00067d79 0000006bH .text$x                 CODE
 0002:00000000 00000258H .idata$5                DATA
 0002:00000258 00000004H .00cfg                  DATA
 0002:0000025c 00000004H .CRT$XCA                DATA
 0002:00000260 00000004H .CRT$XCAA               DATA
 0002:00000264 00000004H .CRT$XCZ                DATA
 0002:00000268 00000004H .CRT$XIA                DATA
 0002:0000026c 00000004H .CRT$XIAA               DATA
 0002:00000270 00000004H .CRT$XIAC               DATA
 0002:00000274 00000010H .CRT$XIC                DATA
 0002:00000284 00000004H .CRT$XIZ                DATA
 0002:00000288 00000004H .CRT$XPA                DATA
 0002:0000028c 00000008H .CRT$XPX                DATA
 0002:00000294 00000004H .CRT$XPXA               DATA
 0002:00000298 00000004H .CRT$XPZ                DATA
 0002:0000029c 00000004H .CRT$XTA                DATA
 0002:000002a0 00000010H .CRT$XTZ                DATA
 0002:000002a4 00000000H .gfids$y                DATA
 0002:000002b0 0001e604H .rdata                  DATA
 0002:0001e8b4 000000dcH .rdata$r                DATA
 0002:0001e990 00000020H .rdata$sxdata           DATA
 0002:0001e9b0 000002c4H .rdata$zzzdbg           DATA
 0002:0001ec74 00000004H .rtc$IAA                DATA
 0002:0001ec78 00000004H .rtc$IZZ                DATA
 0002:0001ec7c 00000004H .rtc$TAA                DATA
 0002:0001ec80 00000008H .rtc$TZZ                DATA
 0002:0001ec88 000008c4H .xdata$x                DATA
 0002:0001f54c 00000000H .edata                  DATA
 0002:0001f54c 0000003cH .idata$2                DATA
 0002:0001f588 00000014H .idata$3                DATA
 0002:0001f59c 00000258H .idata$4                DATA
 0002:0001f7f4 00000ad8H .idata$6                DATA
 0003:00000000 00001230H .data                   DATA
 0003:00001230 00000058H .data$r                 DATA
 0003:00001288 00001484H .bss                    DATA
 0004:00000000 000001e0H .rsrc$01                DATA
 0004:000001e0 000012f8H .rsrc$02                DATA

  Address         Publics by Value              Rva+Base       Lib:Object

 0000:00000000       ___hybrid_auxiliary_iat    00000000     <absolute>
 0000:00000000       ___volatile_metadata       00000000     <absolute>
 0000:00000000       ___guard_iat_table         00000000     <absolute>
 0000:00000000       ___hybrid_code_map_count   00000000     <absolute>
 0000:00000000       ___guard_longjmp_table     00000000     <absolute>
 0000:00000000       ___guard_fids_count        00000000     <absolute>
 0000:00000000       ___AbsoluteZero            00000000     <absolute>
 0000:00000000       ___guard_fids_table        00000000     <absolute>
 0000:00000000       ___enclave_config          00000000     <absolute>
 0000:00000000       ___guard_iat_count         00000000     <absolute>
 0000:00000000       ___dynamic_value_reloc_table 00000000     <absolute>
 0000:00000000       ___guard_longjmp_count     00000000     <absolute>
 0000:00000000       ___hybrid_code_map         00000000     <absolute>
 0000:00000000       __except_list              00000000     <absolute>
 0000:00000008       ___safe_se_handler_count   00000008     <absolute>
 0000:00000100       ___guard_flags             00000100     <absolute>
 0000:00000000       ___ImageBase               00400000     <linker-defined>
 0001:0000016c       _agentf_new                0040116c f   agentf.obj
 0001:000002c9       _backend_socket_log        004012c9 f   be_misc.obj
 0001:0000042d       _log_proxy_stderr          0040142d f   be_misc.obj
 0001:000005a2       _psb_init                  004015a2 f   be_misc.obj
 0001:000005ae       _delete_callbacks_for_context 004015ae f   callback.obj
 0001:0000061a       _queue_idempotent_callback 0040161a f   callback.obj
 0001:00000636       _queue_toplevel_callback   00401636 f   callback.obj
 0001:000006a6       _run_toplevel_callbacks    004016a6 f   callback.obj
 0001:000006f4       _toplevel_callback_pending 004016f4 f   callback.obj
 0001:0000072d       _cmdline_cleanup           0040172d f   cmdline.obj
 0001:00000783       _cmdline_get_passwd_input  00401783 f   cmdline.obj
 0001:000007f0       _cmdline_process_param     004017f0 f   cmdline.obj
 0001:00001af4       _cmdline_run_saved         00402af4 f   cmdline.obj
 0001:00001c1b       _conf_copy                 00402c1b f   conf.obj
 0001:00001c33       _conf_copy_into            00402c33 f   conf.obj
 0001:00001d0a       _conf_del_str_str          00402d0a f   conf.obj
 0001:00001d8a       _conf_free                 00402d8a f   conf.obj
 0001:00001da7       _conf_get_bool             00402da7 f   conf.obj
 0001:00001e26       _conf_get_filename         00402e26 f   conf.obj
 0001:00001ea5       _conf_get_int              00402ea5 f   conf.obj
 0001:00001f24       _conf_get_int_int          00402f24 f   conf.obj
 0001:00001fa9       _conf_get_str              00402fa9 f   conf.obj
 0001:00002028       _conf_get_str_nthstrkey    00403028 f   conf.obj
 0001:000020c2       _conf_get_str_str          004030c2 f   conf.obj
 0001:000020f8       _conf_get_str_str_opt      004030f8 f   conf.obj
 0001:0000216b       _conf_get_str_strs         0040316b f   conf.obj
 0001:00002265       _conf_new                  00403265 f   conf.obj
 0001:00002286       _conf_set_bool             00403286 f   conf.obj
 0001:000022f5       _conf_set_filename         004032f5 f   conf.obj
 0001:0000236a       _conf_set_fontspec         0040336a f   conf.obj
 0001:000023df       _conf_set_int              004033df f   conf.obj
 0001:0000244e       _conf_set_int_int          0040344e f   conf.obj
 0001:000024c4       _conf_set_str              004034c4 f   conf.obj
 0001:00002539       _conf_set_str_str          00403539 f   conf.obj
 0001:00002612       _proxy_socks5_handlechap   00403612 f   cproxy.obj
 0001:0000282c       _proxy_socks5_offerencryptedauth 0040382c f   cproxy.obj
 0001:0000283d       _proxy_socks5_selectchap   0040383d f   cproxy.obj
 0001:00002937       _ecc_edwards_add           00403937 f   ecc.obj
 0001:00002bf8       _ecc_edwards_curve         00403bf8 f   ecc.obj
 0001:00002bf8       _ecc_weierstrass_curve     00403bf8 f   ecc.obj
 0001:00002c5a       _ecc_edwards_eq            00403c5a f   ecc.obj
 0001:00002cb7       _ecc_edwards_get_affine    00403cb7 f   ecc.obj
 0001:00002d45       _ecc_edwards_multiply      00403d45 f   ecc.obj
 0001:00002e2c       _ecc_edwards_point_copy    00403e2c f   ecc.obj
 0001:00002e6e       _ecc_edwards_point_free    00403e6e f   ecc.obj
 0001:00002ea5       _ecc_edwards_point_new     00403ea5 f   ecc.obj
 0001:00002ef7       _ecc_edwards_point_new_from_y 00403ef7 f   ecc.obj
 0001:000030dd       _ecc_montgomery_curve      004040dd f   ecc.obj
 0001:00003198       _ecc_montgomery_diff_add   00404198 f   ecc.obj
 0001:0000332e       _ecc_montgomery_double     0040432e f   ecc.obj
 0001:00003457       _ecc_montgomery_get_affine 00404457 f   ecc.obj
 0001:000034af       _ecc_montgomery_multiply   004044af f   ecc.obj
 0001:00003599       _ecc_montgomery_point_copy 00404599 f   ecc.obj
 0001:000035c5       _ecc_montgomery_point_free 004045c5 f   ecc.obj
 0001:000035ec       _ecc_montgomery_point_new  004045ec f   ecc.obj
 0001:0000363e       _ecc_weierstrass_add       0040463e f   ecc.obj
 0001:00003722       _ecc_weierstrass_add_general 00404722 f   ecc.obj
 0001:00003a44       _ecc_weierstrass_double    00404a44 f   ecc.obj
 0001:00003be4       _ecc_weierstrass_get_affine 00404be4 f   ecc.obj
 0001:00003c26       _ecc_weierstrass_is_identity 00404c26 f   ecc.obj
 0001:00003c3a       _ecc_weierstrass_multiply  00404c3a f   ecc.obj
 0001:00003da2       _ecc_weierstrass_point_copy 00404da2 f   ecc.obj
 0001:00003dd9       _ecc_weierstrass_point_free 00404dd9 f   ecc.obj
 0001:00003e08       _ecc_weierstrass_point_new 00404e08 f   ecc.obj
 0001:00003e57       _ecc_weierstrass_point_new_from_x 00404e57 f   ecc.obj
 0001:00003f64       _ecc_weierstrass_point_new_identity 00404f64 f   ecc.obj
 0001:00003fd1       _ecc_weierstrass_point_valid 00404fd1 f   ecc.obj
 0001:000042a0       _ssh_verstring_get_local   004052a0 f   sshverstring.obj
 0001:000042a8       __get_startup_new_mode     004052a8 f   LIBCMT:new_mode.obj
 0001:000042a8       ___scrt_exe_initialize_mta 004052a8 f   LIBCMT:utility_desktop.obj
 0001:000042a8       _nullseat_get_ttymode      004052a8 f   misc.obj
 0001:000042a8       ___scrt_stub_for_initialize_mta 004052a8 f   LIBCMT:utility_desktop.obj
 0001:000042a8       ___scrt_initialize_winrt   004052a8 f   LIBCMT:utility_desktop.obj
 0001:000042a8       __get_startup_commit_mode  004052a8 f   LIBCMT:commit_mode.obj
 0001:000042a8       __get_startup_thread_locale_mode 004052a8 f   LIBCMT:thread_locale.obj
 0001:000042a8       __matherr                  004052a8 f   LIBCMT:matherr.obj
 0001:000042a8       _nullseat_get_x_display    004052a8 f   misc.obj
 0001:000042ab       _new_error_socket_fmt      004052ab f   errsock.obj
 0001:000042df       ___local_stdio_printf_options 004052df f i logging.obj
 0001:000042e5       __vsnprintf_l              004052e5 f i logging.obj
 0001:00004317       _log_free                  00405317 f   logging.obj
 0001:0000434e       _log_init                  0040534e f   logging.obj
 0001:00004395       _log_packet                00405395 f   logging.obj
 0001:00004709       _logevent                  00405709 f   logging.obj
 0001:00004790       _logevent_and_free         00405790 f   logging.obj
 0001:000047e3       _logeventf                 004057e3 f   logging.obj
 0001:000047f9       _logeventvf                004057f9 f   logging.obj
 0001:00004814       _logfclose                 00405814 f   logging.obj
 0001:0000482f       _logflush                  0040582f f   logging.obj
 0001:00004848       _logfopen                  00405848 f   logging.obj
 0001:00004ba5       _sprintf                   00405ba5 f i logging.obj
 0001:00005472       _mainchan_get_specials     00406472 f   mainchan.obj
 0001:0000559a       _mainchan_new              0040659a f   mainchan.obj
 0001:000056bd       _mainchan_special_cmd      004066bd f   mainchan.obj
 0001:00005738       _mainchan_terminal_size    00406738 f   mainchan.obj
 0001:00005839       _BinarySink_put_asciz      00406839 f   marshal.obj
 0001:00005853       _BinarySink_put_bool       00406853 f   marshal.obj
 0001:0000586f       _BinarySink_put_byte       0040686f f   marshal.obj
 0001:00005881       _BinarySink_put_data       00406881 f   marshal.obj
 0001:00005894       _BinarySink_put_datapl     00406894 f   marshal.obj
 0001:000058a9       _BinarySink_put_padding    004068a9 f   marshal.obj
 0001:000058ff       _BinarySink_put_pstring    004068ff f   marshal.obj
 0001:00005934       _BinarySink_put_string     00406934 f   marshal.obj
 0001:00005953       _BinarySink_put_stringpl   00406953 f   marshal.obj
 0001:00005968       _BinarySink_put_stringsb   00406968 f   marshal.obj
 0001:00005986       _BinarySink_put_stringz    00406986 f   marshal.obj
 0001:000059a1       _BinarySink_put_uint16     004069a1 f   marshal.obj
 0001:000059c1       _BinarySink_put_uint32     004069c1 f   marshal.obj
 0001:000059f1       _BinarySink_put_uint64     004069f1 f   marshal.obj
 0001:00005a7e       _BinarySource_get_asciz    00406a7e f   marshal.obj
 0001:00005ac5       _BinarySource_get_bool     00406ac5 f   marshal.obj
 0001:00005ae9       _BinarySource_get_byte     00406ae9 f   marshal.obj
 0001:00005b09       _BinarySource_get_data     00406b09 f   marshal.obj
 0001:00005b36       _BinarySource_get_pstring  00406b36 f   marshal.obj
 0001:00005b82       _BinarySource_get_string   00406b82 f   marshal.obj
 0001:00005bf0       _BinarySource_get_uint16   00406bf0 f   marshal.obj
 0001:00005c21       _BinarySource_get_uint32   00406c21 f   marshal.obj
 0001:00005c65       _BinarySource_get_uint64   00406c65 f   marshal.obj
 0001:00005d13       _bufchain_sink_init        00406d13 f   marshal.obj
 0001:00005d42       _stdio_sink_init           00406d42 f   marshal.obj
 0001:00005d73       _safefree                  00406d73 f   memory.obj
 0001:00005d7f       _safegrowarray             00406d7f f   memory.obj
 0001:00005e8d       _safemalloc                00406e8d f   memory.obj
 0001:00005ecb       _saferealloc               00406ecb f   memory.obj
 0001:00005f10       _add_prompt                00406f10 f   misc.obj
 0001:00005f5f       _buildinfo                 00406f5f f   misc.obj
 0001:00005ffd       _conf_launchable           00406ffd f   misc.obj
 0001:00006027       _free_prompts              00407027 f   misc.obj
 0001:00006089       _new_prompts               00407089 f   misc.obj
 0001:000060b6       _platform_ssh_share_cleanup 004070b6 f   winshare.obj
 0001:000060b6       _add_session_to_jumplist   004070b6 f   winnojmp.obj
 0001:000060b6       _timer_change_notify       004070b6 f   wincons.obj
 0001:000060b6       _nullseat_set_busy_status  004070b6 f   misc.obj
 0001:000060b6       @_guard_check_icall_nop@4  004070b6 f   LIBCMT:guard_support.obj
 0001:000060b6       _ldisc_echoedit_update     004070b6 f   psftp.obj
 0001:000060b6       _nullseat_update_specials_menu 004070b6 f   misc.obj
 0001:000060b6       __initialize_denormal_control 004070b6 f   LIBCMT:denormal_control.obj
 0001:000060b6       __initialize_invalid_parameter_handler 004070b6 f   LIBCMT:invalid_parameter_handler.obj
 0001:000060b6       _nullseat_echoedit_update  004070b6 f   misc.obj
 0001:000060b6       _nullseat_notify_remote_exit 004070b6 f   misc.obj
 0001:000060b6       _platform_get_x11_auth     004070b6 f   winsftp.obj
 0001:000060b7       _sk_address_is_special_local 004070b7 f   winnet.obj
 0001:000060b7       _chan_no_run_subsystem     004070b7 f   sshcommon.obj
 0001:000060b7       _chan_no_set_env           004070b7 f   sshcommon.obj
 0001:000060b7       _ssh2_connection_parse_global_request 004070b7 f   ssh2connection-client.obj
 0001:000060b7       _chan_no_enable_agent_forwarding 004070b7 f   sshcommon.obj
 0001:000060b7       _nullseat_is_never_utf8    004070b7 f   misc.obj
 0001:000060b7       _nullseat_get_windowid     004070b7 f   misc.obj
 0001:000060b7       _chan_no_run_shell         004070b7 f   sshcommon.obj
 0001:000060b7       _chan_no_allocate_pty      004070b7 f   sshcommon.obj
 0001:000060b7       _chan_no_run_command       004070b7 f   sshcommon.obj
 0001:000060b7       _chan_no_change_window_size 004070b7 f   sshcommon.obj
 0001:000060b7       _chan_no_send_signal       004070b7 f   sshcommon.obj
 0001:000060b7       _chan_no_exit_status       004070b7 f   sshcommon.obj
 0001:000060b7       _chan_no_exit_signal       004070b7 f   sshcommon.obj
 0001:000060b7       _nullseat_get_window_pixel_size 004070b7 f   misc.obj
 0001:000060b7       _chan_no_enable_x11_forwarding 004070b7 f   sshcommon.obj
 0001:000060b7       _chan_no_exit_signal_numeric 004070b7 f   sshcommon.obj
 0001:000060b7       _chan_no_send_break        004070b7 f   sshcommon.obj
 0001:000060ba       __should_initialize_environment 004070ba f   LIBCMT:env_mode.obj
 0001:000060ba       _nullseat_set_trust_status_vacuously 004070ba f   misc.obj
 0001:000060ba       ___acrt_uninitialize_command_line 004070ba f   libucrt:argv_data.obj
 0001:000060bd       _out_of_memory             004070bd f   misc.obj
 0001:000060c9       _prompt_ensure_result_size 004070c9 f   misc.obj
 0001:00006124       _prompt_set_result         00407124 f   misc.obj
 0001:0000614b       _seat_connection_fatal     0040714b f   misc.obj
 0001:00006172       _sk_free_peer_info         00407172 f   misc.obj
 0001:00006196       _validate_manual_hostkey   00407196 f   misc.obj
 0001:00006347       _dup_mb_to_wc              00407347 f   miscucs.obj
 0001:00006366       _dup_mb_to_wc_c            00407366 f   miscucs.obj
 0001:000063d3       _BinarySink_put_mp_ssh1    004073d3 f   mpint.obj
 0001:0000643a       _BinarySink_put_mp_ssh2    0040743a f   mpint.obj
 0001:0000647e       _BinarySource_get_mp_ssh1  0040747e f   mpint.obj
 0001:000064ed       _BinarySource_get_mp_ssh2  004074ed f   mpint.obj
 0001:0000653b       __vfprintf_l               0040753b f i mpint.obj
 0001:0000655e       _fprintf                   0040755e f i mpint.obj
 0001:00006576       _modsqrt_new               00407576 f   mpint.obj
 0001:00006605       _monty_add                 00407605 f   mpint.obj
 0001:0000664c       _monty_export              0040764c f   mpint.obj
 0001:0000666f       _monty_export_into         0040766f f   mpint.obj
 0001:000066cc       _monty_free                004076cc f   mpint.obj
 0001:00006716       _handle_get_privdata       00407716 f   winhandl.obj
 0001:00006716       _monty_identity            00407716 f   mpint.obj
 0001:0000671e       _monty_import              0040771e f   mpint.obj
 0001:00006734       _monty_invert              00407734 f   mpint.obj
 0001:00006761       _monty_modsqrt             00407761 f   mpint.obj
 0001:00006929       _monty_mul                 00407929 f   mpint.obj
 0001:00006950       _monty_mul_into            00407950 f   mpint.obj
 0001:00006a0d       _monty_new                 00407a0d f   mpint.obj
 0001:00006ac3       _monty_pow                 00407ac3 f   mpint.obj
 0001:00006cb0       _monty_sub                 00407cb0 f   mpint.obj
 0001:00006cef       _mp_add                    00407cef f   mpint.obj
 0001:00006d1b       _mp_add_integer_into       00407d1b f   mpint.obj
 0001:00006e02       _mp_add_into               00407e02 f   mpint.obj
 0001:000071e7       _mp_clear                  004081e7 f   mpint.obj
 0001:000071fc       _mp_cmp_eq                 004081fc f   mpint.obj
 0001:0000724a       _mp_cmp_hs                 0040824a f   mpint.obj
 0001:0000726d       _mp_cond_add_into          0040826d f   mpint.obj
 0001:00007295       _mp_cond_clear             00408295 f   mpint.obj
 0001:000072b5       _mp_cond_sub_into          004082b5 f   mpint.obj
 0001:000072e0       _mp_cond_swap              004082e0 f   mpint.obj
 0001:0000733c       _mp_copy                   0040833c f   mpint.obj
 0001:00007365       _mp_copy_into              00408365 f   mpint.obj
 0001:000073a2       _mp_divmod_into            004083a2 f   mpint.obj
 0001:000078c6       _mp_eq_integer             004088c6 f   mpint.obj
 0001:00007a0f       _mp_free                   00408a0f f   mpint.obj
 0001:00007a2b       _mp_from_bytes_be          00408a2b f   mpint.obj
 0001:00007aa4       _mp_from_bytes_le          00408aa4 f   mpint.obj
 0001:00007ab9       _mp_from_decimal           00408ab9 f   mpint.obj
 0001:00007ad0       _mp_from_decimal_pl        00408ad0 f   mpint.obj
 0001:00007b50       _mp_from_hex               00408b50 f   mpint.obj
 0001:00007b67       _mp_from_hex_pl            00408b67 f   mpint.obj
 0001:00007c32       _mp_from_integer           00408c32 f   mpint.obj
 0001:00007c6a       _mp_get_bit                00408c6a f   mpint.obj
 0001:00007c8a       _mp_get_byte               00408c8a f   mpint.obj
 0001:00007caa       _mp_get_hex                00408caa f   mpint.obj
 0001:00007d3b       _mp_get_nbits              00408d3b f   mpint.obj
 0001:00007d93       _mp_hs_integer             00408d93 f   mpint.obj
 0001:00007de5       _mp_invert                 00408de5 f   mpint.obj
 0001:00007e09       _mp_invert_mod_2to         00408e09 f   mpint.obj
 0001:000080e6       _mp_lshift_fixed_into      004090e6 f   mpint.obj
 0001:000081ac       _mp_max                    004091ac f   mpint.obj
 0001:000081d7       _mp_max_bits               004091d7 f   mpint.obj
 0001:000081e1       _mp_max_into               004091e1 f   mpint.obj
 0001:00008203       _mp_min                    00409203 f   mpint.obj
 0001:0000822e       _mp_min_into               0040922e f   mpint.obj
 0001:00008250       _mp_mod                    00409250 f   mpint.obj
 0001:00008274       _mp_modadd                 00409274 f   mpint.obj
 0001:0000829f       _mp_modmul                 0040929f f   mpint.obj
 0001:000082ca       _mp_modpow                 004092ca f   mpint.obj
 0001:00008350       _mp_mul                    00409350 f   mpint.obj
 0001:0000841b       _mp_mul_integer_into       0040941b f   mpint.obj
 0001:00008753       _mp_mul_into               00409753 f   mpint.obj
 0001:00008796       _mp_neg_into               00409796 f   mpint.obj
 0001:000087b3       _mp_new                    004097b3 f   mpint.obj
 0001:000087c5       _mp_power_2                004097c5 f   mpint.obj
 0001:000087e7       _mp_random_bits_fn         004097e7 f   mpint.obj
 0001:0000883a       _mp_random_in_range_fn     0040983a f   mpint.obj
 0001:00008889       _mp_reduce_mod_2to         00409889 f   mpint.obj
 0001:000088b1       _mp_rshift_fixed           004098b1 f   mpint.obj
 0001:000088ea       _mp_rshift_fixed_into      004098ea f   mpint.obj
 0001:00008955       _mp_rshift_safe            00409955 f   mpint.obj
 0001:00008a84       _mp_select_into            00409a84 f   mpint.obj
 0001:00008ac8       _mp_set_bit                00409ac8 f   mpint.obj
 0001:00008b17       _mp_sub                    00409b17 f   mpint.obj
 0001:00008b42       _mp_sub_integer_into       00409b42 f   mpint.obj
 0001:00008b66       _mp_sub_into               00409b66 f   mpint.obj
 0001:00008cf7       _pinger_free               00409cf7 f   pinger.obj
 0001:00008d06       _pinger_new                00409d06 f   pinger.obj
 0001:00008d39       _pinger_reconfig           00409d39 f   pinger.obj
 0001:00009741       _pfr_free                  0040a741 f   portfwd.obj
 0001:00009780       _portfwd_raw_free          0040a780 f   portfwd.obj
 0001:000097b0       _portfwd_raw_new           0040a7b0 f   portfwd.obj
 0001:000097fc       _portfwd_raw_setup         0040a7fc f   portfwd.obj
 0001:00009830       _portfwdmgr_close          0040a830 f   portfwd.obj
 0001:00009853       _portfwdmgr_close_all      0040a853 f   portfwd.obj
 0001:0000987f       _portfwdmgr_config         0040a87f f   portfwd.obj
 0001:00009eac       _portfwdmgr_connect        0040aeac f   portfwd.obj
 0001:00009fa8       _portfwdmgr_free           0040afa8 f   portfwd.obj
 0001:00009fd5       _portfwdmgr_new            0040afd5 f   portfwd.obj
 0001:0000a389       ___local_stdio_scanf_options 0040b389 f i proxy.obj
 0001:0000a38f       __vsscanf_l                0040b38f f i proxy.obj
 0001:0000a3ea       _format_telnet_command     0040b3ea f   proxy.obj
 0001:0000a735       _name_lookup               0040b735 f   proxy.obj
 0001:0000a7ed       _new_connection            0040b7ed f   proxy.obj
 0001:0000ab42       _new_listener              0040bb42 f   proxy.obj
 0001:0000ab78       _proxy_activate            0040bb78 f   proxy.obj
 0001:0000ac69       _proxy_for_destination     0040bc69 f   proxy.obj
 0001:0000ae72       _proxy_http_negotiate      0040be72 f   proxy.obj
 0001:0000b297       _proxy_socks4_negotiate    0040c297 f   proxy.obj
 0001:0000b4ac       _proxy_socks5_negotiate    0040c4ac f   proxy.obj
 0001:0000ba28       _proxy_telnet_negotiate    0040ca28 f   proxy.obj
 0001:0000bbad       _sscanf                    0040cbad f i proxy.obj
 0001:0000bc11       _has_embedded_chm          0040cc11 f   winnohlp.obj
 0001:0000bc11       _sftp_cmd_quit             0040cc11 f   psftp.obj
 0001:0000bc15       _sftp_cmd_close            0040cc15 f   psftp.obj
 0001:0000bc66       _sftp_cmd_ls               0040cc66 f   psftp.obj
 0001:0000bec4       _sftp_cmd_cd               0040cec4 f   psftp.obj
 0001:0000bfab       _sftp_cmd_pwd              0040cfab f   psftp.obj
 0001:0000bff5       _sftp_cmd_get              0040cff5 f   psftp.obj
 0001:0000c006       _sftp_cmd_mget             0040d006 f   psftp.obj
 0001:0000c017       _sftp_cmd_reget            0040d017 f   psftp.obj
 0001:0000c028       _sftp_cmd_put              0040d028 f   psftp.obj
 0001:0000c039       _sftp_cmd_mput             0040d039 f   psftp.obj
 0001:0000c04a       _sftp_cmd_reput            0040d04a f   psftp.obj
 0001:0000c05b       _sftp_cmd_mkdir            0040d05b f   psftp.obj
 0001:0000c138       _sftp_cmd_rmdir            0040d138 f   psftp.obj
 0001:0000c195       _sftp_cmd_rm               0040d195 f   psftp.obj
 0001:0000c1f2       _sftp_cmd_mv               0040d1f2 f   psftp.obj
 0001:0000c2f5       _sftp_cmd_chmod            0040d2f5 f   psftp.obj
 0001:0000c7cf       _canonify                  0040d7cf f   psftp.obj
 0001:0000c90e       _cmdline_error             0040d90e f   psftp.obj
 0001:0000c95a       _do_sftp                   0040d95a f   psftp.obj
 0001:0000cb4c       _is_wildcard               0040db4c f   psftp.obj
 0001:0000cb85       _list_directory_from_sftp_print 0040db85 f   psftp.obj
 0001:0000cbb6       _list_directory_from_sftp_warn_unsorted 0040dbb6 f   psftp.obj
 0001:0000cbc2       _lookup_command            0040dbc2 f   psftp.obj
 0001:0000cc0d       _printf                    0040dc0d f i psftp.obj
 0001:0000cfb9       _psftp_main                0040dfb9 f   psftp.obj
 0001:0000d5f0       _sftp_begin_wildcard_matching 0040e5f0 f   psftp.obj
 0001:0000d6d6       __get_startup_argv_mode    0040e6d6 f   LIBCMT:argv_mode.obj
 0001:0000d6d6       _sftp_cmd_null             0040e6d6 f   psftp.obj
 0001:0000d6da       _sftp_cmd_unknown          0040e6da f   psftp.obj
 0001:0000d6f1       _sftp_finish_wildcard_matching 0040e6f1 f   psftp.obj
 0001:0000d73b       _sftp_general_get          0040e73b f   psftp.obj
 0001:0000d923       _sftp_general_put          0040e923 f   psftp.obj
 0001:0000dad4       _sftp_get_file             0040ead4 f   psftp.obj
 0001:0000e1d2       _sftp_getcmd               0040f1d2 f   psftp.obj
 0001:0000e3cc       _sftp_put_file             0040f3cc f   psftp.obj
 0001:0000e926       _sftp_recvdata             0040f926 f   psftp.obj
 0001:0000e97b       _sftp_sendbuffer           0040f97b f   psftp.obj
 0001:0000e988       _sftp_senddata             0040f988 f   psftp.obj
 0001:0000e9a1       _sftp_wait_for_reply       0040f9a1 f   psftp.obj
 0001:0000e9f0       _sftp_wildcard_get_filename 0040f9f0 f   psftp.obj
 0001:0000ed04       _vfprintf                  0040fd04 f i psftp.obj
 0001:0000ed1b       _wildcard_iterate          0040fd1b f   psftp.obj
 0001:0000ede3       _list_directory_from_sftp_feed 0040fde3 f   psftpcommon.obj
 0001:0000ee9f       _list_directory_from_sftp_finish 0040fe9f f   psftpcommon.obj
 0001:0000eef4       _list_directory_from_sftp_free 0040fef4 f   psftpcommon.obj
 0001:0000ef24       _list_directory_from_sftp_new 0040ff24 f   psftpcommon.obj
 0001:0000ef47       _sftp_name_compare         0040ff47 f   psftpcommon.obj
 0001:0000ef5f       _backend_vt_from_name      0040ff5f f   settings.obj
 0001:0000ef8d       _do_defaults               0040ff8d f   settings.obj
 0001:0000ef92       _get_remote_username       0040ff92 f   settings.obj
 0001:0000f498       _load_open_settings        00410498 f   settings.obj
 0001:0001060c       _load_settings             0041160c f   settings.obj
 0001:000106f2       _fxp_write_recv            004116f2 f   sftp.obj
 0001:000106f2       _fxp_close_recv            004116f2 f   sftp.obj
 0001:0001071b       _fxp_close_send            0041171b f   sftp.obj
 0001:00010767       _fxp_dup_name              00411767 f   sftp.obj
 0001:000107a3       _fxp_error                 004117a3 f   sftp.obj
 0001:000107a9       _fxp_error_type            004117a9 f   sftp.obj
 0001:000107af       _fxp_free_name             004117af f   sftp.obj
 0001:000107ce       _fxp_free_names            004117ce f   sftp.obj
 0001:00010812       _fxp_stat_recv             00411812 f   sftp.obj
 0001:00010812       _fxp_fstat_recv            00411812 f   sftp.obj
 0001:00010845       _fxp_fstat_send            00411845 f   sftp.obj
 0001:0001098d       _fxp_init                  0041198d f   sftp.obj
 0001:00010a3e       _fxp_setstat_recv          00411a3e f   sftp.obj
 0001:00010a3e       _fxp_mkdir_recv            00411a3e f   sftp.obj
 0001:00010a3e       _fxp_rmdir_recv            00411a3e f   sftp.obj
 0001:00010a3e       _fxp_rename_recv           00411a3e f   sftp.obj
 0001:00010a3e       _fxp_remove_recv           00411a3e f   sftp.obj
 0001:00010a67       _fxp_mkdir_send            00411a67 f   sftp.obj
 0001:00010ac7       _fxp_open_recv             00411ac7 f   sftp.obj
 0001:00010ac7       _fxp_opendir_recv          00411ac7 f   sftp.obj
 0001:00010af5       _fxp_open_send             00411af5 f   sftp.obj
 0001:00010b5f       _fxp_opendir_send          00411b5f f   sftp.obj
 0001:00010b96       _fxp_read_recv             00411b96 f   sftp.obj
 0001:00010c0b       _fxp_read_send             00411c0b f   sftp.obj
 0001:00010c5f       _fxp_readdir_recv          00411c5f f   sftp.obj
 0001:00010dc4       _fxp_readdir_send          00411dc4 f   sftp.obj
 0001:00010e00       _fxp_realpath_recv         00411e00 f   sftp.obj
 0001:00010e89       _fxp_realpath_send         00411e89 f   sftp.obj
 0001:00010ec0       _fxp_remove_send           00411ec0 f   sftp.obj
 0001:00010ef7       _fxp_rename_send           00411ef7 f   sftp.obj
 0001:00010f38       _fxp_rmdir_send            00411f38 f   sftp.obj
 0001:00010f6f       _fxp_setstat_send          00411f6f f   sftp.obj
 0001:00010fc4       _fxp_stat_send             00411fc4 f   sftp.obj
 0001:00010ffb       _fxp_write_send            00411ffb f   sftp.obj
 0001:00011116       _sftp_cleanup_request      00412116 f   sftp.obj
 0001:0001112e       _sftp_find_request         0041212e f   sftp.obj
 0001:000111a3       _sftp_recv                 004121a3 f   sftp.obj
 0001:00011211       _sftp_register             00412211 f   sftp.obj
 0001:00011233       _sftp_send                 00412233 f   sftp.obj
 0001:00011259       _xfer_cleanup              00412259 f   sftp.obj
 0001:0001128d       _xfer_done                 0041228d f   sftp.obj
 0001:000112a5       _xfer_download_data        004122a5 f   sftp.obj
 0001:0001130d       _xfer_download_gotpkt      0041230d f   sftp.obj
 0001:00011400       _xfer_download_init        00412400 f   sftp.obj
 0001:00011425       _xfer_download_queue       00412425 f   sftp.obj
 0001:00011518       _xfer_set_error            00412518 f   sftp.obj
 0001:00011521       _xfer_upload_data          00412521 f   sftp.obj
 0001:0001159d       _xfer_upload_gotpkt        0041259d f   sftp.obj
 0001:0001161f       _xfer_upload_init          0041261f f   sftp.obj
 0001:00011638       _xfer_upload_ready         00412638 f   sftp.obj
 0001:00011644       _BinarySink_put_fxp_attrs  00412644 f   sftpcommon.obj
 0001:000116c2       _BinarySource_get_fxp_attrs 004126c2 f   sftpcommon.obj
 0001:000117c7       _sftp_pkt_free             004127c7 f   sftpcommon.obj
 0001:000117e2       _sftp_pkt_init             004127e2 f   sftpcommon.obj
 0001:00011829       _sftp_recv_finish          00412829 f   sftpcommon.obj
 0001:0001185c       _sftp_recv_prepare         0041285c f   sftpcommon.obj
 0001:0001188b       _sftp_send_prepare         0041288b f   sftpcommon.obj
 0001:000120ce       _ssh_check_frozen          004130ce f   ssh.obj
 0001:00012132       _ssh_conn_processed_data   00413132 f   ssh.obj
 0001:000121d6       _ssh_deferred_abort_callback 004131d6 f   ssh.obj
 0001:000121fa       _ssh_get_logctx            004131fa f   ssh.obj
 0001:00012202       _ssh_got_exitcode          00413202 f   ssh.obj
 0001:0001220e       _ssh_got_fallback_cmd      0041320e f   ssh.obj
 0001:00012682       _ssh_ldisc_update          00413682 f   ssh.obj
 0001:00012696       _ssh_proto_error           00413696 f   ssh.obj
 0001:000126fd       _ssh_remote_eof            004136fd f   ssh.obj
 0001:00012756       _ssh_remote_error          00413756 f   ssh.obj
 0001:0001285f       _ssh_sw_abort              0041385f f   ssh.obj
 0001:000128c0       _ssh_sw_abort_deferred     004138c0 f   ssh.obj
 0001:0001291a       _ssh_throttle_conn         0041391a f   ssh.obj
 0001:00012967       _ssh_user_close            00413967 f   ssh.obj
 0001:00013034       _ssh1_bpp_new              00414034 f   ssh1bpp.obj
 0001:00013071       _ssh1_bpp_new_cipher       00414071 f   ssh1bpp.obj
 0001:0001316c       _ssh1_bpp_start_compression 0041416c f   ssh1bpp.obj
 0001:000131e6       _ssh1_censor_packet        004141e6 f   ssh1censor.obj
 0001:000139d9       _ssh1_channel_free         004149d9 f   ssh1connection.obj
 0001:000139f4       _ssh1_channel_init         004149f4 f   ssh1connection.obj
 0001:00013ace       _ssh1_check_termination    00414ace f   ssh1connection.obj
 0001:00013d96       _ssh1_connection_new       00414d96 f   ssh1connection.obj
 0001:00013e1f       _ssh1_connection_set_protoflags 00414e1f f   ssh1connection.obj
 0001:00014117       _ssh1_connection_direction_specific_setup 00415117 f   ssh1connection-client.obj
 0001:00014146       _ssh1_connection_need_antispoof_prompt 00415146 f   ssh1connection-client.obj
 0001:000141ab       _ssh1_handle_direction_specific_packet 004151ab f   ssh1connection-client.obj
 0001:00014630       _ssh1_rportfwd_alloc       00415630 f   ssh1connection-client.obj
 0001:00014779       _ssh1_serverside_agent_open 00415779 f   ssh1connection-client.obj
 0001:00014795       _ssh1_serverside_x11_open  00415795 f   ssh1connection-client.obj
 0001:000147c0       _ssh1_session_open         004157c0 f   ssh1connection-client.obj
 0001:00016487       _ssh1_login_new            00417487 f   ssh1login.obj
 0001:000172fe       _ssh2_bpp_new              004182fe f   ssh2bpp.obj
 0001:00017349       _ssh2_bpp_new_incoming_crypto 00418349 f   ssh2bpp.obj
 0001:000174a0       _ssh2_bpp_new_outgoing_crypto 004184a0 f   ssh2bpp.obj
 0001:00017609       _ssh2_bpp_rekey_inadvisable 00418609 f   ssh2bpp.obj
 0001:00017964       _ssh2_bare_bpp_new         00418964 f   ssh2bpp-bare.obj
 0001:0001799e       _ssh2_censor_packet        0041899e f   ssh2censor.obj
 0001:00018534       _ssh2_channel_init         00419534 f   ssh2connection.obj
 0001:0001869e       _ssh2_chanopen_init        0041969e f   ssh2connection.obj
 0001:000186e6       _ssh2_chanreq_init         004196e6 f   ssh2connection.obj
 0001:000192f6       _ssh2_connection_new       0041a2f6 f   ssh2connection.obj
 0001:000193c6       _ssh2_queue_global_request_handler 0041a3c6 f   ssh2connection.obj
 0001:0001983b       _ssh2_connection_need_antispoof_prompt 0041a83b f   ssh2connection-client.obj
 0001:00019856       _ssh2_connection_parse_channel_open 0041a856 f   ssh2connection-client.obj
 0001:0001998d       _ssh2_portfwd_chanopen     0041a98d f   ssh2connection-client.obj
 0001:00019a06       _ssh2_rportfwd_alloc       0041aa06 f   ssh2connection-client.obj
 0001:00019bb2       _ssh2_rportfwd_remove      0041abb2 f   ssh2connection-client.obj
 0001:00019c56       _ssh2_serverside_agent_open 0041ac56 f   ssh2connection-client.obj
 0001:00019c72       _ssh2_serverside_x11_open  0041ac72 f   ssh2connection-client.obj
 0001:00019c8e       _ssh2_session_open         0041ac8e f   ssh2connection-client.obj
 0001:00019ced       _ssh2channel_request_agent_forwarding 0041aced f   ssh2connection-client.obj
 0001:00019d24       _ssh2channel_request_pty   0041ad24 f   ssh2connection-client.obj
 0001:00019e10       _ssh2channel_request_x11_forwarding 0041ae10 f   ssh2connection-client.obj
 0001:00019e76       _ssh2channel_send_env_var  0041ae76 f   ssh2connection-client.obj
 0001:00019ecc       _ssh2channel_send_exit_signal 0041aecc f   ssh2connection-client.obj
 0001:00019ee8       _ssh2channel_send_exit_signal_numeric 0041aee8 f   ssh2connection-client.obj
 0001:00019f04       _ssh2channel_send_exit_status 0041af04 f   ssh2connection-client.obj
 0001:00019f20       _ssh2channel_send_serial_break 0041af20 f   ssh2connection-client.obj
 0001:00019f6a       _ssh2channel_send_signal   0041af6a f   ssh2connection-client.obj
 0001:00019fb4       _ssh2channel_send_terminal_size_change 0041afb4 f   ssh2connection-client.obj
 0001:0001a00b       _ssh2channel_start_command 0041b00b f   ssh2connection-client.obj
 0001:0001a053       _ssh2channel_start_shell   0041b053 f   ssh2connection-client.obj
 0001:0001a08a       _ssh2channel_start_subsystem 0041b08a f   ssh2connection-client.obj
 0001:0001a0d4       _ssh2kex_coroutine         0041b0d4 f   ssh2kex-client.obj
 0001:0001b731       _ssh_transient_hostkey_cache_add 0041c731 f   ssh2transhk.obj
 0001:0001b7e8       _ssh_transient_hostkey_cache_free 0041c7e8 f   ssh2transhk.obj
 0001:0001b82d       _ssh_transient_hostkey_cache_has 0041c82d f   ssh2transhk.obj
 0001:0001b84a       _ssh_transient_hostkey_cache_new 0041c84a f   ssh2transhk.obj
 0001:0001b86b       _ssh_transient_hostkey_cache_non_empty 0041c86b f   ssh2transhk.obj
 0001:0001b87d       _ssh_transient_hostkey_cache_verify 0041c87d f   ssh2transhk.obj
 0001:0001ca28       _ssh2_common_filter_queue  0041da28 f   ssh2transport.obj
 0001:0001d202       _ssh2_transport_dialog_callback 0041e202 f   ssh2transport.obj
 0001:0001d2b7       _ssh2_transport_get_session_id 0041e2b7 f   ssh2transport.obj
 0001:0001d50e       _ssh2_transport_new        0041e50e f   ssh2transport.obj
 0001:0001d6a2       _ssh2_transport_notify_auth_done 0041e6a2 f   ssh2transport.obj
 0001:0001d6e3       _ssh2_transport_pop        0041e6e3 f   ssh2transport.obj
 0001:0001dfd3       _ssh2transport_finalise_exhash 0041efd3 f   ssh2transport.obj
 0001:000208fc       _ssh2_userauth_new         004218fc f   ssh2userauth.obj
 0001:000209d2       _ssh2_userauth_set_transport_layer 004219d2 f   ssh2userauth.obj
 0001:00025e36       _aes256_decrypt_pubkey     00426e36 f   sshauxcrypt.obj
 0001:00025eae       _des3_decrypt_pubkey       00426eae f   sshauxcrypt.obj
 0001:00025f4c       _des_decrypt_xdmauth       00426f4c f   sshauxcrypt.obj
 0001:00025f71       _des_encrypt_xdmauth       00426f71 f   sshauxcrypt.obj
 0001:00026024       _hash_simple               00427024 f   sshauxcrypt.obj
 0001:0002604d       _mac_simple                0042704d f   sshauxcrypt.obj
 0001:00026a39       _blowfish_expandkey        00427a39 f   sshblowf.obj
 0001:00026dbf       _blowfish_initkey          00427dbf f   sshblowf.obj
 0001:00028115       _chan_no_request_response  00429115 f   sshcommon.obj
 0001:0002821b       _add_to_commasep           0042921b f   sshcommon.obj
 0001:0002824c       _alloc_channel_id_general  0042924c f   sshcommon.obj
 0001:0002829f       _chan_default_want_close   0042929f f   sshcommon.obj
 0001:000282b3       _chan_remotely_opened_confirmation 004292b3 f   sshcommon.obj
 0001:000282cf       _chan_remotely_opened_failure 004292cf f   sshcommon.obj
 0001:000282eb       _free_rportfwd             004292eb f   sshcommon.obj
 0001:00028317       _get_commasep_word         00429317 f   sshcommon.obj
 0001:00028384       _get_ttymodes_from_conf    00429384 f   sshcommon.obj
 0001:00028579       _pq_base_concatenate       00429579 f   sshcommon.obj
 0001:00028652       _pq_base_push              00429652 f   sshcommon.obj
 0001:00028683       _pq_base_push_front        00429683 f   sshcommon.obj
 0001:00028757       _pq_in_clear               00429757 f   sshcommon.obj
 0001:00028770       _pq_in_init                00429770 f   sshcommon.obj
 0001:000287b5       _pq_out_clear              004297b5 f   sshcommon.obj
 0001:000287e0       _pq_out_init               004297e0 f   sshcommon.obj
 0001:000287f5       _read_ttymodes_from_packet 004297f5 f   sshcommon.obj
 0001:000288cd       _ssh1_common_filter_queue  004298cd f   sshcommon.obj
 0001:0002896d       _ssh1_common_get_specials  0042996d f   sshcommon.obj
 0001:00028991       _ssh1_compute_session_id   00429991 f   sshcommon.obj
 0001:00028a25       _ssh1_pkt_type             00429a25 f   sshcommon.obj
 0001:00028bf2       _ssh2_bpp_check_unimplemented 00429bf2 f   sshcommon.obj
 0001:00028c4b       _ssh2_bpp_queue_disconnect 00429c4b f   sshcommon.obj
 0001:00028c92       _ssh2_pkt_type             00429c92 f   sshcommon.obj
 0001:00029030       _ssh_bpp_common_setup      0042a030 f   sshcommon.obj
 0001:00029077       _ssh_bpp_free              0042a077 f   sshcommon.obj
 0001:00029077       _ssh_ppl_free              0042a077 f   sshcommon.obj
 0001:000290af       _ssh_free_pktout           0042a0af f   sshcommon.obj
 0001:000290c6       _ssh_new_packet            0042a0c6 f   sshcommon.obj
 0001:00029136       _ssh_ppl_replace           0042a136 f   sshcommon.obj
 0001:00029181       _ssh_ppl_setup_queues      0042a181 f   sshcommon.obj
 0001:000291bd       _ssh_ppl_user_output_string_and_free 0042a1bd f   sshcommon.obj
 0001:000291e6       _verify_ssh_manual_host_key 0042a1e6 f   sshcommon.obj
 0001:00029361       _write_ttymodes_to_packet  0042a361 f   sshcommon.obj
 0001:00029420       _zombiechan_new            0042a420 f   sshcommon.obj
 0001:00029439       _crc32_ssh1                0042a439 f   sshcrc.obj
 0001:0002944c       _crc32_update              0042a44c f   sshcrc.obj
 0001:00029562       _crcda_free_context        0042a562 f   sshcrcda.obj
 0001:0002957f       _crcda_make_context        0042a57f f   sshcrcda.obj
 0001:00029598       _detect_attack             0042a598 f   sshcrcda.obj
 0001:0002a3c9       _des_key_setup             0042b3c9 f   sshdes.obj
 0001:0002a524       _dh_cleanup                0042b524 f   sshdh.obj
 0001:0002a57b       _dh_create_e               0042b57b f   sshdh.obj
 0001:0002a5fc       _dh_find_K                 0042b5fc f   sshdh.obj
 0001:0002a62f       _dh_is_gex                 0042b62f f   sshdh.obj
 0001:0002a639       _ssh_rsakex_klen           0042b639 f   sshrsa.obj
 0001:0002a639       _dh_modulus_bit_size       0042b639 f   sshdh.obj
 0001:0002a647       _dh_setup_gex              0042b647 f   sshdh.obj
 0001:0002a67a       _dh_setup_group            0042b67a f   sshdh.obj
 0001:0002a6be       _dh_validate_f             0042b6be f   sshdh.obj
 0001:0002af20       _dss_gen_k                 0042bf20 f   sshdss.obj
 0001:0002caef       _ssh_ecdhkex_curve_textname 0042daef f   sshecc.obj
 0001:0002cafc       _ssh_ecdhkex_freekey       0042dafc f   sshecc.obj
 0001:0002cb1a       _ssh_ecdhkex_getkey        0042db1a f   sshecc.obj
 0001:0002cb30       _ssh_ecdhkex_getpublic     0042db30 f   sshecc.obj
 0001:0002cb41       _ssh_ecdhkex_newkey        0042db41 f   sshecc.obj
 0001:0002cc48       _ssh_gssapi_bind_fns       0042dc48 f   sshgssc.obj
 0001:0002d2a7       _ssh2_mac_generate         0042e2a7 f   sshmac.obj
 0001:0002d2ff       _ssh2_mac_verify           0042e2ff f   sshmac.obj
 0001:0002d32a       _ssh2_mac_verresult        0042e32a f   sshmac.obj
 0001:0002d41b       _MD5Final                  0042e41b f   sshmd5.obj
 0001:0002d512       _MD5Init                   0042e512 f   sshmd5.obj
 0001:0002e0d5       _prng_add_entropy          0042f0d5 f   sshprng.obj
 0001:0002e1d7       _prng_free                 0042f1d7 f   sshprng.obj
 0001:0002e23b       _prng_new                  0042f23b f   sshprng.obj
 0001:0002e2c2       _prng_read                 0042f2c2 f   sshprng.obj
 0001:0002e3a6       _prng_seed_begin           0042f3a6 f   sshprng.obj
 0001:0002e3ed       _prng_seed_finish          0042f3ed f   sshprng.obj
 0001:0002e48a       _find_pubkey_alg           0042f48a f   sshpubk.obj
 0001:0002e4a1       _find_pubkey_alg_len       0042f4a1 f   sshpubk.obj
 0001:0002e550       _key_type                  0042f550 f   sshpubk.obj
 0001:0002e7c7       _key_type_to_str           0042f7c7 f   sshpubk.obj
 0001:0002e84b       _openssh_loadpub           0042f84b f   sshpubk.obj
 0001:0002ebd5       _rfc4716_loadpub           0042fbd5 f   sshpubk.obj
 0001:0002ee60       _rsa_ssh1_encrypted        0042fe60 f   sshpubk.obj
 0001:0002f14c       _rsa_ssh1_loadkey          0043014c f   sshpubk.obj
 0001:0002f206       _rsa_ssh1_loadpub          00430206 f   sshpubk.obj
 0001:0002f444       _ssh2_fingerprint          00430444 f   sshpubk.obj
 0001:0002f476       _ssh2_fingerprint_blob     00430476 f   sshpubk.obj
 0001:0002f576       _ssh2_load_userkey         00430576 f   sshpubk.obj
 0001:0002fc48       _ssh2_userkey_encrypted    00430c48 f   sshpubk.obj
 0001:0002fdad       _ssh2_userkey_loadpub      00430dad f   sshpubk.obj
 0001:0003007a       _random_add_noise          0043107a f   sshrand.obj
 0001:0003009e       _random_clear              0043109e f   sshrand.obj
 0001:00030139       _random_get_savedata       00431139 f   sshrand.obj
 0001:00030173       _random_read               00431173 f   sshrand.obj
 0001:000301aa       _random_ref                004311aa f   sshrand.obj
 0001:000301c7       _random_save_seed          004311c7 f   sshrand.obj
 0001:0003024b       _random_unref              0043124b f   sshrand.obj
 0001:00030742       _rsa2_invalid              00431742 f   sshrsa.obj
 0001:00030798       _BinarySource_get_rsa_ssh1_priv 00431798 f   sshrsa.obj
 0001:000307ad       _BinarySource_get_rsa_ssh1_pub 004317ad f   sshrsa.obj
 0001:0003081c       _crt_modpow                0043181c f   sshrsa.obj
 0001:00030964       _freersakey                00431964 f   sshrsa.obj
 0001:000309ab       _freersapriv               004319ab f   sshrsa.obj
 0001:00030c14       _rsa_ssh1_decrypt          00431c14 f   sshrsa.obj
 0001:00030c19       _rsa_ssh1_encrypt          00431c19 f   sshrsa.obj
 0001:00030d6b       _rsa_ssh1_fingerprint      00431d6b f   sshrsa.obj
 0001:00030e6a       _rsa_ssh1_public_blob      00431e6a f   sshrsa.obj
 0001:00030ebd       _rsa_verify                00431ebd f   sshrsa.obj
 0001:00030fdc       _rsastr_fmt                00431fdc f   sshrsa.obj
 0001:00031007       _ssh_rsakex_encrypt        00432007 f   sshrsa.obj
 0001:00031141       _ssh_rsakex_freekey        00432141 f   sshrsa.obj
 0001:00031150       _ssh_rsakex_newkey         00432150 f   sshrsa.obj
 0001:00031cab       _SHA384_Final              00432cab f   sshsh512.obj
 0001:00031ce8       _SHA384_Init               00432ce8 f   sshsh512.obj
 0001:00032bc5       _SHA512_Final              00433bc5 f   sshsh512.obj
 0001:00032ced       _SHA512_Init               00433ced f   sshsh512.obj
 0001:00033c03       _share_activate            00434c03 f   sshshare.obj
 0001:00033f18       _share_dead_xchannel_respond 00434f18 f   sshshare.obj
 0001:00034a81       _share_got_pkt_from_server 00435a81 f   sshshare.obj
 0001:00034d87       _share_ndownstreams        00435d87 f   sshshare.obj
 0001:00034e96       _share_setup_x11_channel   00435e96 f   sshshare.obj
 0001:00035242       _share_xchannel_confirmation 00436242 f   sshshare.obj
 0001:000352ef       _share_xchannel_failure    004362ef f   sshshare.obj
 0001:00035365       _sharestate_free           00436365 f   sshshare.obj
 0001:000353bf       _ssh_connection_sharing_init 004363bf f   sshshare.obj
 0001:000355bb       _ssh_connshare_provide_connlayer 004365bb f   sshshare.obj
 0001:000355c7       _ssh_share_sockname        004365c7 f   sshshare.obj
 0001:00035630       _ssh_share_test_for_upstream 00436630 f   sshshare.obj
 0001:00036171       _ssh_verstring_get_bugs    00437171 f   sshverstring.obj
 0001:00036179       _ssh_verstring_get_remote  00437179 f   sshverstring.obj
 0001:00036183       _ssh_verstring_new         00437183 f   sshverstring.obj
 0001:00036309       _zlib_compress_init        00437309 f   sshzlib.obj
 0001:000363a5       _zlib_compress_cleanup     004373a5 f   sshzlib.obj
 0001:000363d7       _zlib_compress_block       004373d7 f   sshzlib.obj
 0001:00036496       _zlib_decompress_init      00437496 f   sshzlib.obj
 0001:00036579       _zlib_decompress_cleanup   00437579 f   sshzlib.obj
 0001:000365e7       _zlib_decompress_block     004375e7 f   sshzlib.obj
 0001:0003772d       _stripctrl_enable_line_limiting 0043872d f   stripctrl.obj
 0001:00037738       _stripctrl_free            00438738 f   stripctrl.obj
 0001:000379d9       _stripctrl_new             004389d9 f   stripctrl.obj
 0001:00037a3a       _stripctrl_reset           00438a3a f   stripctrl.obj
 0001:00037a6f       _stripctrl_retarget        00438a6f f   stripctrl.obj
 0001:00037a82       _stripctrl_string_ptrlen   00438a82 f   stripctrl.obj
 0001:00037b15       _expire_timer_context      00438b15 f   timing.obj
 0001:00037b62       _run_timers                00438b62 f   timing.obj
 0001:00037c07       _schedule_timer            00438c07 f   timing.obj
 0001:00037c9a       _timing_last_clock         00438c9a f   timing.obj
 0001:00037ca0       _add234                    00438ca0 f   tree234.obj
 0001:0003820c       _count234                  0043920c f   tree234.obj
 0001:00038258       _del234                    00439258 f   tree234.obj
 0001:00038287       _delpos234                 00439287 f   tree234.obj
 0001:00038759       _find234                   00439759 f   tree234.obj
 0001:00038772       _findrel234                00439772 f   tree234.obj
 0001:0003878d       _findrelpos234             0043978d f   tree234.obj
 0001:000388c4       _freetree234               004398c4 f   tree234.obj
 0001:000388da       _index234                  004398da f   tree234.obj
 0001:00038950       _newtree234                00439950 f   tree234.obj
 0001:00038969       _search234_start           00439969 f   tree234.obj
 0001:00038989       _search234_step            00439989 f   tree234.obj
 0001:00038a7a       _base64_decode_atom        00439a7a f   utils.obj
 0001:00038b66       _base64_encode_atom        00439b66 f   utils.obj
 0001:00038be2       _bufchain_add              00439be2 f   utils.obj
 0001:00038c84       _bufchain_clear            00439c84 f   utils.obj
 0001:00038cb6       _bufchain_consume          00439cb6 f   utils.obj
 0001:00038d41       _bufchain_fetch            00439d41 f   utils.obj
 0001:00038db3       _bufchain_fetch_consume    00439db3 f   utils.obj
 0001:00038dd4       _bufchain_fetch_consume_up_to 00439dd4 f   utils.obj
 0001:00038dfa       _bufchain_init             00439dfa f   utils.obj
 0001:00038e13       _bufchain_prefix           00439e13 f   utils.obj
 0001:00038e22       _bufchain_set_callback_inner 00439e22 f   utils.obj
 0001:00038e35       _bufchain_size             00439e35 f   utils.obj
 0001:00038e3d       _bufchain_try_fetch_consume 00439e3d f   utils.obj
 0001:00038e5e       _chomp                     00439e5e f   utils.obj
 0001:00038e8b       _ctrlparse                 00439e8b f   utils.obj
 0001:00038f09       _dupcat                    00439f09 f   utils.obj
 0001:00038f88       _dupprintf                 00439f88 f   utils.obj
 0001:00038f99       _dupstr                    00439f99 f   utils.obj
 0001:00038fc8       _dupvprintf                00439fc8 f   utils.obj
 0001:0003905e       _fgetline                  0043a05e f   utils.obj
 0001:000390e6       _host_strchr               0043a0e6 f   utils.obj
 0001:0003915a       _host_strcspn              0043a15a f   utils.obj
 0001:00039180       _host_strduptrim           0043a180 f   utils.obj
 0001:00039205       _host_strrchr              0043a205 f   utils.obj
 0001:00039225       _mkstr                     0043a225 f   utils.obj
 0001:00039251       _nullstrcmp                0043a251 f   utils.obj
 0001:00039274       _parse_blocksize           0043a274 f   utils.obj
 0001:000392e5       _ptrlen_endswith           0043a2e5 f   utils.obj
 0001:00039328       _ptrlen_eq_ptrlen          0043a328 f   utils.obj
 0001:0003934d       _ptrlen_eq_string          0043a34d f   utils.obj
 0001:00039378       _smemeq                    0043a378 f   utils.obj
 0001:000393d8       _strbuf_append             0043a3d8 f   utils.obj
 0001:00039416       _strbuf_catf               0043a416 f   utils.obj
 0001:0003942c       _strbuf_catfv              0043a42c f   utils.obj
 0001:00039461       _strbuf_finalise_agent_query 0043a461 f   utils.obj
 0001:000394a8       _strbuf_free               0043a4a8 f   utils.obj
 0001:000394d3       _strbuf_new                0043a4d3 f   utils.obj
 0001:000394dc       _strbuf_new_for_agent_query 0043a4dc f   utils.obj
 0001:0003953c       _strbuf_new_nm             0043a53c f   utils.obj
 0001:00039545       _strbuf_to_str             0043a545 f   utils.obj
 0001:0003955a       _string_length_for_printf  0043a55a f   utils.obj
 0001:00039585       _vsnprintf                 0043a585 f i utils.obj
 0001:000395fe       _mk_wcwidth                0043a5fe f   wcwidth.obj
 0001:00039655       _wc_match                  0043a655 f   wildcard.obj
 0001:000398d2       _wc_unescape               0043a8d2 f   wildcard.obj
 0001:00039918       _got_crypt                 0043a918 f   wincapi.obj
 0001:00039a82       _cleanup_exit              0043aa82 f   wincons.obj
 0001:00039a96       _console_confirm_weak_cached_hostkey 0043aa96 f   wincons.obj
 0001:00039b6f       _console_confirm_weak_crypto_primitive 0043ab6f f   wincons.obj
 0001:00039c48       _console_connection_fatal  0043ac48 f   wincons.obj
 0001:00039c60       _console_get_userpass_input 0043ac60 f   wincons.obj
 0001:00039eb6       _console_print_error_msg   0043aeb6 f   wincons.obj
 0001:00039f0a       _console_print_error_msg_fmt_v 0043af0a f   wincons.obj
 0001:00039f2f       _console_stripctrl_new     0043af2f f   wincons.obj
 0001:00039f40       _console_verify_ssh_host_key 0043af40 f   wincons.obj
 0001:0003a0c6       _modalfatalbox             0043b0c6 f   wincons.obj
 0001:0003a0e4       _nonfatal                  0043b0e4 f   wincons.obj
 0001:0003a0fb       _old_keyfile_warning       0043b0fb f   wincons.obj
 0001:0003a111       _pgp_fingerprints          0043b111 f   wincons.obj
 0001:0003a127       _platform_default_b        0043b127 f   windefs.obj
 0001:0003a12c       _platform_default_filename 0043b12c f   windefs.obj
 0001:0003a153       _platform_default_fontspec 0043b153 f   windefs.obj
 0001:0003a185       _platform_default_i        0043b185 f   windefs.obj
 0001:0003a18a       _platform_default_s        0043b18a f   windefs.obj
 0001:0003a2a5       _ssh_gss_cleanup           0043b2a5 f   wingss.obj
 0001:0003a2ef       _ssh_gss_setup             0043b2ef f   wingss.obj
 0001:0003ab29       _handle_add_foreign_event  0043bb29 f   winhandl.obj
 0001:0003abd6       _handle_free               0043bbd6 f   winhandl.obj
 0001:0003ac31       _handle_get_events         0043bc31 f   winhandl.obj
 0001:0003ac9f       _handle_got_event          0043bc9f f   winhandl.obj
 0001:0003adbc       _handle_input_new          0043bdbc f   winhandl.obj
 0001:0003aff5       _handle_output_new         0043bff5 f   winhandl.obj
 0001:0003b250       _handle_unthrottle         0043c250 f   winhandl.obj
 0001:0003b282       _handle_write              0043c282 f   winhandl.obj
 0001:0003b2e4       _handle_write_eof          0043c2e4 f   winhandl.obj
 0001:0003b675       _make_handle_socket        0043c675 f   winhsock.obj
 0001:0003b720       _dll_hijacking_protection  0043c720 f   winmisc.obj
 0001:0003b786       _escape_registry_key       0043c786 f   winmisc.obj
 0001:0003b810       _filename_char_sanitise    0043c810 f   winmisc.obj
 0001:0003b834       _filename_copy             0043c834 f   winmisc.obj
 0001:0003b841       _fontspec_free             0043c841 f   winmisc.obj
 0001:0003b841       _filename_free             0043c841 f   winmisc.obj
 0001:0003b857       _filename_from_str         0043c857 f   winmisc.obj
 0001:0003b877       _filename_is_null          0043c877 f   winmisc.obj
 0001:0003b884       _filename_to_str           0043c884 f   winmisc.obj
 0001:0003b88b       _fontspec_copy             0043c88b f   winmisc.obj
 0001:0003b8a5       _fontspec_new              0043c8a5 f   winmisc.obj
 0001:0003b8da       _get_username              0043c8da f   winmisc.obj
 0001:0003b9d2       _load_system32_dll         0043c9d2 f   winmisc.obj
 0001:0003ba4b       _open_for_write_would_lose_data 0043ca4b f   winmisc.obj
 0001:0003ba94       _platform_get_x_display    0043ca94 f   winmisc.obj
 0001:0003baa7       _win_strerror              0043caa7 f   winmisc.obj
 0001:0003bbb8       _smemclr                   0043cbb8 f   winmiscs.obj
 0001:0003bea8       _IN6_IS_ADDR_LOOPBACK      0043cea8 f i winnet.obj
 0001:0003bf1e       _first_socket              0043cf1e f   winnet.obj
 0001:0003bfe2       _net_service_lookup        0043cfe2 f   winnet.obj
 0001:0003c004       _next_socket               0043d004 f   winnet.obj
 0001:0003c029       _platform_get_x11_unix_address 0043d029 f   winnet.obj
 0001:0003c05a       _select_result             0043d05a f   winnet.obj
 0001:0003c40a       _sk_addr_dup               0043d40a f   winnet.obj
 0001:0003c411       _sk_addr_error             0043d411 f   winnet.obj
 0001:0003c419       _sk_addr_free              0043d419 f   winnet.obj
 0001:0003c451       _sk_addr_needs_port        0043d451 f   winnet.obj
 0001:0003c45d       _sk_addrcopy               0043d45d f   winnet.obj
 0001:0003c523       _sk_address_is_local       0043d523 f   winnet.obj
 0001:0003c5c2       _sk_addrtype               0043d5c2 f   winnet.obj
 0001:0003c5f5       _sk_cleanup                0043d5f5 f   winnet.obj
 0001:0003c6ac       _sk_getaddr                0043d6ac f   winnet.obj
 0001:0003c774       _sk_hostname_is_local      0043d774 f   winnet.obj
 0001:0003c7b9       _sk_init                   0043d7b9 f   winnet.obj
 0001:0003ccae       _sk_namedpipe_addr         0043dcae f   winnet.obj
 0001:0003ccf9       _sk_namelookup             0043dcf9 f   winnet.obj
 0001:0003d01e       _sk_new                    0043e01e f   winnet.obj
 0001:0003d0b8       _sk_newlistener            0043e0b8 f   winnet.obj
 0001:0003d3eb       _sk_nonamelookup           0043e3eb f   winnet.obj
 0001:0003d4a4       _socket_writable           0043e4a4 f   winnet.obj
 0001:0003d878       _try_send                  0043e878 f   winnet.obj
 0001:0003d95f       _winsock_error_string      0043e95f f   winnet.obj
 0001:0003db4d       _noise_get_heavy           0043eb4d f   winnoise.obj
 0001:0003dc22       _noise_regular             0043ec22 f   winnoise.obj
 0001:0003dd35       _noise_ultralight          0043ed35 f   winnoise.obj
 0001:0003dd85       _prng_reseed_time_ms       0043ed85 f   winnoise.obj
 0001:0003ddaf       _win_read_random           0043edaf f   winnoise.obj
 0001:0003de89       _new_named_pipe_client     0043ee89 f   winnpc.obj
 0001:0003e1c8       _new_named_pipe_listener   0043f1c8 f   winnps.obj
 0001:0003e2db       _agent_cancel_query        0043f2db f   winpgntc.obj
 0001:0003e2f4       _agent_exists              0043f2f4 f   winpgntc.obj
 0001:0003e307       _agent_query               0043f307 f   winpgntc.obj
 0001:0003e4cd       _platform_new_connection   0043f4cd f   winproxy.obj
 0001:0003e6e3       _get_user_sid              0043f6e3 f   winsecur.obj
 0001:0003e800       _getsids                   0043f800 f   winsecur.obj
 0001:0003e8e4       _got_advapi                0043f8e4 f   winsecur.obj
 0001:0003ea0b       _make_private_security_descriptor 0043fa0b f   winsecur.obj
 0001:0003eca0       _restrict_process_acl      0043fca0 f   winsecur.obj
 0001:0003ecc7       _begin_wildcard_matching   0043fcc7 f   winsftp.obj
 0001:0003ed6d       _close_directory           0043fd6d f   winsftp.obj
 0001:0003ed92       _close_wfile               0043fd92 f   winsftp.obj
 0001:0003ed92       _close_rfile               0043fd92 f   winsftp.obj
 0001:0003edcb       _create_directory          0043fdcb f   winsftp.obj
 0001:0003eddd       _dir_file_cat              0043fddd f   winsftp.obj
 0001:0003ee39       _do_eventsel_loop          0043fe39 f   winsftp.obj
 0001:0003f02e       _do_select                 0044002e f   winsftp.obj
 0001:0003f0a3       _file_type                 004400a3 f   winsftp.obj
 0001:0003f0bf       _filexfer_get_userpass_input 004400bf f   winsftp.obj
 0001:0003f0d9       _finish_wildcard_matching  004400d9 f   winsftp.obj
 0001:0003f107       _get_file_posn             00440107 f   winsftp.obj
 0001:0003f12b       _main                      0044012b f   winsftp.obj
 0001:0003f135       _open_directory            00440135 f   winsftp.obj
 0001:0003f1c3       _open_existing_file        004401c3 f   winsftp.obj
 0001:0003f298       _open_existing_wfile       00440298 f   winsftp.obj
 0001:0003f2fc       _open_new_file             004402fc f   winsftp.obj
 0001:0003f336       _platform_psftp_pre_conn_setup 00440336 f   winsftp.obj
 0001:0003f353       _psftp_getcwd              00440353 f   winsftp.obj
 0001:0003f394       _psftp_lcd                 00440394 f   winsftp.obj
 0001:0003f3f4       _read_filename             004403f4 f   winsftp.obj
 0001:0003f498       _read_from_file            00440498 f   winsftp.obj
 0001:0003f4c2       _seek_file                 004404c2 f   winsftp.obj
 0001:0003f50c       _ssh_sftp_get_cmdline      0044050c f   winsftp.obj
 0001:0003f5ee       _ssh_sftp_loop_iteration   004405ee f   winsftp.obj
 0001:0003f6f4       _stripslashes              004406f4 f   winsftp.obj
 0001:0003f73e       _test_wildcard             0044073e f   winsftp.obj
 0001:0003f794       _vet_filename              00440794 f   winsftp.obj
 0001:0003f7de       _wildcard_get_filename     004407de f   winsftp.obj
 0001:0003f867       _write_to_file             00440867 f   winsftp.obj
 0001:0003f982       _platform_ssh_share        00440982 f   winshare.obj
 0001:0003fdf1       _close_settings_r          00440df1 f   winstore.obj
 0001:0003fe0b       _have_ssh_host_key         00440e0b f   winstore.obj
 0001:0003fe51       _open_settings_r           00440e51 f   winstore.obj
 0001:0003fee1       _read_random_seed          00440ee1 f   winstore.obj
 0001:0003ff60       _read_setting_filename     00440f60 f   winstore.obj
 0001:0003ff90       _read_setting_fontspec     00440f90 f   winstore.obj
 0001:0004006d       _read_setting_i            0044106d f   winstore.obj
 0001:000400b0       _read_setting_s            004410b0 f   winstore.obj
 0001:00040155       _store_host_key            00441155 f   winstore.obj
 0001:00040275       _verify_host_key           00441275 f   winstore.obj
 0001:000404ad       _write_random_seed         004414ad f   winstore.obj
 0001:000404de       _ltime                     004414de f   wintime.obj
 0001:00040563       _mb_to_wc                  00441563 f   winucs.obj
 0001:00040a86       _x11_authcmp               00441a86 f   x11fwd.obj
 0001:00040aeb       _x11_dehexify              00441aeb f   x11fwd.obj
 0001:00040b5a       _x11_free_display          00441b5a f   x11fwd.obj
 0001:00040b9f       _x11_free_fake_auth        00441b9f f   x11fwd.obj
 0001:00040c17       _x11_identify_auth_proto   00441c17 f   x11fwd.obj
 0001:00040c45       _x11_invent_fake_auth      00441c45 f   x11fwd.obj
 0001:00040d9d       _x11_make_greeting         00441d9d f   x11fwd.obj
 0001:00040f74       _x11_new_channel           00441f74 f   x11fwd.obj
 0001:00041111       _x11_setup_display         00442111 f   x11fwd.obj
 0001:00041636       @__security_check_cookie@4 00442636 f   LIBCMT:secchk.obj
 0001:00041650       __alloca_probe             00442650 f   LIBCMT:chkstk.obj
 0001:00041650       __chkstk                   00442650 f   LIBCMT:chkstk.obj
 0001:00041680       __allmul                   00442680 f   LIBCMT:llmul.obj
 0001:000416c0       __allshl                   004426c0 f   LIBCMT:llshl.obj
 0001:000416e0       __aullshr                  004426e0 f   LIBCMT:ullshr.obj
 0001:000416ff       ___raise_securityfailure   004426ff f   LIBCMT:gs_report.obj
 0001:00041727       ___report_gsfailure        00442727 f   LIBCMT:gs_report.obj
 0001:00041820       ___report_rangecheckfailure 00442820 f   LIBCMT:gs_report.obj
 0001:0004182c       ___report_securityfailure  0044282c f   LIBCMT:gs_report.obj
 0001:00041900       __aulldiv                  00442900 f   LIBCMT:ulldiv.obj
 0001:00041baf       _mainCRTStartup            00442baf f   LIBCMT:exe_main.obj
 0001:00041bfd       ___scrt_acquire_startup_lock 00442bfd f   LIBCMT:utility.obj
 0001:00041c2f       ___scrt_initialize_crt     00442c2f f   LIBCMT:utility.obj
 0001:00041c68       ___scrt_initialize_onexit_tables 00442c68 f   LIBCMT:utility.obj
 0001:00041cef       ___scrt_is_nonwritable_in_current_image 00442cef f   LIBCMT:utility.obj
 0001:00041d83       ___scrt_release_startup_lock 00442d83 f   LIBCMT:utility.obj
 0001:00041da0       ___scrt_uninitialize_crt   00442da0 f   LIBCMT:utility.obj
 0001:00041dc8       __onexit                   00442dc8 f   LIBCMT:utility.obj
 0001:00041df5       _atexit                    00442df5 f   LIBCMT:utility.obj
 0001:00041e57       ___security_init_cookie    00442e57 f   LIBCMT:gs_support.obj
 0001:00041ea2       __get_startup_file_mode    00442ea2 f   LIBCMT:file_mode.obj
 0001:00041ea8       ?__scrt_initialize_type_info@@YAXXZ 00442ea8 f   LIBCMT:tncleanup.obj
 0001:00041eb4       __initialize_default_precision 00442eb4 f   LIBCMT:default_precision.obj
 0001:00041ed5       ___scrt_initialize_default_local_stdio_options 00442ed5 f   LIBCMT:default_local_stdio_options.obj
 0001:00041ef2       ___scrt_is_user_matherr_present 00442ef2 f   LIBCMT:matherr_detection.obj
 0001:00041efe       ___scrt_get_dyn_tls_init_callback 00442efe f   LIBCMT:dyn_tls_init.obj
 0001:00041f04       ___scrt_get_dyn_tls_dtor_callback 00442f04 f   LIBCMT:dyn_tls_dtor.obj
 0001:00041f0a       ___scrt_fastfail           00442f0a f   LIBCMT:utility_desktop.obj
 0001:00042024       ___scrt_initialize_mta     00443024 f   LIBCMT:utility_desktop.obj
 0001:00042029       ___scrt_is_managed_app     00443029 f   LIBCMT:utility_desktop.obj
 0001:0004206c       ___scrt_set_unhandled_exception_filter 0044306c f   LIBCMT:utility_desktop.obj
 0001:00042078       ___scrt_unhandled_exception_filter@4 00443078 f   LIBCMT:utility_desktop.obj
 0001:000420b9       __crt_debugger_hook        004430b9 f   LIBCMT:utility_desktop.obj
 0001:000420c1       __RTC_Initialize           004430c1 f   LIBCMT:initsect.obj
 0001:000420ed       __RTC_Terminate            004430ed f   LIBCMT:initsect.obj
 0001:00042120       __SEH_prolog4              00443120 f   LIBCMT:sehprolg4.obj
 0001:00042166       __SEH_epilog4              00443166 f   LIBCMT:sehprolg4.obj
 0001:0004217b       ___isa_available_init      0044317b f   LIBCMT:cpu_disp.obj
 0001:00042312       ___scrt_is_ucrt_dll_in_use 00443312 f   LIBCMT:ucrt_detection.obj
 0001:0004231e       _IsProcessorFeaturePresent@4 0044331e f   kernel32:KERNEL32.dll
 0001:00042330       _memchr                    00443330 f   libvcruntime:memchr.obj
 0001:000423e0       _memcpy                    004433e0 f   libvcruntime:memcpy.obj
 0001:00042960       _memmove                   00443960 f   libvcruntime:memmove.obj
 0001:00042ee0       _strchr                    00443ee0 f   libvcruntime:strchr.obj
 0001:00042f4e       ___from_strstr_to_strchr   00443f4e     libvcruntime:strchr.obj
 0001:00043010       _strrchr                   00444010 f   libvcruntime:strrchr.obj
 0001:00043150       _memset                    00444150 f   libvcruntime:memset.obj
 0001:000432aa       _memcmp                    004442aa f   libvcruntime:memcmp.obj
 0001:00044250       _strstr                    00445250 f   libvcruntime:strstr.obj
 0001:00044500       __except_handler4          00445500 f   libvcruntime:chandler4.obj
 0001:0004465e       ___vcrt_initialize         0044565e f   libvcruntime:initialization.obj
 0001:0004467d       ___vcrt_uninitialize       0044567d f   libvcruntime:initialization.obj
 0001:00044694       ___std_type_info_compare   00445694 f   libvcruntime:std_type_info.obj
 0001:000446d0       __local_unwind4            004456d0 f   libvcruntime:exsup4.obj
 0001:000447a8       __seh_longjmp_unwind4@4    004457a8 f   libvcruntime:exsup4.obj
 0001:000447d0       @_EH4_CallFilterFunc@8     004457d0 f   libvcruntime:exsup4.obj
 0001:000447e8       @_EH4_TransferToHandler@8  004457e8 f   libvcruntime:exsup4.obj
 0001:00044804       @_EH4_GlobalUnwind2@8      00445804 f   libvcruntime:exsup4.obj
 0001:00044820       @_EH4_LocalUnwind@16       00445820 f   libvcruntime:exsup4.obj
 0001:00044837       ___except_validate_context_record 00445837 f   libvcruntime:jbcxrval.obj
 0001:00044867       ___except_validate_jump_buffer 00445867 f   libvcruntime:jbcxrval.obj
 0001:00044894       ___vcrt_freefls@4          00445894 f   libvcruntime:per_thread_data.obj
 0001:000448b0       ___vcrt_getptd             004458b0 f   libvcruntime:per_thread_data.obj
 0001:000448be       ___vcrt_getptd_noexit      004458be f   libvcruntime:per_thread_data.obj
 0001:00044950       ___vcrt_initialize_ptd     00445950 f   libvcruntime:per_thread_data.obj
 0001:00044983       ___vcrt_uninitialize_ptd   00445983 f   libvcruntime:per_thread_data.obj
 0001:0004499e       ___vcrt_initialize_locks   0044599e f   libvcruntime:locks.obj
 0001:000449da       ___vcrt_uninitialize_locks 004459da f   libvcruntime:locks.obj
 0001:00044a10       __global_unwind2           00445a10 f   libvcruntime:exsup.obj
 0001:00044a76       __local_unwind2            00445a76 f   libvcruntime:exsup.obj
 0001:00044afa       __abnormal_termination     00445afa f   libvcruntime:exsup.obj
 0001:00044b20       __NLG_Notify1              00445b20 f   libvcruntime:exsup.obj
 0001:00044b2c       __NLG_Notify               00445b2c f   libvcruntime:exsup.obj
 0001:00044b43       __NLG_Dispatch             00445b43     libvcruntime:exsup.obj
 0001:00044b43       __NLG_Dispatch2            00445b43     libvcruntime:exsup.obj
 0001:00044b4b       __NLG_Call                 00445b4b f   libvcruntime:exsup.obj
 0001:00044b4d       __NLG_Return2              00445b4d     libvcruntime:exsup.obj
 0001:00044c43       ___vcrt_FlsAlloc           00445c43 f   libvcruntime:winapi_downlevel.obj
 0001:00044c7e       ___vcrt_FlsFree            00445c7e f   libvcruntime:winapi_downlevel.obj
 0001:00044cb9       ___vcrt_FlsGetValue        00445cb9 f   libvcruntime:winapi_downlevel.obj
 0001:00044cf4       ___vcrt_FlsSetValue        00445cf4 f   libvcruntime:winapi_downlevel.obj
 0001:00044d32       ___vcrt_InitializeCriticalSectionEx 00445d32 f   libvcruntime:winapi_downlevel.obj
 0001:00044d79       ?GetRangeOfTrysToCheck@__FrameHandler3@@SA?AU?$pair@Viterator@TryBlockMap@__FrameHandler3@@V123@@std@@AAVTryBlockMap@1@HPAXPBU_s_FuncInfo@@H@Z 00445d79 f   libvcruntime:trnsctrl.obj
 0001:00044de9       ?_CallCatchBlock2@@YAPAXPAUEHRegistrationNode@@PBU_s_FuncInfo@@PAXHK@Z 00445de9 f   libvcruntime:trnsctrl.obj
 0001:00044e47       ?_CallSETranslator@@YAHPAUEHExceptionRecord@@PAUEHRegistrationNode@@PAX2PBU_s_FuncInfo@@H1@Z 00445e47 f   libvcruntime:trnsctrl.obj
 0001:00044f2d       ?_JumpToContinuation@@YGXPAXPAUEHRegistrationNode@@@Z 00445f2d f   libvcruntime:trnsctrl.obj
 0001:00044f5d       ?_UnwindNestedFrames@@YGXPAUEHRegistrationNode@@PAUEHExceptionRecord@@@Z 00445f5d f   libvcruntime:trnsctrl.obj
 0001:00044fb0       __CatchGuardHandler        00445fb0 f   libvcruntime:trnsctrl.obj
 0001:00044fe1       __CreateFrameInfo          00445fe1 f   libvcruntime:trnsctrl.obj
 0001:00045005       __FindAndUnlinkFrame       00446005 f   libvcruntime:trnsctrl.obj
 0001:0004504d       __TranslatorGuardHandler   0044604d f   libvcruntime:trnsctrl.obj
 0001:000450ea       ___CxxFrameHandler3        004460ea f   libvcruntime:trnsctrl.obj
 0001:0004584c       ??$TypeMatchHelper@V__FrameHandler3@@@@YAHPBU_s_HandlerType@@PBU_s_CatchableType@@PBU_s_ThrowInfo@@@Z 0044684c f i libvcruntime:frame.obj
 0001:000458da       ??$__InternalCxxFrameHandler@V__FrameHandler3@@@@YA?AW4_EXCEPTION_DISPOSITION@@PAUEHExceptionRecord@@PAUEHRegistrationNode@@PAU_CONTEXT@@PAXPBU_s_FuncInfo@@H1E@Z 004468da f i libvcruntime:frame.obj
 0001:000459dc       ??0bad_exception@std@@QAE@ABV01@@Z 004469dc f i libvcruntime:frame.obj
 0001:000459f7       ??0bad_exception@std@@QAE@XZ 004469f7 f i libvcruntime:frame.obj
 0001:00045a0f       ??0exception@std@@QAE@ABV01@@Z 00446a0f f i libvcruntime:frame.obj
 0001:00045a3b       ??1bad_exception@std@@UAE@XZ 00446a3b f i libvcruntime:frame.obj
 0001:00045a4c       ??8type_info@@QBE_NABV0@@Z 00446a4c f i libvcruntime:frame.obj
 0001:00045a6b       ??_Ebad_exception@std@@UAEPAXI@Z 00446a6b f i libvcruntime:frame.obj
 0001:00045a6b       ??_Eexception@std@@UAEPAXI@Z 00446a6b f i libvcruntime:frame.obj
 0001:00045a6b       ??_Gexception@std@@UAEPAXI@Z 00446a6b f i libvcruntime:frame.obj
 0001:00045a6b       ??_Gbad_exception@std@@UAEPAXI@Z 00446a6b f i libvcruntime:frame.obj
 0001:00045ce0       ?FrameUnwindToEmptyState@__FrameHandler3@@SAXPAUEHRegistrationNode@@PAXPBU_s_FuncInfo@@@Z 00446ce0 f   libvcruntime:frame.obj
 0001:00045cf8       ?FrameUnwindToState@__FrameHandler3@@SAXPAUEHRegistrationNode@@PAXPBU_s_FuncInfo@@H@Z 00446cf8 f   libvcruntime:frame.obj
 0001:00045e7a       ?_CallMemberFunction1@@YGXQAX00@Z 00446e7a f i libvcruntime:frame.obj
 0001:00045e8a       ?_CallMemberFunction2@@YGXQAX00H@Z 00446e8a f i libvcruntime:frame.obj
 0001:00045e9d       ?getESTypes@__FrameHandler3@@SAPBU_s_ESTypeList@@PBU_s_FuncInfo@@@Z 00446e9d f i libvcruntime:frame.obj
 0001:00045ea8       ?what@exception@std@@UBEPBDXZ 00446ea8 f i libvcruntime:frame.obj
 0001:00045ec0       __CallSettingFrame@12      00446ec0 f   libvcruntime:lowhelpr.obj
 0001:00045ee7       __NLG_Return               00446ee7     libvcruntime:lowhelpr.obj
 0001:00045f0c       _unexpected                00446f0c f   libvcruntime:unexpected.obj
 0001:00045f29       ?GetCurrentState@__FrameHandler3@@SAHPAUEHRegistrationNode@@PAXPBU_s_FuncInfo@@@Z 00446f29 f   libvcruntime:ehstate.obj
 0001:00045f46       ?SetState@__FrameHandler3@@SAXPAUEHRegistrationNode@@PBU_s_FuncInfo@@H@Z 00446f46 f   libvcruntime:ehstate.obj
 0001:00045f54       ___DestructExceptionObject 00446f54 f   libvcruntime:ehhelpers.obj
 0001:00045ff4       ?_CallMemberFunction0@@YGXQAX0@Z 00446ff4 f i libvcruntime:ehhelpers.obj
 0001:00046001       __IsExceptionObjectToBeDestroyed 00447001 f   libvcruntime:ehhelpers.obj
 0001:00046027       ___AdjustPointer           00447027 f   libvcruntime:ehhelpers.obj
 0001:0004604c       ___FrameUnwindFilter       0044704c f   libvcruntime:ehhelpers.obj
 0001:00046091       ___std_exception_copy      00447091 f   libvcruntime:std_exception.obj
 0001:000460f4       ___std_exception_destroy   004470f4 f   libvcruntime:std_exception.obj
 0001:00046113       __CxxThrowException@8      00447113 f   libvcruntime:throw.obj
 0001:0004677f       ??$ftprintf@PAU_iobuf@@PB_WABQB_WABQB_WABI@?$__crt_char_traits@_W@@SAH$$QAPAU_iobuf@@$$QAPB_WABQB_W2ABI@Z 0044777f f i libucrt:assert.obj
 0001:0004685c       __vfwprintf_l              0044785c f i libucrt:assert.obj
 0001:00046881       __vswprintf_c_l            00447881 f i libucrt:assert.obj
 0001:000468b0       __wassert                  004478b0 f   libucrt:assert.obj
 0001:000468f8       _fwprintf                  004478f8 f i libucrt:assert.obj
 0001:00046994       _swprintf                  00447994 f i libucrt:assert.obj
 0001:000469c0       _strlen                    004479c0 f   libucrt:strlen.obj
 0001:00046a4b       __fclose_nolock            00447a4b f   libucrt:fclose.obj
 0001:00046ac2       _fclose                    00447ac2 f   libucrt:fclose.obj
 0001:00046bfd       _fopen                     00447bfd f   libucrt:fopen.obj
 0001:00046c14       __fread_nolock_s           00447c14 f   libucrt:fread.obj
 0001:00046dfa       _fread                     00447dfa f   libucrt:fread.obj
 0001:00046e17       _fread_s                   00447e17 f   libucrt:fread.obj
 0001:00046eb4       ??$is_overflow_condition@K@__crt_strtox@@YA_NIK@Z 00447eb4 f i libucrt:atox.obj
 0001:00046ee5       ??$is_overflow_condition@_K@__crt_strtox@@YA_NI_K@Z 00447ee5 f i libucrt:atox.obj
 0001:00046f26       ??$parse_integer@KV?$c_string_character_source@D@__crt_strtox@@@__crt_strtox@@YAKQAU__crt_locale_pointers@@V?$c_string_character_source@D@0@H_N@Z 00447f26 f i libucrt:atox.obj
 0001:0004714b       ??$parse_integer@KV?$c_string_character_source@_W@__crt_strtox@@@__crt_strtox@@YAKQAU__crt_locale_pointers@@V?$c_string_character_source@_W@0@H_N@Z 0044814b f i libucrt:atox.obj
 0001:00047753       ??$parse_integer@_KV?$c_string_character_source@D@__crt_strtox@@@__crt_strtox@@YA_KQAU__crt_locale_pointers@@V?$c_string_character_source@D@0@H_N@Z 00448753 f i libucrt:atox.obj
 0001:000479f9       ??0_LocaleUpdate@@QAE@QAU__crt_locale_pointers@@@Z 004489f9 f i libucrt:atox.obj
 0001:00047a7c       ??1_LocaleUpdate@@QAE@XZ   00448a7c f i libucrt:atox.obj
 0001:00047a8c       ?unget@?$c_string_character_source@D@__crt_strtox@@QAEXD@Z 00448a8c f i libucrt:atox.obj
 0001:00047ab5       ?unget@?$c_string_character_source@_W@__crt_strtox@@QAEX_W@Z 00448ab5 f i libucrt:atox.obj
 0001:00047ae3       ?validate@?$string_output_adapter@D@__crt_stdio_output@@QBE_NXZ 00448ae3 f i libucrt:output.obj
 0001:00047ae3       ?validate@?$string_output_adapter@_W@__crt_stdio_output@@QBE_NXZ 00448ae3 f i libucrt:output.obj
 0001:00047ae3       ?validate@?$c_string_character_source@D@__crt_strtox@@QBE_NXZ 00448ae3 f i libucrt:atox.obj
 0001:00047ae3       ?validate@?$c_string_character_source@_W@__crt_strtox@@QBE_NXZ 00448ae3 f i libucrt:atox.obj
 0001:00047ae3       ?validate@?$stream_output_adapter@_W@__crt_stdio_output@@QBE_NXZ 00448ae3 f i libucrt:output.obj
 0001:00047afe       ___acrt_locale_get_ctype_array_value 00448afe f i libucrt:atox.obj
 0001:00047b20       __ischartype_l             00448b20 f i libucrt:atox.obj
 0001:00047b74       __wtol                     00448b74 f   libucrt:atox.obj
 0001:00047b97       _atol                      00448b97 f   libucrt:atox.obj
 0001:00047b97       _atoi                      00448b97 f   libucrt:atox.obj
 0001:00047bc0       _strcmp                    00448bc0 f   libucrt:strcmp.obj
 0001:00047c50       _strncmp                   00448c50 f   libucrt:strncmp.obj
 0001:00047cd0       _strspn                    00448cd0 f   libucrt:strspn.obj
 0001:00047f53       ___acrt_stdio_flush_nolock 00448f53 f   libucrt:fflush.obj
 0001:00047fb8       __fflush_nolock            00448fb8 f   libucrt:fflush.obj
 0001:00048000       __flushall                 00449000 f   libucrt:fflush.obj
 0001:00048009       _fflush                    00449009 f   libucrt:fflush.obj
 0001:000480fc       __fwrite_nolock            004490fc f   libucrt:fwrite.obj
 0001:0004827d       _fwrite                    0044927d f   libucrt:fwrite.obj
 0001:0004869b       ??$count@D@formatting_buffer@__crt_stdio_output@@QBEIXZ 0044969b f i libucrt:output.obj
 0001:000486b3       ??$count@_W@formatting_buffer@__crt_stdio_output@@QBEIXZ 004496b3 f i libucrt:output.obj
 0001:000486cc       ??$ensure_buffer_is_big_enough@D@formatting_buffer@__crt_stdio_output@@QAE_NI@Z 004496cc f i libucrt:output.obj
 0001:00048749       ??$ensure_buffer_is_big_enough@_W@formatting_buffer@__crt_stdio_output@@QAE_NI@Z 00449749 f i libucrt:output.obj
 0001:000487c7       ??$is_wide_character_specifier@D@__crt_stdio_output@@YA_N_KDW4length_modifier@0@@Z 004497c7 f i libucrt:output.obj
 0001:000487f8       ??$is_wide_character_specifier@_W@__crt_stdio_output@@YA_N_K_WW4length_modifier@0@@Z 004497f8 f i libucrt:output.obj
 0001:00048846       ??$scratch_data@D@formatting_buffer@__crt_stdio_output@@QAEPADXZ 00449846 f i libucrt:output.obj
 0001:00048864       ??$type_case_integer_parse_into_buffer@I@?$output_processor@DV?$string_output_adapter@D@__crt_stdio_output@@V?$standard_base@DV?$string_output_adapter@D@__crt_stdio_output@@@2@@__crt_stdio_output@@AAEXII_N@Z 00449864 f i libucrt:output.obj
 0001:00048864       ??$type_case_integer_parse_into_buffer@I@?$output_processor@DV?$stream_output_adapter@D@__crt_stdio_output@@V?$standard_base@DV?$stream_output_adapter@D@__crt_stdio_output@@@2@@__crt_stdio_output@@AAEXII_N@Z 00449864 f i libucrt:output.obj
 0001:000488d7       ??$type_case_integer_parse_into_buffer@I@?$output_processor@_WV?$string_output_adapter@_W@__crt_stdio_output@@V?$standard_base@_WV?$string_output_adapter@_W@__crt_stdio_output@@@2@@__crt_stdio_output@@AAEXII_N@Z 004498d7 f i libucrt:output.obj
 0001:000488d7       ??$type_case_integer_parse_into_buffer@I@?$output_processor@_WV?$stream_output_adapter@_W@__crt_stdio_output@@V?$standard_base@_WV?$stream_output_adapter@_W@__crt_stdio_output@@@2@@__crt_stdio_output@@AAEXII_N@Z 004498d7 f i libucrt:output.obj
 0001:0004895e       ??$type_case_integer_parse_into_buffer@_K@?$output_processor@DV?$string_output_adapter@D@__crt_stdio_output@@V?$standard_base@DV?$string_output_adapter@D@__crt_stdio_output@@@2@@__crt_stdio_output@@AAEX_KI_N@Z 0044995e f i libucrt:output.obj
 0001:0004895e       ??$type_case_integer_parse_into_buffer@_K@?$output_processor@DV?$stream_output_adapter@D@__crt_stdio_output@@V?$standard_base@DV?$stream_output_adapter@D@__crt_stdio_output@@@2@@__crt_stdio_output@@AAEX_KI_N@Z 0044995e f i libucrt:output.obj
 0001:000489ec       ??$type_case_integer_parse_into_buffer@_K@?$output_processor@_WV?$string_output_adapter@_W@__crt_stdio_output@@V?$standard_base@_WV?$string_output_adapter@_W@__crt_stdio_output@@@2@@__crt_stdio_output@@AAEX_KI_N@Z 004499ec f i libucrt:output.obj
 0001:000489ec       ??$type_case_integer_parse_into_buffer@_K@?$output_processor@_WV?$stream_output_adapter@_W@__crt_stdio_output@@V?$standard_base@_WV?$stream_output_adapter@_W@__crt_stdio_output@@@2@@__crt_stdio_output@@AAEX_KI_N@Z 004499ec f i libucrt:output.obj
 0001:00048a8e       ??$write_multiple_characters@V?$stream_output_adapter@D@__crt_stdio_output@@D@__crt_stdio_output@@YAXABV?$stream_output_adapter@D@0@DHQAH@Z 00449a8e f i libucrt:output.obj
 0001:00048ac9       ??$write_multiple_characters@V?$stream_output_adapter@_W@__crt_stdio_output@@D@__crt_stdio_output@@YAXABV?$stream_output_adapter@_W@0@DHQAH@Z 00449ac9 f i libucrt:output.obj
 0001:00048b09       ??$write_multiple_characters@V?$string_output_adapter@D@__crt_stdio_output@@D@__crt_stdio_output@@YAXABV?$string_output_adapter@D@0@DHQAH@Z 00449b09 f i libucrt:output.obj
 0001:00048b35       ??$write_multiple_characters@V?$string_output_adapter@_W@__crt_stdio_output@@D@__crt_stdio_output@@YAXABV?$string_output_adapter@_W@0@DHQAH@Z 00449b35 f i libucrt:output.obj
 0001:00048b66       ??0?$common_data@D@__crt_stdio_output@@IAE@XZ 00449b66 f i libucrt:output.obj
 0001:00048bab       ??0?$common_data@_W@__crt_stdio_output@@IAE@XZ 00449bab f i libucrt:output.obj
 0001:00048bf5       ??0?$output_adapter_data@DV?$stream_output_adapter@D@__crt_stdio_output@@@__crt_stdio_output@@IAE@ABV?$stream_output_adapter@D@1@_KQBDQAU__crt_locale_pointers@@QAD@Z 00449bf5 f i libucrt:output.obj
 0001:00048bf5       ??0?$output_adapter_data@DV?$string_output_adapter@D@__crt_stdio_output@@@__crt_stdio_output@@IAE@ABV?$string_output_adapter@D@1@_KQBDQAU__crt_locale_pointers@@QAD@Z 00449bf5 f i libucrt:output.obj
 0001:00048c31       ??0?$output_adapter_data@_WV?$string_output_adapter@_W@__crt_stdio_output@@@__crt_stdio_output@@IAE@ABV?$string_output_adapter@_W@1@_KQB_WQAU__crt_locale_pointers@@QAD@Z 00449c31 f i libucrt:output.obj
 0001:00048c31       ??0?$output_adapter_data@_WV?$stream_output_adapter@_W@__crt_stdio_output@@@__crt_stdio_output@@IAE@ABV?$stream_output_adapter@_W@1@_KQB_WQAU__crt_locale_pointers@@QAD@Z 00449c31 f i libucrt:output.obj
 0001:00048c6d       ??1formatting_buffer@__crt_stdio_output@@QAE@XZ 00449c6d f i libucrt:output.obj
 0001:00048c87       ??4?$__crt_unique_heap_ptr@DU__crt_internal_free_policy@@@@QAEAAV0@$$QAV0@@Z 00449c87 f i libucrt:output.obj
 0001:00048e29       ?crop_zeroes@__crt_stdio_output@@YAXPADQAU__crt_locale_pointers@@@Z 00449e29 f i libucrt:output.obj
 0001:00048e89       ?find_next_state@?$output_processor@DV?$string_output_adapter@D@__crt_stdio_output@@V?$standard_base@DV?$string_output_adapter@D@__crt_stdio_output@@@2@@__crt_stdio_output@@ABE?AW4state@2@DW432@@Z 00449e89 f i libucrt:output.obj
 0001:00048e89       ?find_next_state@?$output_processor@DV?$stream_output_adapter@D@__crt_stdio_output@@V?$standard_base@DV?$stream_output_adapter@D@__crt_stdio_output@@@2@@__crt_stdio_output@@ABE?AW4state@2@DW432@@Z 00449e89 f i libucrt:output.obj
 0001:00048ec6       ?find_next_state@?$output_processor@_WV?$string_output_adapter@_W@__crt_stdio_output@@V?$standard_base@_WV?$string_output_adapter@_W@__crt_stdio_output@@@2@@__crt_stdio_output@@ABE?AW4state@2@_WW432@@Z 00449ec6 f i libucrt:output.obj
 0001:00048ec6       ?find_next_state@?$output_processor@_WV?$stream_output_adapter@_W@__crt_stdio_output@@V?$standard_base@_WV?$stream_output_adapter@_W@__crt_stdio_output@@@2@@__crt_stdio_output@@ABE?AW4state@2@_WW432@@Z 00449ec6 f i libucrt:output.obj
 0001:00048f05       ?force_decimal_point@__crt_stdio_output@@YAXPADQAU__crt_locale_pointers@@@Z 00449f05 f i libucrt:output.obj
 0001:00048f61       ?parse_int_from_format_string@?$output_processor@DV?$string_output_adapter@D@__crt_stdio_output@@V?$standard_base@DV?$string_output_adapter@D@__crt_stdio_output@@@2@@__crt_stdio_output@@AAE_NQAH@Z 00449f61 f i libucrt:output.obj
 0001:00048f61       ?parse_int_from_format_string@?$output_processor@DV?$stream_output_adapter@D@__crt_stdio_output@@V?$standard_base@DV?$stream_output_adapter@D@__crt_stdio_output@@@2@@__crt_stdio_output@@AAE_NQAH@Z 00449f61 f i libucrt:output.obj
 0001:00048fd5       ?parse_int_from_format_string@?$output_processor@_WV?$string_output_adapter@_W@__crt_stdio_output@@V?$standard_base@_WV?$string_output_adapter@_W@__crt_stdio_output@@@2@@__crt_stdio_output@@AAE_NQAH@Z 00449fd5 f i libucrt:output.obj
 0001:00048fd5       ?parse_int_from_format_string@?$output_processor@_WV?$stream_output_adapter@_W@__crt_stdio_output@@V?$standard_base@_WV?$stream_output_adapter@_W@__crt_stdio_output@@@2@@__crt_stdio_output@@AAE_NQAH@Z 00449fd5 f i libucrt:output.obj
 0001:0004904b       ?process@?$output_processor@DV?$stream_output_adapter@D@__crt_stdio_output@@V?$standard_base@DV?$stream_output_adapter@D@__crt_stdio_output@@@2@@__crt_stdio_output@@QAEHXZ 0044a04b f i libucrt:output.obj
 0001:0004915f       ?process@?$output_processor@DV?$string_output_adapter@D@__crt_stdio_output@@V?$standard_base@DV?$string_output_adapter@D@__crt_stdio_output@@@2@@__crt_stdio_output@@QAEHXZ 0044a15f f i libucrt:output.obj
 0001:00049273       ?process@?$output_processor@_WV?$stream_output_adapter@_W@__crt_stdio_output@@V?$standard_base@_WV?$stream_output_adapter@_W@__crt_stdio_output@@@2@@__crt_stdio_output@@QAEHXZ 0044a273 f i libucrt:output.obj
 0001:0004938f       ?process@?$output_processor@_WV?$string_output_adapter@_W@__crt_stdio_output@@V?$standard_base@_WV?$string_output_adapter@_W@__crt_stdio_output@@@2@@__crt_stdio_output@@QAEHXZ 0044a38f f i libucrt:output.obj
 0001:000494ab       ?state_case_flag@?$output_processor@DV?$string_output_adapter@D@__crt_stdio_output@@V?$standard_base@DV?$string_output_adapter@D@__crt_stdio_output@@@2@@__crt_stdio_output@@AAE_NXZ 0044a4ab f i libucrt:output.obj
 0001:000494ab       ?state_case_flag@?$output_processor@DV?$stream_output_adapter@D@__crt_stdio_output@@V?$standard_base@DV?$stream_output_adapter@D@__crt_stdio_output@@@2@@__crt_stdio_output@@AAE_NXZ 0044a4ab f i libucrt:output.obj
 0001:000494e8       ?state_case_flag@?$output_processor@_WV?$string_output_adapter@_W@__crt_stdio_output@@V?$standard_base@_WV?$string_output_adapter@_W@__crt_stdio_output@@@2@@__crt_stdio_output@@AAE_NXZ 0044a4e8 f i libucrt:output.obj
 0001:000494e8       ?state_case_flag@?$output_processor@_WV?$stream_output_adapter@_W@__crt_stdio_output@@V?$standard_base@_WV?$stream_output_adapter@_W@__crt_stdio_output@@@2@@__crt_stdio_output@@AAE_NXZ 0044a4e8 f i libucrt:output.obj
 0001:00049525       ?state_case_normal@?$output_processor@DV?$stream_output_adapter@D@__crt_stdio_output@@V?$standard_base@DV?$stream_output_adapter@D@__crt_stdio_output@@@2@@__crt_stdio_output@@AAE_NXZ 0044a525 f i libucrt:output.obj
 0001:00049544       ?state_case_normal@?$output_processor@DV?$string_output_adapter@D@__crt_stdio_output@@V?$standard_base@DV?$string_output_adapter@D@__crt_stdio_output@@@2@@__crt_stdio_output@@AAE_NXZ 0044a544 f i libucrt:output.obj
 0001:00049563       ?state_case_normal@?$output_processor@_WV?$stream_output_adapter@_W@__crt_stdio_output@@V?$standard_base@_WV?$stream_output_adapter@_W@__crt_stdio_output@@@2@@__crt_stdio_output@@AAE_NXZ 0044a563 f i libucrt:output.obj
 0001:00049582       ?state_case_normal@?$output_processor@_WV?$string_output_adapter@_W@__crt_stdio_output@@V?$standard_base@_WV?$string_output_adapter@_W@__crt_stdio_output@@@2@@__crt_stdio_output@@AAE_NXZ 0044a582 f i libucrt:output.obj
 0001:000495a1       ?state_case_normal_common@?$output_processor@DV?$stream_output_adapter@D@__crt_stdio_output@@V?$standard_base@DV?$stream_output_adapter@D@__crt_stdio_output@@@2@@__crt_stdio_output@@AAE_NXZ 0044a5a1 f i libucrt:output.obj
 0001:000495db       ?state_case_normal_common@?$output_processor@DV?$string_output_adapter@D@__crt_stdio_output@@V?$standard_base@DV?$string_output_adapter@D@__crt_stdio_output@@@2@@__crt_stdio_output@@AAE_NXZ 0044a5db f i libucrt:output.obj
 0001:00049605       ?state_case_normal_common@?$output_processor@_WV?$stream_output_adapter@_W@__crt_stdio_output@@V?$standard_base@_WV?$stream_output_adapter@_W@__crt_stdio_output@@@2@@__crt_stdio_output@@AAE_NXZ 0044a605 f i libucrt:output.obj
 0001:0004962f       ?state_case_normal_common@?$output_processor@_WV?$string_output_adapter@_W@__crt_stdio_output@@V?$standard_base@_WV?$string_output_adapter@_W@__crt_stdio_output@@@2@@__crt_stdio_output@@AAE_NXZ 0044a62f f i libucrt:output.obj
 0001:0004964a       ?state_case_normal_tchar@?$output_processor@DV?$stream_output_adapter@D@__crt_stdio_output@@V?$standard_base@DV?$stream_output_adapter@D@__crt_stdio_output@@@2@@__crt_stdio_output@@AAE_ND@Z 0044a64a f i libucrt:output.obj
 0001:000496b7       ?state_case_normal_tchar@?$output_processor@DV?$string_output_adapter@D@__crt_stdio_output@@V?$standard_base@DV?$string_output_adapter@D@__crt_stdio_output@@@2@@__crt_stdio_output@@AAE_ND@Z 0044a6b7 f i libucrt:output.obj
 0001:0004971b       ?state_case_precision@?$output_processor@DV?$string_output_adapter@D@__crt_stdio_output@@V?$standard_base@DV?$string_output_adapter@D@__crt_stdio_output@@@2@@__crt_stdio_output@@AAE_NXZ 0044a71b f i libucrt:output.obj
 0001:0004971b       ?state_case_precision@?$output_processor@DV?$stream_output_adapter@D@__crt_stdio_output@@V?$standard_base@DV?$stream_output_adapter@D@__crt_stdio_output@@@2@@__crt_stdio_output@@AAE_NXZ 0044a71b f i libucrt:output.obj
 0001:00049741       ?state_case_precision@?$output_processor@_WV?$stream_output_adapter@_W@__crt_stdio_output@@V?$standard_base@_WV?$stream_output_adapter@_W@__crt_stdio_output@@@2@@__crt_stdio_output@@AAE_NXZ 0044a741 f i libucrt:output.obj
 0001:00049741       ?state_case_precision@?$output_processor@_WV?$string_output_adapter@_W@__crt_stdio_output@@V?$standard_base@_WV?$string_output_adapter@_W@__crt_stdio_output@@@2@@__crt_stdio_output@@AAE_NXZ 0044a741 f i libucrt:output.obj
 0001:00049768       ?state_case_size@?$output_processor@DV?$stream_output_adapter@D@__crt_stdio_output@@V?$standard_base@DV?$stream_output_adapter@D@__crt_stdio_output@@@2@@__crt_stdio_output@@AAE_NXZ 0044a768 f i libucrt:output.obj
 0001:000498b6       ?state_case_size@?$output_processor@DV?$string_output_adapter@D@__crt_stdio_output@@V?$standard_base@DV?$string_output_adapter@D@__crt_stdio_output@@@2@@__crt_stdio_output@@AAE_NXZ 0044a8b6 f i libucrt:output.obj
 0001:00049a04       ?state_case_size@?$output_processor@_WV?$stream_output_adapter@_W@__crt_stdio_output@@V?$standard_base@_WV?$stream_output_adapter@_W@__crt_stdio_output@@@2@@__crt_stdio_output@@AAE_NXZ 0044aa04 f i libucrt:output.obj
 0001:00049b7c       ?state_case_size@?$output_processor@_WV?$string_output_adapter@_W@__crt_stdio_output@@V?$standard_base@_WV?$string_output_adapter@_W@__crt_stdio_output@@@2@@__crt_stdio_output@@AAE_NXZ 0044ab7c f i libucrt:output.obj
 0001:00049cf4       ?state_case_type@?$output_processor@DV?$stream_output_adapter@D@__crt_stdio_output@@V?$standard_base@DV?$stream_output_adapter@D@__crt_stdio_output@@@2@@__crt_stdio_output@@AAE_NXZ 0044acf4 f i libucrt:output.obj
 0001:00049f26       ?state_case_type@?$output_processor@DV?$string_output_adapter@D@__crt_stdio_output@@V?$standard_base@DV?$string_output_adapter@D@__crt_stdio_output@@@2@@__crt_stdio_output@@AAE_NXZ 0044af26 f i libucrt:output.obj
 0001:0004a158       ?state_case_type@?$output_processor@_WV?$stream_output_adapter@_W@__crt_stdio_output@@V?$standard_base@_WV?$stream_output_adapter@_W@__crt_stdio_output@@@2@@__crt_stdio_output@@AAE_NXZ 0044b158 f i libucrt:output.obj
 0001:0004a3bd       ?state_case_type@?$output_processor@_WV?$string_output_adapter@_W@__crt_stdio_output@@V?$standard_base@_WV?$string_output_adapter@_W@__crt_stdio_output@@@2@@__crt_stdio_output@@AAE_NXZ 0044b3bd f i libucrt:output.obj
 0001:0004a622       ?state_case_width@?$output_processor@DV?$stream_output_adapter@D@__crt_stdio_output@@V?$standard_base@DV?$stream_output_adapter@D@__crt_stdio_output@@@2@@__crt_stdio_output@@AAE_NXZ 0044b622 f i libucrt:output.obj
 0001:0004a622       ?state_case_width@?$output_processor@DV?$string_output_adapter@D@__crt_stdio_output@@V?$standard_base@DV?$string_output_adapter@D@__crt_stdio_output@@@2@@__crt_stdio_output@@AAE_NXZ 0044b622 f i libucrt:output.obj
 0001:0004a64d       ?state_case_width@?$output_processor@_WV?$stream_output_adapter@_W@__crt_stdio_output@@V?$standard_base@_WV?$stream_output_adapter@_W@__crt_stdio_output@@@2@@__crt_stdio_output@@AAE_NXZ 0044b64d f i libucrt:output.obj
 0001:0004a64d       ?state_case_width@?$output_processor@_WV?$string_output_adapter@_W@__crt_stdio_output@@V?$standard_base@_WV?$string_output_adapter@_W@__crt_stdio_output@@@2@@__crt_stdio_output@@AAE_NXZ 0044b64d f i libucrt:output.obj
 0001:0004a679       ?to_integer_size@__crt_stdio_output@@YAIW4length_modifier@1@@Z 0044b679 f i libucrt:output.obj
 0001:0004a6cd       ?type_case_Z@?$output_processor@DV?$stream_output_adapter@D@__crt_stdio_output@@V?$standard_base@DV?$stream_output_adapter@D@__crt_stdio_output@@@2@@__crt_stdio_output@@AAE_NXZ 0044b6cd f i libucrt:output.obj
 0001:0004a6cd       ?type_case_Z@?$output_processor@DV?$string_output_adapter@D@__crt_stdio_output@@V?$standard_base@DV?$string_output_adapter@D@__crt_stdio_output@@@2@@__crt_stdio_output@@AAE_NXZ 0044b6cd f i libucrt:output.obj
 0001:0004a727       ?type_case_Z@?$output_processor@_WV?$string_output_adapter@_W@__crt_stdio_output@@V?$standard_base@_WV?$string_output_adapter@_W@__crt_stdio_output@@@2@@__crt_stdio_output@@AAE_NXZ 0044b727 f i libucrt:output.obj
 0001:0004a727       ?type_case_Z@?$output_processor@_WV?$stream_output_adapter@_W@__crt_stdio_output@@V?$standard_base@_WV?$stream_output_adapter@_W@__crt_stdio_output@@@2@@__crt_stdio_output@@AAE_NXZ 0044b727 f i libucrt:output.obj
 0001:0004a781       ?type_case_a@?$output_processor@DV?$string_output_adapter@D@__crt_stdio_output@@V?$standard_base@DV?$string_output_adapter@D@__crt_stdio_output@@@2@@__crt_stdio_output@@AAE_NXZ 0044b781 f i libucrt:output.obj
 0001:0004a781       ?type_case_a@?$output_processor@DV?$stream_output_adapter@D@__crt_stdio_output@@V?$standard_base@DV?$stream_output_adapter@D@__crt_stdio_output@@@2@@__crt_stdio_output@@AAE_NXZ 0044b781 f i libucrt:output.obj
 0001:0004a8d0       ?type_case_a@?$output_processor@_WV?$string_output_adapter@_W@__crt_stdio_output@@V?$standard_base@_WV?$string_output_adapter@_W@__crt_stdio_output@@@2@@__crt_stdio_output@@AAE_NXZ 0044b8d0 f i libucrt:output.obj
 0001:0004a8d0       ?type_case_a@?$output_processor@_WV?$stream_output_adapter@_W@__crt_stdio_output@@V?$standard_base@_WV?$stream_output_adapter@_W@__crt_stdio_output@@@2@@__crt_stdio_output@@AAE_NXZ 0044b8d0 f i libucrt:output.obj
 0001:0004aa35       ?type_case_c_tchar@?$output_processor@DV?$stream_output_adapter@D@__crt_stdio_output@@V?$standard_base@DV?$stream_output_adapter@D@__crt_stdio_output@@@2@@__crt_stdio_output@@AAE_ND@Z 0044ba35 f i libucrt:output.obj
 0001:0004aa35       ?type_case_c_tchar@?$output_processor@DV?$string_output_adapter@D@__crt_stdio_output@@V?$standard_base@DV?$string_output_adapter@D@__crt_stdio_output@@@2@@__crt_stdio_output@@AAE_ND@Z 0044ba35 f i libucrt:output.obj
 0001:0004aac5       ?type_case_c_tchar@?$output_processor@_WV?$stream_output_adapter@_W@__crt_stdio_output@@V?$standard_base@_WV?$stream_output_adapter@_W@__crt_stdio_output@@@2@@__crt_stdio_output@@AAE_N_W@Z 0044bac5 f i libucrt:output.obj
 0001:0004aac5       ?type_case_c_tchar@?$output_processor@_WV?$string_output_adapter@_W@__crt_stdio_output@@V?$standard_base@_WV?$string_output_adapter@_W@__crt_stdio_output@@@2@@__crt_stdio_output@@AAE_N_W@Z 0044bac5 f i libucrt:output.obj
 0001:0004ab5b       ?type_case_integer@?$output_processor@DV?$stream_output_adapter@D@__crt_stdio_output@@V?$standard_base@DV?$stream_output_adapter@D@__crt_stdio_output@@@2@@__crt_stdio_output@@AAE_NI_N@Z 0044bb5b f i libucrt:output.obj
 0001:0004ab5b       ?type_case_integer@?$output_processor@DV?$string_output_adapter@D@__crt_stdio_output@@V?$standard_base@DV?$string_output_adapter@D@__crt_stdio_output@@@2@@__crt_stdio_output@@AAE_NI_N@Z 0044bb5b f i libucrt:output.obj
 0001:0004acac       ?type_case_integer@?$output_processor@_WV?$string_output_adapter@_W@__crt_stdio_output@@V?$standard_base@_WV?$string_output_adapter@_W@__crt_stdio_output@@@2@@__crt_stdio_output@@AAE_NI_N@Z 0044bcac f i libucrt:output.obj
 0001:0004acac       ?type_case_integer@?$output_processor@_WV?$stream_output_adapter@_W@__crt_stdio_output@@V?$standard_base@_WV?$stream_output_adapter@_W@__crt_stdio_output@@@2@@__crt_stdio_output@@AAE_NI_N@Z 0044bcac f i libucrt:output.obj
 0001:0004ae01       ?type_case_n@?$output_processor@DV?$string_output_adapter@D@__crt_stdio_output@@V?$standard_base@DV?$string_output_adapter@D@__crt_stdio_output@@@2@@__crt_stdio_output@@AAE_NXZ 0044be01 f i libucrt:output.obj
 0001:0004ae01       ?type_case_n@?$output_processor@DV?$stream_output_adapter@D@__crt_stdio_output@@V?$standard_base@DV?$stream_output_adapter@D@__crt_stdio_output@@@2@@__crt_stdio_output@@AAE_NXZ 0044be01 f i libucrt:output.obj
 0001:0004ae01       ?type_case_n@?$output_processor@_WV?$stream_output_adapter@_W@__crt_stdio_output@@V?$standard_base@_WV?$stream_output_adapter@_W@__crt_stdio_output@@@2@@__crt_stdio_output@@AAE_NXZ 0044be01 f i libucrt:output.obj
 0001:0004ae01       ?type_case_n@?$output_processor@_WV?$string_output_adapter@_W@__crt_stdio_output@@V?$standard_base@_WV?$string_output_adapter@_W@__crt_stdio_output@@@2@@__crt_stdio_output@@AAE_NXZ 0044be01 f i libucrt:output.obj
 0001:0004ae75       ?type_case_o@?$output_processor@DV?$string_output_adapter@D@__crt_stdio_output@@V?$standard_base@DV?$string_output_adapter@D@__crt_stdio_output@@@2@@__crt_stdio_output@@AAE_NXZ 0044be75 f i libucrt:output.obj
 0001:0004ae75       ?type_case_o@?$output_processor@DV?$stream_output_adapter@D@__crt_stdio_output@@V?$standard_base@DV?$stream_output_adapter@D@__crt_stdio_output@@@2@@__crt_stdio_output@@AAE_NXZ 0044be75 f i libucrt:output.obj
 0001:0004ae94       ?type_case_o@?$output_processor@_WV?$string_output_adapter@_W@__crt_stdio_output@@V?$standard_base@_WV?$string_output_adapter@_W@__crt_stdio_output@@@2@@__crt_stdio_output@@AAE_NXZ 0044be94 f i libucrt:output.obj
 0001:0004ae94       ?type_case_o@?$output_processor@_WV?$stream_output_adapter@_W@__crt_stdio_output@@V?$standard_base@_WV?$stream_output_adapter@_W@__crt_stdio_output@@@2@@__crt_stdio_output@@AAE_NXZ 0044be94 f i libucrt:output.obj
 0001:0004aeb3       ?type_case_p@?$output_processor@DV?$string_output_adapter@D@__crt_stdio_output@@V?$standard_base@DV?$string_output_adapter@D@__crt_stdio_output@@@2@@__crt_stdio_output@@AAE_NXZ 0044beb3 f i libucrt:output.obj
 0001:0004aeb3       ?type_case_p@?$output_processor@DV?$stream_output_adapter@D@__crt_stdio_output@@V?$standard_base@DV?$stream_output_adapter@D@__crt_stdio_output@@@2@@__crt_stdio_output@@AAE_NXZ 0044beb3 f i libucrt:output.obj
 0001:0004aecb       ?type_case_p@?$output_processor@_WV?$stream_output_adapter@_W@__crt_stdio_output@@V?$standard_base@_WV?$stream_output_adapter@_W@__crt_stdio_output@@@2@@__crt_stdio_output@@AAE_NXZ 0044becb f i libucrt:output.obj
 0001:0004aecb       ?type_case_p@?$output_processor@_WV?$string_output_adapter@_W@__crt_stdio_output@@V?$standard_base@_WV?$string_output_adapter@_W@__crt_stdio_output@@@2@@__crt_stdio_output@@AAE_NXZ 0044becb f i libucrt:output.obj
 0001:0004aee3       ?type_case_s@?$output_processor@DV?$stream_output_adapter@D@__crt_stdio_output@@V?$standard_base@DV?$stream_output_adapter@D@__crt_stdio_output@@@2@@__crt_stdio_output@@AAE_NXZ 0044bee3 f i libucrt:output.obj
 0001:0004aee3       ?type_case_s@?$output_processor@DV?$string_output_adapter@D@__crt_stdio_output@@V?$standard_base@DV?$string_output_adapter@D@__crt_stdio_output@@@2@@__crt_stdio_output@@AAE_NXZ 0044bee3 f i libucrt:output.obj
 0001:0004af54       ?type_case_s@?$output_processor@_WV?$stream_output_adapter@_W@__crt_stdio_output@@V?$standard_base@_WV?$stream_output_adapter@_W@__crt_stdio_output@@@2@@__crt_stdio_output@@AAE_NXZ 0044bf54 f i libucrt:output.obj
 0001:0004af54       ?type_case_s@?$output_processor@_WV?$string_output_adapter@_W@__crt_stdio_output@@V?$standard_base@_WV?$string_output_adapter@_W@__crt_stdio_output@@@2@@__crt_stdio_output@@AAE_NXZ 0044bf54 f i libucrt:output.obj
 0001:0004afc7       ?type_case_s_compute_narrow_string_length@?$output_processor@_WV?$stream_output_adapter@_W@__crt_stdio_output@@V?$standard_base@_WV?$stream_output_adapter@_W@__crt_stdio_output@@@2@@__crt_stdio_output@@ABEHH_W@Z 0044bfc7 f i libucrt:output.obj
 0001:0004afc7       ?type_case_s_compute_narrow_string_length@?$output_processor@_WV?$string_output_adapter@_W@__crt_stdio_output@@V?$standard_base@_WV?$string_output_adapter@_W@__crt_stdio_output@@@2@@__crt_stdio_output@@ABEHH_W@Z 0044bfc7 f i libucrt:output.obj
 0001:0004b00e       ?validate@?$stream_output_adapter@D@__crt_stdio_output@@QBE_NXZ 0044c00e f i libucrt:output.obj
 0001:0004b02f       ?validate_stream_is_ansi_if_required@?$__acrt_stdio_char_traits@D@@SA_NQAU_iobuf@@@Z 0044c02f f i libucrt:output.obj
 0001:0004b0b6       ?write_character@?$string_output_adapter@D@__crt_stdio_output@@QBE_NDQAH@Z 0044c0b6 f i libucrt:output.obj
 0001:0004b0f8       ?write_character@?$string_output_adapter@_W@__crt_stdio_output@@QBE_N_WQAH@Z 0044c0f8 f i libucrt:output.obj
 0001:0004b13d       ?write_character_without_count_update@?$stream_output_adapter@D@__crt_stdio_output@@QBE_ND@Z 0044c13d f i libucrt:output.obj
 0001:0004b173       ?write_character_without_count_update@?$stream_output_adapter@_W@__crt_stdio_output@@QBE_N_W@Z 0044c173 f i libucrt:output.obj
 0001:0004b1ac       ?write_stored_string_tchar@?$output_processor@DV?$stream_output_adapter@D@__crt_stdio_output@@V?$standard_base@DV?$stream_output_adapter@D@__crt_stdio_output@@@2@@__crt_stdio_output@@AAE_ND@Z 0044c1ac f i libucrt:output.obj
 0001:0004b253       ?write_stored_string_tchar@?$output_processor@DV?$string_output_adapter@D@__crt_stdio_output@@V?$standard_base@DV?$string_output_adapter@D@__crt_stdio_output@@@2@@__crt_stdio_output@@AAE_ND@Z 0044c253 f i libucrt:output.obj
 0001:0004b2fa       ?write_stored_string_tchar@?$output_processor@_WV?$stream_output_adapter@_W@__crt_stdio_output@@V?$standard_base@_WV?$stream_output_adapter@_W@__crt_stdio_output@@@2@@__crt_stdio_output@@AAE_N_W@Z 0044c2fa f i libucrt:output.obj
 0001:0004b38d       ?write_stored_string_tchar@?$output_processor@_WV?$string_output_adapter@_W@__crt_stdio_output@@V?$standard_base@_WV?$string_output_adapter@_W@__crt_stdio_output@@@2@@__crt_stdio_output@@AAE_N_W@Z 0044c38d f i libucrt:output.obj
 0001:0004b420       ?write_string@?$stream_output_adapter@D@__crt_stdio_output@@QBEXQBDHQAHAAV__crt_deferred_errno_cache@@@Z 0044c420 f i libucrt:output.obj
 0001:0004b44c       ?write_string@?$stream_output_adapter@_W@__crt_stdio_output@@QBEXQB_WHQAHAAV__crt_deferred_errno_cache@@@Z 0044c44c f i libucrt:output.obj
 0001:0004b478       ?write_string@?$string_output_adapter@D@__crt_stdio_output@@QBEXQBDHQAHAAV__crt_deferred_errno_cache@@@Z 0044c478 f i libucrt:output.obj
 0001:0004b4df       ?write_string@?$string_output_adapter@_W@__crt_stdio_output@@QBEXQB_WHQAHAAV__crt_deferred_errno_cache@@@Z 0044c4df f i libucrt:output.obj
 0001:0004b550       ?write_string_impl@?$output_adapter_common@DV?$stream_output_adapter@D@__crt_stdio_output@@@__crt_stdio_output@@IBEXQBDHQAHAAV__crt_deferred_errno_cache@@@Z 0044c550 f i libucrt:output.obj
 0001:0004b5ee       ?write_string_impl@?$output_adapter_common@_WV?$stream_output_adapter@_W@__crt_stdio_output@@@__crt_stdio_output@@IBEXQB_WHQAHAAV__crt_deferred_errno_cache@@@Z 0044c5ee f i libucrt:output.obj
 0001:0004b68f       ___stdio_common_vfprintf   0044c68f f   libucrt:output.obj
 0001:0004b712       ___stdio_common_vfwprintf  0044c712 f   libucrt:output.obj
 0001:0004b795       ___stdio_common_vsprintf   0044c795 f   libucrt:output.obj
 0001:0004b7b9       ___stdio_common_vswprintf  0044c7b9 f   libucrt:output.obj
 0001:0004b7dd       __tolower_l                0044c7dd f   libucrt:tolower_toupper.obj
 0001:0004b8e1       _tolower                   0044c8e1 f   libucrt:tolower_toupper.obj
 0001:0004ba8a       ??$__acrt_mbs_to_wcs_cp@U__crt_win32_buffer_internal_dynamic_resizing@@@@YAHQBDAAV?$__crt_win32_buffer@_WU__crt_win32_buffer_internal_dynamic_resizing@@@@I@Z 0044ca8a f i libucrt:strftime.obj
 0001:0004baa7       ??$__acrt_wcs_to_mbs_cp@U__crt_win32_buffer_no_resizing@@@@YAHQB_WAAV?$__crt_win32_buffer@DU__crt_win32_buffer_no_resizing@@@@I@Z 0044caa7 f i libucrt:strftime.obj
 0001:0004bac4       ?_deallocate@?$__crt_win32_buffer@_WU__crt_win32_buffer_internal_dynamic_resizing@@@@AAEXXZ 0044cac4 f i libucrt:strftime.obj
 0001:0004bac4       ?_deallocate@?$__crt_win32_buffer@DU__crt_win32_buffer_internal_dynamic_resizing@@@@AAEXXZ 0044cac4 f i libucrt:argv_wildcards.obj
 0001:0004bade       ?allocate@?$__crt_win32_buffer@DU__crt_win32_buffer_no_resizing@@@@QAEHI@Z 0044cade f i libucrt:strftime.obj
 0001:0004bb05       ?allocate@?$__crt_win32_buffer@_WU__crt_win32_buffer_internal_dynamic_resizing@@@@QAEHI@Z 0044cb05 f i libucrt:strftime.obj
 0001:0004bb44       ?allocate@__crt_win32_buffer_internal_dynamic_resizing@@SAHQAPAXIABV__crt_win32_buffer_empty_debug_info@@@Z 0044cb44 f i libucrt:strftime.obj
 0001:0004bb63       ?set_to_nullptr@?$__crt_win32_buffer@DU__crt_win32_buffer_no_resizing@@@@QAEXXZ 0044cb63 f i libucrt:strftime.obj
 0001:0004bb77       __Strftime_l               0044cb77 f   libucrt:strftime.obj
 0001:0004bc74       _strftime                  0044cc74 f   libucrt:strftime.obj
 0001:0004bca0       _strcpy                    0044cca0 f   libucrt:strcat.obj
 0001:0004bcb0       _strcat                    0044ccb0 f   libucrt:strcat.obj
 0001:0004bd98       _free                      0044cd98 f   libucrt:free.obj
 0001:0004bdb3       _malloc                    0044cdb3 f   libucrt:malloc.obj
 0001:0004bdbe       _realloc                   0044cdbe f   libucrt:realloc.obj
 0001:0004bdd0       _strcspn                   0044cdd0 f   libucrt:strcspn.obj
 0001:0004bebc       _fputs                     0044cebc f   libucrt:fputs.obj
 0001:0004bfa6       _abort                     0044cfa6 f   libucrt:abort.obj
 0001:0004bfea       __isalnum_l                0044cfea f i libucrt:_ctype.obj
 0001:0004c023       __isspace_l                0044d023 f i libucrt:_ctype.obj
 0001:0004c059       __isxdigit_l               0044d059 f i libucrt:_ctype.obj
 0001:0004c092       _isalnum                   0044d092 f i libucrt:_ctype.obj
 0001:0004c0c6       _isspace                   0044d0c6 f i libucrt:_ctype.obj
 0001:0004c0f7       _isxdigit                  0044d0f7 f i libucrt:_ctype.obj
 0001:0004c12b       __strnicmp                 0044d12b f   libucrt:strnicmp.obj
 0001:0004c198       __strnicmp_l               0044d198 f   libucrt:strnicmp.obj
 0001:0004c261       ??$assemble_floating_point_snan@N@__crt_strtox@@YAX_NAAN@Z 0044d261 f i libucrt:input.obj
 0001:0004c282       ??$assemble_floating_point_value_t@M@__crt_strtox@@YA?AW4SLD_STATUS@@_NH_KAAM@Z 0044d282 f i libucrt:input.obj
 0001:0004c2b2       ??$assemble_floating_point_value_t@N@__crt_strtox@@YA?AW4SLD_STATUS@@_NH_KAAN@Z 0044d2b2 f i libucrt:input.obj
 0001:0004c3a8       ??$convert_decimal_string_to_floating_type@M@__crt_strtox@@YA?AW4SLD_STATUS@@ABUfloating_point_string@0@AAM@Z 0044d3a8 f i libucrt:input.obj
 0001:0004c3c9       ??$convert_decimal_string_to_floating_type@N@__crt_strtox@@YA?AW4SLD_STATUS@@ABUfloating_point_string@0@AAN@Z 0044d3c9 f i libucrt:input.obj
 0001:0004c3ea       ??$convert_hexadecimal_string_to_floating_type@M@__crt_strtox@@YA?AW4SLD_STATUS@@ABUfloating_point_string@0@AAM@Z 0044d3ea f i libucrt:input.obj
 0001:0004c40b       ??$convert_hexadecimal_string_to_floating_type@N@__crt_strtox@@YA?AW4SLD_STATUS@@ABUfloating_point_string@0@AAN@Z 0044d40b f i libucrt:input.obj
 0001:0004c42c       ??$make_input_adapter_character_source@V?$string_input_adapter@D@__crt_stdio_input@@@__crt_strtox@@YA?AV?$input_adapter_character_source@V?$string_input_adapter@D@__crt_stdio_input@@@0@QAV?$string_input_adapter@D@__crt_stdio_input@@_KQA_N@Z 0044d42c f i libucrt:input.obj
 0001:0004c44a       ??$parse_floating_point@V?$input_adapter_character_source@V?$string_input_adapter@D@__crt_stdio_input@@@__crt_strtox@@M@__crt_strtox@@YA?AW4SLD_STATUS@@QAU__crt_locale_pointers@@V?$input_adapter_character_source@V?$string_input_adapter@D@__crt_stdio_input@@@0@QAM@Z 0044d44a f i libucrt:input.obj
 0001:0004c4c3       ??$parse_floating_point@V?$input_adapter_character_source@V?$string_input_adapter@D@__crt_stdio_input@@@__crt_strtox@@N@__crt_strtox@@YA?AW4SLD_STATUS@@QAU__crt_locale_pointers@@V?$input_adapter_character_source@V?$string_input_adapter@D@__crt_stdio_input@@@0@QAN@Z 0044d4c3 f i libucrt:input.obj
 0001:0004c53c       ??$parse_floating_point_from_source@V?$input_adapter_character_source@V?$string_input_adapter@D@__crt_stdio_input@@@__crt_strtox@@@__crt_strtox@@YA?AW4floating_point_parse_result@0@QAU__crt_locale_pointers@@AAV?$input_adapter_character_source@V?$string_input_adapter@D@__crt_stdio_input@@@0@AAUfloating_point_string@0@@Z 0044d53c f i libucrt:input.obj
 0001:0004c999       ??$parse_floating_point_possible_infinity@DV?$input_adapter_character_source@V?$string_input_adapter@D@__crt_stdio_input@@@__crt_strtox@@_K@__crt_strtox@@YA?AW4floating_point_parse_result@0@AADAAV?$input_adapter_character_source@V?$string_input_adapter@D@__crt_stdio_input@@@0@_K@Z 0044d999 f i libucrt:input.obj
 0001:0004ca58       ??$parse_floating_point_possible_nan@DV?$input_adapter_character_source@V?$string_input_adapter@D@__crt_stdio_input@@@__crt_strtox@@_K@__crt_strtox@@YA?AW4floating_point_parse_result@0@AADAAV?$input_adapter_character_source@V?$string_input_adapter@D@__crt_stdio_input@@@0@_K@Z 0044da58 f i libucrt:input.obj
 0001:0004cb73       ??$parse_floating_point_possible_nan_is_ind@DV?$input_adapter_character_source@V?$string_input_adapter@D@__crt_stdio_input@@@__crt_strtox@@@__crt_strtox@@YA_NAADAAV?$input_adapter_character_source@V?$string_input_adapter@D@__crt_stdio_input@@@0@@Z 0044db73 f i libucrt:input.obj
 0001:0004cbad       ??$parse_floating_point_possible_nan_is_snan@DV?$input_adapter_character_source@V?$string_input_adapter@D@__crt_stdio_input@@@__crt_strtox@@@__crt_strtox@@YA_NAADAAV?$input_adapter_character_source@V?$string_input_adapter@D@__crt_stdio_input@@@0@@Z 0044dbad f i libucrt:input.obj
 0001:0004cbe7       ??$parse_floating_point_write_result@M@__crt_strtox@@YA?AW4SLD_STATUS@@W4floating_point_parse_result@0@ABUfloating_point_string@0@QAM@Z 0044dbe7 f i libucrt:input.obj
 0001:0004cd53       ??$parse_floating_point_write_result@N@__crt_strtox@@YA?AW4SLD_STATUS@@W4floating_point_parse_result@0@ABUfloating_point_string@0@QAN@Z 0044dd53 f i libucrt:input.obj
 0001:0004ce77       ??$parse_integer@_KV?$input_adapter_character_source@V?$string_input_adapter@D@__crt_stdio_input@@@__crt_strtox@@@__crt_strtox@@YA_KQAU__crt_locale_pointers@@V?$input_adapter_character_source@V?$string_input_adapter@D@__crt_stdio_input@@@0@H_N@Z 0044de77 f i libucrt:input.obj
 0001:0004d135       ??$process_floating_point_specifier_t@M@?$input_processor@DV?$string_input_adapter@D@__crt_stdio_input@@@__crt_stdio_input@@AAE_NXZ 0044e135 f i libucrt:input.obj
 0001:0004d19b       ??$process_floating_point_specifier_t@N@?$input_processor@DV?$string_input_adapter@D@__crt_stdio_input@@@__crt_stdio_input@@AAE_NXZ 0044e19b f i libucrt:input.obj
 0001:0004d201       ??$process_string_specifier_tchar@D@?$input_processor@DV?$string_input_adapter@D@__crt_stdio_input@@@__crt_stdio_input@@AAE_NW4conversion_mode@1@D@Z 0044e201 f i libucrt:input.obj
 0001:0004d35e       ??$process_string_specifier_tchar@_W@?$input_processor@DV?$string_input_adapter@D@__crt_stdio_input@@@__crt_stdio_input@@AAE_NW4conversion_mode@1@_W@Z 0044e35e f i libucrt:input.obj
 0001:0004d4c5       ??$skip_whitespace@Vstring_input_adapter@__crt_stdio_input@@D@__crt_stdio_input@@YAHAAV?$string_input_adapter@D@0@QAU__crt_locale_pointers@@@Z 0044e4c5 f i libucrt:input.obj
 0001:0004d4f4       ??$write_floating_point@M@?$input_processor@DV?$string_input_adapter@D@__crt_stdio_input@@@__crt_stdio_input@@AAE_NABM@Z 0044e4f4 f i libucrt:input.obj
 0001:0004d528       ??$write_floating_point@N@?$input_processor@DV?$string_input_adapter@D@__crt_stdio_input@@@__crt_stdio_input@@AAE_NABN@Z 0044e528 f i libucrt:input.obj
 0001:0004d562       ??0?$format_string_parser@D@__crt_stdio_input@@QAE@_KQBE@Z 0044e562 f i libucrt:input.obj
 0001:0004d5ac       ??0?$input_adapter_character_source@V?$string_input_adapter@D@__crt_stdio_input@@@__crt_strtox@@QAE@QAV?$string_input_adapter@D@__crt_stdio_input@@_KQA_N@Z 0044e5ac f i libucrt:input.obj
 0001:0004d5dd       ??0?$input_processor@DV?$string_input_adapter@D@__crt_stdio_input@@@__crt_stdio_input@@QAE@ABV?$string_input_adapter@D@1@_KQBDQAU__crt_locale_pointers@@QAD@Z 0044e5dd f i libucrt:input.obj
 0001:0004d64b       ?advance@?$format_string_parser@D@__crt_stdio_input@@QAE_NXZ 0044e64b f i libucrt:input.obj
 0001:0004d763       ?as_double@floating_point_value@__crt_strtox@@QBEAANXZ 0044e763 f i libucrt:input.obj
 0001:0004d788       ?as_float@floating_point_value@__crt_strtox@@QBEAAMXZ 0044e788 f i libucrt:input.obj
 0001:0004d7ad       ?assemble_floating_point_infinity@__crt_strtox@@YAX_NABVfloating_point_value@1@@Z 0044e7ad f i libucrt:input.obj
 0001:0004d7ed       ?assemble_floating_point_value@__crt_strtox@@YA?AW4SLD_STATUS@@_KH_N1ABVfloating_point_value@1@@Z 0044e7ed f i libucrt:input.obj
 0001:0004db36       ?assemble_floating_point_value_from_big_integer@__crt_strtox@@YA?AW4SLD_STATUS@@ABUbig_integer@1@I_N1ABVfloating_point_value@1@@Z 0044eb36 f i libucrt:input.obj
 0001:0004dcca       ?assemble_floating_point_zero@__crt_strtox@@YAX_NABVfloating_point_value@1@@Z 0044ecca f i libucrt:input.obj
 0001:0004dcff       ?convert_decimal_string_to_floating_type_common@__crt_strtox@@YA?AW4SLD_STATUS@@ABUfloating_point_string@1@ABVfloating_point_value@1@@Z 0044ecff f i libucrt:input.obj
 0001:0004fa3e       ?convert_hexadecimal_string_to_floating_type_common@__crt_strtox@@YA?AW4SLD_STATUS@@ABUfloating_point_string@1@ABVfloating_point_value@1@@Z 00450a3e f i libucrt:input.obj
 0001:0004fae4       ?denormal_mantissa_mask@floating_point_value@__crt_strtox@@QBE_KXZ 00450ae4 f i libucrt:input.obj
 0001:0004fb00       ?divide@__crt_strtox@@YA_KAAUbig_integer@1@ABU21@@Z 00450b00 f i libucrt:input.obj
 0001:0004ff98       ?get@?$input_adapter_character_source@V?$string_input_adapter@D@__crt_stdio_input@@@__crt_strtox@@QAEDXZ 00450f98 f i libucrt:input.obj
 0001:0004ffcf       ?get@?$string_input_adapter@D@__crt_stdio_input@@QAEHXZ 00450fcf f i libucrt:input.obj
 0001:0004ffe5       ?invert@?$scanset_buffer@E@__crt_stdio_input@@QAEXXZ 00450fe5 f i libucrt:input.obj
 0001:00050003       ?is_character_allowed_in_string@?$input_processor@DV?$string_input_adapter@D@__crt_stdio_input@@@__crt_stdio_input@@ABE_NW4conversion_mode@2@H@Z 00451003 f i libucrt:input.obj
 0001:00050053       ?length@?$format_string_parser@D@__crt_stdio_input@@QBEIXZ 00451053 f i libucrt:input.obj
 0001:00050094       ?normal_mantissa_mask@floating_point_value@__crt_strtox@@QBE_KXZ 00451094 f i libucrt:input.obj
 0001:000500ab       ?process@?$input_processor@DV?$string_input_adapter@D@__crt_stdio_input@@@__crt_stdio_input@@QAEHXZ 004510ab f i libucrt:input.obj
 0001:0005012f       ?process_character_count_specifier@?$input_processor@DV?$string_input_adapter@D@__crt_stdio_input@@@__crt_stdio_input@@AAE_NXZ 0045112f f i libucrt:input.obj
 0001:00050147       ?process_conversion_specifier@?$input_processor@DV?$string_input_adapter@D@__crt_stdio_input@@@__crt_stdio_input@@AAE_NXZ 00451147 f i libucrt:input.obj
 0001:000501bb       ?process_floating_point_specifier@?$input_processor@DV?$string_input_adapter@D@__crt_stdio_input@@@__crt_stdio_input@@AAE_NXZ 004511bb f i libucrt:input.obj
 0001:000501eb       ?process_integer_specifier@?$input_processor@DV?$string_input_adapter@D@__crt_stdio_input@@@__crt_stdio_input@@AAE_NI_N@Z 004511eb f i libucrt:input.obj
 0001:0005024d       ?process_literal_character@?$input_processor@DV?$string_input_adapter@D@__crt_stdio_input@@@__crt_stdio_input@@AAE_NXZ 0045124d f i libucrt:input.obj
 0001:00050283       ?process_literal_character_tchar@?$input_processor@DV?$string_input_adapter@D@__crt_stdio_input@@@__crt_stdio_input@@AAE_ND@Z 00451283 f i libucrt:input.obj
 0001:000502d1       ?process_state@?$input_processor@DV?$string_input_adapter@D@__crt_stdio_input@@@__crt_stdio_input@@AAE_NXZ 004512d1 f i libucrt:input.obj
 0001:00050313       ?process_string_specifier@?$input_processor@DV?$string_input_adapter@D@__crt_stdio_input@@@__crt_stdio_input@@AAE_NW4conversion_mode@2@@Z 00451313 f i libucrt:input.obj
 0001:0005035b       ?process_whitespace@?$input_processor@DV?$string_input_adapter@D@__crt_stdio_input@@@__crt_stdio_input@@AAE_NXZ 0045135b f i libucrt:input.obj
 0001:00050378       ?restore_state@?$input_adapter_character_source@V?$string_input_adapter@D@__crt_stdio_input@@@__crt_strtox@@QAE_N_K@Z 00451378 f i libucrt:input.obj
 0001:0005039d       ?scan_conversion_specifier@?$format_string_parser@D@__crt_stdio_input@@AAE_NXZ 0045139d f i libucrt:input.obj
 0001:0005050d       ?scan_optional_field_width@?$format_string_parser@D@__crt_stdio_input@@AAE_NXZ 0045150d f i libucrt:input.obj
 0001:000505aa       ?scan_optional_length_modifier@?$format_string_parser@D@__crt_stdio_input@@AAEXXZ 004515aa f i libucrt:input.obj
 0001:000506b9       ?scan_optional_literal_character_trail_bytes_tchar@?$format_string_parser@D@__crt_stdio_input@@AAE_ND@Z 004516b9 f i libucrt:input.obj
 0001:0005070b       ?scan_optional_wide_modifier@?$format_string_parser@D@__crt_stdio_input@@AAEXXZ 0045170b f i libucrt:input.obj
 0001:00050729       ?scan_scanset_range@?$format_string_parser@D@__crt_stdio_input@@AAE_NXZ 00451729 f i libucrt:input.obj
 0001:00050861       ?set_wide_for_c_s_or_scanset@?$format_string_parser@D@__crt_stdio_input@@AAEXXZ 00451861 f i libucrt:input.obj
 0001:00050881       ?to_floating_point_length@__crt_stdio_input@@YAIW4length_modifier@1@@Z 00451881 f i libucrt:input.obj
 0001:000508a4       ?to_integer_length@__crt_stdio_input@@YAIW4length_modifier@1@@Z 004518a4 f i libucrt:input.obj
 0001:000508f7       ?unget@?$input_adapter_character_source@V?$string_input_adapter@D@__crt_stdio_input@@@__crt_strtox@@QAEXD@Z 004518f7 f i libucrt:input.obj
 0001:0005093e       ?unget@?$string_input_adapter@D@__crt_stdio_input@@QAEXH@Z 0045193e f i libucrt:input.obj
 0001:0005095d       ?validate@?$format_string_parser@D@__crt_stdio_input@@QBE_NXZ 0045195d f i libucrt:input.obj
 0001:00050979       ?validate@?$input_adapter_character_source@V?$string_input_adapter@D@__crt_stdio_input@@@__crt_strtox@@QBE_NXZ 00451979 f i libucrt:input.obj
 0001:0005099a       ?validate@?$string_input_adapter@D@__crt_stdio_input@@QAE_NXZ 0045199a f i libucrt:input.obj
 0001:000509bc       ?write_character@?$input_processor@DV?$string_input_adapter@D@__crt_stdio_input@@@__crt_stdio_input@@AAE_NQA_WIAAPA_WAAID@Z 004519bc f i libucrt:input.obj
 0001:00050a29       ?write_integer@?$input_processor@DV?$string_input_adapter@D@__crt_stdio_input@@@__crt_stdio_input@@AAE_N_K@Z 00451a29 f i libucrt:input.obj
 0001:00050a97       ___stdio_common_vsscanf    00451a97 f   libucrt:input.obj
 0001:00050abb       ___acrt_initialize_stdio   00451abb f   libucrt:_file.obj
 0001:00050b83       ___acrt_iob_func           00451b83 f   libucrt:_file.obj
 0001:00050b93       ___acrt_uninitialize_stdio 00451b93 f   libucrt:_file.obj
 0001:00050bdf       __lock_file                00451bdf f   libucrt:_file.obj
 0001:00050bf3       __unlock_file              00451bf3 f   libucrt:_file.obj
 0001:00050c50       _qsort                     00451c50 f   libucrt:qsort.obj
 0001:000510e1       ??$__crt_fast_encode_pointer@PAP6AXXZ@@YAPAP6AXXZQAP6AXXZ@Z 004520e1 f i libucrt:onexit.obj
 0001:000510e1       ??$__crt_fast_encode_pointer@P6AHPAU_exception@@@Z@@YAP6AHPAU_exception@@@ZQ6AH0@Z@Z 004520e1 f i libucrt:matherr.obj
 0001:000510e1       ??$__crt_fast_encode_pointer@P6AHXZ@@YAP6AHXZQ6AHXZ@Z 004520e1 f i libucrt:onexit.obj
 0001:000510e1       ??$__crt_fast_encode_pointer@P6GHPA_WKJ@Z@@YAP6GHPA_WKJ@ZQ6GH0KJ@Z@Z 004520e1 f i libucrt:winapi_thunks.obj
 0001:000510e1       ??$__crt_fast_encode_pointer@P6GXPAXK0@Z@@YAP6GXPAXK0@ZQ6GX0K0@Z@Z 004520e1 f i libucrt:exit.obj
 0001:000510e1       ??$__crt_fast_encode_pointer@PAX@@YAPAXQAX@Z 004520e1 f i libucrt:initialization.obj
 0001:000512e6       ___acrt_initialize_thread_local_exit_callback 004522e6 f   libucrt:exit.obj
 0001:000512f5       __c_exit                   004522f5 f   libucrt:exit.obj
 0001:00051304       __cexit                    00452304 f   libucrt:exit.obj
 0001:00051313       __exit                     00452313 f   libucrt:exit.obj
 0001:00051329       __register_thread_local_exe_atexit_callback 00452329 f   libucrt:exit.obj
 0001:0005134f       _exit                      0045234f f   libucrt:exit.obj
 0001:00051463       _system                    00452463 f   libucrt:system.obj
 0001:0005146e       __difftime64               0045246e f   libucrt:difftime.obj
 0001:000514b3       ___ascii_stricmp           004524b3 f   libucrt:stricmp.obj
 0001:000514ec       __stricmp                  004524ec f   libucrt:stricmp.obj
 0001:00051535       __stricmp_l                00452535 f   libucrt:stricmp.obj
 0001:00051646       __time64                   00452646 f   libucrt:time.obj
 0001:00051686       __fgetc_nolock             00452686 f   libucrt:fgetc.obj
 0001:000516c2       __getc_nolock              004526c2 f   libucrt:fgetc.obj
 0001:000516cd       _fgetc                     004526cd f   libucrt:fgetc.obj
 0001:00051897       _fgets                     00452897 f   libucrt:fgets.obj
 0001:000518a2       __fputc_nolock             004528a2 f   libucrt:fputc.obj
 0001:000518cb       _fputc                     004528cb f   libucrt:fputc.obj
 0001:000519d5       _rewind                    004529d5 f   libucrt:rewind.obj
 0001:00051aa2       __ungetc_nolock            00452aa2 f   libucrt:ungetc.obj
 0001:00051b9c       _ungetc                    00452b9c f   libucrt:ungetc.obj
 0001:00051c0f       ??$make_c_string_character_source@_WPAPA_W@__crt_strtox@@YA?AV?$c_string_character_source@_W@0@QB_WQAPA_W@Z 00452c0f f i libucrt:strtox.obj
 0001:00051c0f       ??$make_c_string_character_source@DPAPAD@__crt_strtox@@YA?AV?$c_string_character_source@D@0@QBDQAPAD@Z 00452c0f f i libucrt:strtox.obj
 0001:00051c2a       _strtol                    00452c2a f   libucrt:strtox.obj
 0001:00051c54       _strtoul                   00452c54 f   libucrt:strtox.obj
 0001:00051c7e       _strtoull                  00452c7e f   libucrt:strtox.obj
 0001:00051ca8       _wcstol                    00452ca8 f   libucrt:strtox.obj
 0001:00051f2c       _setlocale                 00452f2c f   libucrt:setlocale.obj
 0001:00051f64       _iswctype                  00452f64 f   libucrt:iswctype.obj
 0001:00051ff9       ?__mbrtowc_utf8@__crt_mbstring@@YAIPA_WPBDIPAU_Mbstatet@@@Z 00452ff9 f   libucrt:mbrtowc.obj
 0001:00052039       ?__mbsrtowcs_utf8@__crt_mbstring@@YAIPA_WPAPBDIPAU_Mbstatet@@@Z 00453039 f   libucrt:mbrtowc.obj
 0001:00052321       _mbrtowc                   00453321 f   libucrt:mbrtowc.obj
 0001:00052372       ?__wcsrtombs_utf8@__crt_mbstring@@YAIPADPAPB_WIPAU_Mbstatet@@@Z 00453372 f   libucrt:wcrtomb.obj
 0001:0005255c       _wcrtomb                   0045355c f   libucrt:wcrtomb.obj
 0001:0005258b       _wcrtomb_s                 0045358b f   libucrt:wcrtomb.obj
 0001:000528fb       __dupenv_s                 004538fb f   libucrt:getenv.obj
 0001:00052919       _getenv                    00453919 f   libucrt:getenv.obj
 0001:00052924       _getenv_s                  00453924 f   libucrt:getenv.obj
 0001:00052930       _strncpy                   00453930 f   libucrt:strncpy.obj
 0001:00052a54       __seh_filter_exe           00453a54 f   libucrt:exception_filter.obj
 0001:00052bac       __query_app_type           00453bac f   libucrt:report_runtime_error.obj
 0001:00052bb2       __set_app_type             00453bb2 f   libucrt:report_runtime_error.obj
 0001:00052bc1       ___acrt_has_user_matherr   00453bc1 f   libucrt:matherr.obj
 0001:00052bd9       ___acrt_initialize_user_matherr 00453bd9 f   libucrt:matherr.obj
 0001:00052be8       ___acrt_invoke_user_matherr 00453be8 f   libucrt:matherr.obj
 0001:00052c1a       ___setusermatherr          00453c1a f   libucrt:matherr.obj
 0001:00052edc       ___acrt_allocate_buffer_for_argv 00453edc f   libucrt:argv_parsing.obj
 0001:00052f2b       __configure_narrow_argv    00453f2b f   libucrt:argv_parsing.obj
 0001:00053137       ??$uninitialize@A6AXAAPAPA_W@Z@?$dual_state_global@PAPA_W@__crt_state_management@@QAEXA6AXAAPAPA_W@Z@Z 00454137 f i libucrt:environment_initialization.obj
 0001:00053137       ??$uninitialize@A6AXAAPAPAD@Z@?$dual_state_global@PAPAD@__crt_state_management@@QAEXA6AXAAPAPAD@Z@Z 00454137 f i libucrt:environment_initialization.obj
 0001:00053196       ___dcrt_get_or_create_narrow_environment_nolock 00454196 f   libucrt:environment_initialization.obj
 0001:0005319b       ___dcrt_uninitialize_environments_nolock 0045419b f   libucrt:environment_initialization.obj
 0001:000531d2       __get_initial_narrow_environment 004541d2 f   libucrt:environment_initialization.obj
 0001:000531e6       __initialize_narrow_environment 004541e6 f   libucrt:environment_initialization.obj
 0001:000531eb       __initterm                 004541eb f   libucrt:initterm.obj
 0001:00053230       __initterm_e               00454230 f   libucrt:initterm.obj
 0001:0005325e       __get_fmode                0045425e f   libucrt:setmode.obj
 0001:0005328b       __set_fmode                0045428b f   libucrt:setmode.obj
 0001:000532c8       __setmode_nolock           004542c8 f   libucrt:setmode.obj
 0001:00053397       ___acrt_initialize_command_line 00454397 f   libucrt:argv_data.obj
 0001:000533b0       ___p___argc                004543b0 f   libucrt:argv_data.obj
 0001:000533b6       ___p___argv                004543b6 f   libucrt:argv_data.obj
 0001:000534bc       ??0_expandlocale_locale_name_cache@@QAE@QA_WIQAU__crt_qualified_locale_data@@@Z 004544bc f i libucrt:wsetlocale.obj
 0001:00053506       ??1_expandlocale_locale_name_cache@@QAE@XZ 00454506 f i libucrt:wsetlocale.obj
 0001:0005369e       ?commit_locale_name@_expandlocale_locale_name_cache@@QAEXQB_WI@Z 0045469e f i libucrt:wsetlocale.obj
 0001:000536e2       ?commit_locale_name_cache_already_updated@_expandlocale_locale_name_cache@@QAEXQB_WI@Z 004546e2 f i libucrt:wsetlocale.obj
 0001:00053717       ___acrt_copy_locale_name   00454717 f   libucrt:wsetlocale.obj
 0001:00053777       ___acrt_set_locale_changed 00454777 f   libucrt:wsetlocale.obj
 0001:00053782       ___acrt_uninitialize_locale 00454782 f   libucrt:wsetlocale.obj
 0001:000537a9       ___lc_lctowcs              004547a9 f   libucrt:wsetlocale.obj
 0001:00053819       ___lc_wcstolc              00454819 f   libucrt:wsetlocale.obj
 0001:00053969       __configthreadlocale       00454969 f   libucrt:wsetlocale.obj
 0001:00053dc0       __wcscats                  00454dc0 f   libucrt:wsetlocale.obj
 0001:00053e01       __wsetlocale               00454e01 f   libucrt:wsetlocale.obj
 0001:00054b06       __query_new_mode           00455b06 f   libucrt:new_mode.obj
 0001:00054b0d       __set_new_mode             00455b0d f   libucrt:new_mode.obj
 0001:00054b3c       ___p__commode              00455b3c f   libucrt:ncommode.obj
 0001:00054dfb       __crt_atexit               00455dfb f   libucrt:onexit.obj
 0001:00054e11       __execute_onexit_table     00455e11 f   libucrt:onexit.obj
 0001:00054e3e       __initialize_onexit_table  00455e3e f   libucrt:onexit.obj
 0001:00054e67       __register_onexit_function 00455e67 f   libucrt:onexit.obj
 0001:00054f95       ___acrt_initialize         00455f95 f   libucrt:initialization.obj
 0001:00054fa7       ___acrt_uninitialize       00455fa7 f   libucrt:initialization.obj
 0001:00054fd7       __controlfp_s              00455fd7 f   libucrt:contrlfp.obj
 0001:00055036       _terminate                 00456036 f   libucrt:terminate.obj
 0001:00055072       _strcpy_s                  00456072 f   libucrt:strcpy_s.obj
 0001:000550cc       _calloc                    004560cc f   libucrt:calloc.obj
 0001:000550d7       _wcsncmp                   004560d7 f   libucrt:wcsncmp.obj
 0001:00055111       ___acrt_call_reportfault   00456111 f   libucrt:invalid_parameter.obj
 0001:0005524a       ___acrt_initialize_invalid_parameter_handler 0045624a f   libucrt:invalid_parameter.obj
 0001:00055259       __invalid_parameter        00456259 f   libucrt:invalid_parameter.obj
 0001:000552bd       __invalid_parameter_noinfo 004562bd f   libucrt:invalid_parameter.obj
 0001:000552cd       __invoke_watson            004562cd f   libucrt:invalid_parameter.obj
 0001:00055301       ___acrt_errno_from_os_error 00456301 f   libucrt:errno.obj
 0001:00055344       ___acrt_errno_map_os_error 00456344 f   libucrt:errno.obj
 0001:00055367       ___doserrno                00456367 f   libucrt:errno.obj
 0001:0005537a       __errno                    0045637a f   libucrt:errno.obj
 0001:000554b2       __itow_s                   004564b2 f   libucrt:xtoa.obj
 0001:000554e5       __set_error_mode           004564e5 f   libucrt:set_error_mode.obj
 0001:00055524       _wcscat_s                  00456524 f   libucrt:wcscat_s.obj
 0001:00055599       _wcscpy_s                  00456599 f   libucrt:wcscpy_s.obj
 0001:000556e4       _wcsncat_s                 004566e4 f   libucrt:wcsncat_s.obj
 0001:000556ef       _strcat_s                  004566ef f   libucrt:strcat_s.obj
 0001:00055758       ?__acrt_get_utf8_acp_compatibility_codepage@@YAIXZ 00456758 f i libucrt:getmodulefilenamea.obj
 0001:00055797       ___acrt_GetModuleFileNameA 00456797 f   libucrt:getmodulefilenamea.obj
 0001:000558b6       ___acrt_show_wide_message_box 004568b6 f   libucrt:crtmbox.obj
 0001:000559e9       _setvbuf                   004569e9 f   libucrt:setvbuf.obj
 0001:00055b39       ___acrt_get_sigabrt_handler 00456b39 f   libucrt:signal.obj
 0001:00055b60       ___acrt_initialize_signal_handlers 00456b60 f   libucrt:signal.obj
 0001:00055b7e       ___fpecode                 00456b7e f   libucrt:signal.obj
 0001:00055b87       _raise                     00456b87 f   libucrt:signal.obj
 0001:00055d82       __free_base                00456d82 f   libucrt:free_base.obj
 0001:00055e48       __close                    00456e48 f   libucrt:close.obj
 0001:00055ed5       __close_nolock             00456ed5 f   libucrt:close.obj
 0001:00055f71       __fileno                   00456f71 f   libucrt:fileno.obj
 0001:00055f98       ?__acrt_stdio_allocate_stream@@YA?AV__crt_stdio_stream@@XZ 00456f98 f   libucrt:stream.obj
 0001:00056001       ?__acrt_stdio_free_stream@@YAXV__crt_stdio_stream@@@Z 00457001 f   libucrt:stream.obj
 0001:000560fe       ___acrt_stdio_free_buffer_nolock 004570fe f   libucrt:_freebuf.obj
 0001:0005613e       ??$__acrt_stdio_parse_mode@D@@YA?AU__acrt_stdio_stream_mode@@QBD@Z 0045713e f i libucrt:openfile.obj
 0001:000563eb       ?__acrt_stdio_parse_mode_D@@YA_NAAU__acrt_stdio_stream_mode@@@Z 004573eb f i libucrt:openfile.obj
 0001:00056406       ?__acrt_stdio_parse_mode_T@@YA_NAAU__acrt_stdio_stream_mode@@@Z 00457406 f i libucrt:openfile.obj
 0001:00056425       ?__acrt_stdio_parse_mode_b@@YA_NAAU__acrt_stdio_stream_mode@@@Z 00457425 f i libucrt:openfile.obj
 0001:00056445       ?__acrt_stdio_parse_mode_c@@YA_NAAU__acrt_stdio_stream_mode@@AA_N@Z 00457445 f i libucrt:openfile.obj
 0001:00056467       ?__acrt_stdio_parse_mode_n@@YA_NAAU__acrt_stdio_stream_mode@@AA_N@Z 00457467 f i libucrt:openfile.obj
 0001:00056489       ?__acrt_stdio_parse_mode_plus@@YA_NAAU__acrt_stdio_stream_mode@@AA_N@Z 00457489 f i libucrt:openfile.obj
 0001:000564bf       ?__acrt_stdio_parse_mode_t@@YA_NAAU__acrt_stdio_stream_mode@@@Z 004574bf f i libucrt:openfile.obj
 0001:000564df       ?__acrt_stdio_parse_mode_x@@YA_NAAU__acrt_stdio_stream_mode@@@Z 004574df f i libucrt:openfile.obj
 0001:000564ff       __openfile                 004574ff f   libucrt:openfile.obj
 0001:00056a0e       __read                     00457a0e f   libucrt:read.obj
 0001:00056b22       __read_nolock              00457b22 f   libucrt:read.obj
 0001:0005705c       ___acrt_stdio_refill_and_read_narrow_nolock 0045805c f   libucrt:_filbuf.obj
 0001:00057067       ___pctype_func             00458067 f   libucrt:ctype.obj
 0001:0005708b       __isctype_l                0045808b f   libucrt:isctype.obj
 0001:00057494       ___acrt_getptd             00458494 f   libucrt:per_thread_data.obj
 0001:00057551       ___acrt_getptd_head        00458551 f   libucrt:per_thread_data.obj
 0001:000575eb       ___acrt_getptd_noexit      004585eb f   libucrt:per_thread_data.obj
 0001:000576a0       ___acrt_initialize_ptd     004586a0 f   libucrt:per_thread_data.obj
 0001:000576cc       ___acrt_uninitialize_ptd   004586cc f   libucrt:per_thread_data.obj
 0001:000576e6       ___acrt_update_locale_info 004586e6 f   libucrt:locale_update.obj
 0001:00057713       ___acrt_update_multibyte_info 00458713 f   libucrt:locale_update.obj
 0001:00057740       ___acrt_initialize_locks   00458740 f   libucrt:locks.obj
 0001:00057781       ___acrt_lock               00458781 f   libucrt:locks.obj
 0001:00057798       ___acrt_uninitialize_locks 00458798 f   libucrt:locks.obj
 0001:000577c9       ___acrt_unlock             004587c9 f   libucrt:locks.obj
 0001:00057882       __commit                   00458882 f   libucrt:commit.obj
 0001:00058078       __write                    00459078 f   libucrt:write.obj
 0001:0005816a       __write_nolock             0045916a f   libucrt:write.obj
 0001:00058799       ___acrt_stdio_flush_and_write_narrow_nolock 00459799 f   libucrt:_flsbuf.obj
 0001:000587a4       ___acrt_stdio_flush_and_write_wide_nolock 004597a4 f   libucrt:_flsbuf.obj
 0001:000587af       ___acrt_stdio_begin_temporary_buffering_nolock 004597af f   libucrt:_sftbuf.obj
 0001:00058862       ___acrt_stdio_end_temporary_buffering_nolock 00459862 f   libucrt:_sftbuf.obj
 0001:0005889c       __malloc_base              0045989c f   libucrt:malloc_base.obj
 0001:000588ea       __mbtowc_l                 004598ea f   libucrt:mbtowc.obj
 0001:00058a2c       _mbtowc                    00459a2c f   libucrt:mbtowc.obj
 0001:00058a46       __wctomb_s_l               00459a46 f   libucrt:wctomb.obj
 0001:00058ba1       _wctomb_s                  00459ba1 f   libucrt:wctomb.obj
 0001:00058bbe       _strnlen                   00459bbe f   libucrt:strnlen.obj
 0001:00058ce0       _wcsnlen                   00459ce0 f   libucrt:strnlen.obj
 0001:00058e90       ?__acrt_fp_classify@@YA?AW4__acrt_fp_class@@ABN@Z 00459e90 f i libucrt:cvt.obj
 0001:000596db       ___acrt_fp_format          0045a6db f   libucrt:cvt.obj
 0001:00059846       __fputwc_nolock            0045a846 f   libucrt:fputwc.obj
 0001:0005996f       __get_printf_count_output  0045a96f f   libucrt:printf_count_output.obj
 0001:00059aee       ___acrt_initialize_lowio   0045aaee f   libucrt:ioinit.obj
 0001:00059b4e       ___acrt_uninitialize_lowio 0045ab4e f   libucrt:ioinit.obj
 0001:00059b7a       __isleadbyte_l             0045ab7a f i libucrt:_wctype.obj
 0001:00059d9e       ___acrt_LCMapStringA       0045ad9e f   libucrt:lcmapstringa.obj
 0001:00059de7       __freea_crt                0045ade7 f i libucrt:lcmapstringa.obj
 0001:00059e07       ___acrt_MultiByteToWideChar 0045ae07 f   libucrt:multibytetowidechar.obj
 0001:00059e83       ___acrt_WideCharToMultiByte 0045ae83 f   libucrt:widechartomultibyte.obj
 0001:00059f30       ??$__crt_time_is_leap_year@H@@YA_NH@Z 0045af30 f i libucrt:wcsftime.obj
 0001:0005b00a       __Wcsftime_l               0045c00a f   libucrt:wcsftime.obj
 0001:0005b18d       __realloc_base             0045c18d f   libucrt:realloc_base.obj
 0001:0005b200       ___ascii_strnicmp          0045c200 f   libucrt:_strnicm.obj
 0001:0005b261       __calloc_base              0045c261 f   libucrt:calloc_base.obj
 0001:0005b2be       _fegetround                0045c2be f   libucrt:fegetround.obj
 0001:0005b61f       ___acrt_AppPolicyGetProcessTerminationMethodInternal@4 0045c61f f   libucrt:winapi_thunks.obj
 0001:0005b65f       ___acrt_AppPolicyGetShowDeveloperDiagnosticInternal@4 0045c65f f   libucrt:winapi_thunks.obj
 0001:0005b69f       ___acrt_AppPolicyGetWindowingModelInternal@4 0045c69f f   libucrt:winapi_thunks.obj
 0001:0005b6df       ___acrt_AreFileApisANSI@0  0045c6df f   libucrt:winapi_thunks.obj
 0001:0005b6fe       ___acrt_CompareStringEx@36 0045c6fe f   libucrt:winapi_thunks.obj
 0001:0005b75b       ___acrt_EnumSystemLocalesEx@16 0045c75b f   libucrt:winapi_thunks.obj
 0001:0005b7af       ___acrt_FlsAlloc@4         0045c7af f   libucrt:winapi_thunks.obj
 0001:0005b7ee       ___acrt_FlsFree@4          0045c7ee f   libucrt:winapi_thunks.obj
 0001:0005b82d       ___acrt_FlsGetValue@4      0045c82d f   libucrt:winapi_thunks.obj
 0001:0005b86c       ___acrt_FlsSetValue@8      0045c86c f   libucrt:winapi_thunks.obj
 0001:0005b8ae       ___acrt_GetDateFormatEx@28 0045c8ae f   libucrt:winapi_thunks.obj
 0001:0005b905       ___acrt_GetLocaleInfoEx@16 0045c905 f   libucrt:winapi_thunks.obj
 0001:0005b944       ___acrt_GetSystemTimePreciseAsFileTime@4 0045c944 f   libucrt:winapi_thunks.obj
 0001:0005b983       ___acrt_GetTimeFormatEx@24 0045c983 f   libucrt:winapi_thunks.obj
 0001:0005b9c8       ___acrt_GetUserDefaultLocaleName@8 0045c9c8 f   libucrt:winapi_thunks.obj
 0001:0005ba04       ___acrt_InitializeCriticalSectionEx@12 0045ca04 f   libucrt:winapi_thunks.obj
 0001:0005ba4f       ___acrt_IsValidLocaleName@4 0045ca4f f   libucrt:winapi_thunks.obj
 0001:0005ba87       ___acrt_LCIDToLocaleName@16 0045ca87 f   libucrt:winapi_thunks.obj
 0001:0005bac6       ___acrt_LCMapStringEx@36   0045cac6 f   libucrt:winapi_thunks.obj
 0001:0005bb23       ___acrt_LocaleNameToLCID@8 0045cb23 f   libucrt:winapi_thunks.obj
 0001:0005bb54       ___acrt_MessageBoxW@16     0045cb54 f   libucrt:winapi_thunks.obj
 0001:0005bb86       ___acrt_can_show_message_box 0045cb86 f   libucrt:winapi_thunks.obj
 0001:0005bbad       ___acrt_can_use_vista_locale_apis 0045cbad f   libucrt:winapi_thunks.obj
 0001:0005bbb8       ___acrt_eagerly_load_locale_apis 0045cbb8 f   libucrt:winapi_thunks.obj
 0001:0005bbef       ___acrt_get_parent_window  0045cbef f   libucrt:winapi_thunks.obj
 0001:0005bc57       ___acrt_initialize_winapi_thunks 0045cc57 f   libucrt:winapi_thunks.obj
 0001:0005bc82       ___acrt_is_interactive     0045cc82 f   libucrt:winapi_thunks.obj
 0001:0005bd21       ___acrt_uninitialize_winapi_thunks 0045cd21 f   libucrt:winapi_thunks.obj
 0001:0005bd57       __fcloseall                0045cd57 f   libucrt:closeall.obj
 0001:0005be02       ___acrt_get_developer_information_policy 0045ce02 f   libucrt:win_policies.obj
 0001:0005be46       ___acrt_get_process_end_policy 0045ce46 f   libucrt:win_policies.obj
 0001:0005be77       ___acrt_get_windowing_model_policy 0045ce77 f   libucrt:win_policies.obj
 0001:0005c4a1       __spawnve                  0045d4a1 f   libucrt:spawnv.obj
 0001:0005c776       __spawnvpe                 0045d776 f   libucrt:spawnvp.obj
 0001:0005c781       __waccess_s                0045d781 f   libucrt:waccess.obj
 0001:0005c83f       __access_s                 0045d83f f   libucrt:access.obj
 0001:0005cc04       __lseek                    0045dc04 f   libucrt:lseek.obj
 0001:0005cc0f       __lseeki64                 0045dc0f f   libucrt:lseek.obj
 0001:0005cc2a       __lseeki64_nolock          0045dc2a f   libucrt:lseek.obj
 0001:0005cc45       ___acrt_stdio_allocate_buffer_nolock 0045dc45 f   libucrt:_getbuf.obj
 0001:0005ce41       __mbstowcs_s_l             0045de41 f   libucrt:mbstowcs.obj
 0001:0005cf21       _mbstowcs_s                0045df21 f   libucrt:mbstowcs.obj
 0001:0005d1ea       __wcstombs_s_l             0045e1ea f   libucrt:wcstombs.obj
 0001:0005d2b5       ___acrt_GetStringTypeW     0045e2b5 f   libucrt:getstringtypew.obj
 0001:0005d2ce       ?__mbrtoc32_utf8@__crt_mbstring@@YAIPA_UPBDIPAU_Mbstatet@@@Z 0045e2ce f   libucrt:mbrtoc32.obj
 0001:0005d475       ?return_illegal_sequence@__crt_mbstring@@YAIPAU_Mbstatet@@@Z 0045e475 f i libucrt:mbrtoc32.obj
 0001:0005d494       ?__c16rtomb_utf8@__crt_mbstring@@YAIPAD_SPAU_Mbstatet@@@Z 0045e494 f   libucrt:c16rtomb.obj
 0001:0005d52e       ?__c32rtomb_utf8@__crt_mbstring@@YAIPAD_UPAU_Mbstatet@@@Z 0045e52e f   libucrt:c32rtomb.obj
 0001:0005d5d9       _c32rtomb                  0045e5d9 f   libucrt:c32rtomb.obj
 0001:0005d5e4       __strnicoll                0045e5e4 f   libucrt:strnicol.obj
 0001:0005d60d       __strnicoll_l              0045e60d f   libucrt:strnicol.obj
 0001:0005d7a0       _wcsncpy_s                 0045e7a0 f   libucrt:wcsncpy_s.obj
 0001:0005dd89       ?allocate@?$__crt_win32_buffer@DU__crt_win32_buffer_internal_dynamic_resizing@@@@QAEHI@Z 0045ed89 f i libucrt:argv_wildcards.obj
 0001:0005de4c       ___acrt_expand_narrow_argv_wildcards 0045ee4c f   libucrt:argv_wildcards.obj
 0001:0005e375       ___acrt_initialize_multibyte 0045f375 f   libucrt:mbctype.obj
 0001:0005e3bd       ___acrt_update_thread_multibyte_data 0045f3bd f   libucrt:mbctype.obj
 0001:0005e3d0       __setmbcp_nolock           0045f3d0 f   libucrt:mbctype.obj
 0001:0005e61a       __ismbblead                0045f61a f   libucrt:ismbbyte.obj
 0001:0005e669       ___dcrt_get_narrow_environment_from_os 0045f669 f   libucrt:get_environment_from_os.obj
 0001:0005ea4a       ___dcrt_set_variable_in_narrow_environment_nolock 0045fa4a f   libucrt:setenv.obj
 0001:0005ea55       ___acrt_lowio_create_handle_array 0045fa55 f   libucrt:osfinfo.obj
 0001:0005ead0       ___acrt_lowio_destroy_handle_array 0045fad0 f   libucrt:osfinfo.obj
 0001:0005eb05       ___acrt_lowio_ensure_fh_exists 0045fb05 f   libucrt:osfinfo.obj
 0001:0005eba3       ___acrt_lowio_lock_fh      0045fba3 f   libucrt:osfinfo.obj
 0001:0005ebc6       ___acrt_lowio_set_os_handle 0045fbc6 f   libucrt:osfinfo.obj
 0001:0005ec58       ___acrt_lowio_unlock_fh    0045fc58 f   libucrt:osfinfo.obj
 0001:0005ec7b       __alloc_osfhnd             0045fc7b f   libucrt:osfinfo.obj
 0001:0005ed8e       __free_osfhnd              0045fd8e f   libucrt:osfinfo.obj
 0001:0005ee1f       __get_osfhandle            0045fe1f f   libucrt:osfinfo.obj
 0001:0005ee89       ____lc_codepage_func       0045fe89 f   libucrt:initctype.obj
 0001:0005eeae       ___acrt_locale_initialize_ctype 0045feae f   libucrt:initctype.obj
 0001:0005f30c       ___acrt_locale_free_monetary 0046030c f   libucrt:initmon.obj
 0001:0005f40a       ___acrt_locale_initialize_monetary 0046040a f   libucrt:initmon.obj
 0001:0005f7c1       ___acrt_locale_free_numeric 004607c1 f   libucrt:initnum.obj
 0001:0005f82a       ___acrt_locale_initialize_numeric 0046082a f   libucrt:initnum.obj
 0001:0005fced       ___acrt_locale_free_time   00460ced f   libucrt:inittime.obj
 0001:0005fdd1       ___acrt_locale_initialize_time 00460dd1 f   libucrt:inittime.obj
 0001:0005fe4c       _wcscspn                   00460e4c f   libucrt:wcscspn.obj
 0001:0005fea5       _wcspbrk                   00460ea5 f   libucrt:wcspbrk.obj
 0001:0005fef3       ___acrt_GetStringTypeA     00460ef3 f   libucrt:getstringtypea.obj
 0001:0005fff6       ___acrt_add_locale_ref     00460ff6 f   libucrt:locale_refcounting.obj
 0001:00060073       ___acrt_free_locale        00461073 f   libucrt:locale_refcounting.obj
 0001:000601bb       ___acrt_locale_add_lc_time_reference 004611bb f   libucrt:locale_refcounting.obj
 0001:000601e4       ___acrt_locale_free_lc_time_if_unreferenced 004611e4 f   libucrt:locale_refcounting.obj
 0001:00060215       ___acrt_locale_release_lc_time_reference 00461215 f   libucrt:locale_refcounting.obj
 0001:0006023e       ___acrt_release_locale_ref 0046123e f   libucrt:locale_refcounting.obj
 0001:000602bf       ___acrt_update_thread_locale_data 004612bf f   libucrt:locale_refcounting.obj
 0001:00060340       __updatetlocinfoEx_nolock  00461340 f   libucrt:locale_refcounting.obj
 0001:00060a8c       ___acrt_get_qualified_locale 00461a8c f   libucrt:get_qualified_locale.obj
 0001:000613ed       ___acrt_get_qualified_locale_downlevel 004623ed f   libucrt:getqloc_downlevel.obj
 0001:000615e2       __recalloc_base            004625e2 f   libucrt:recalloc.obj
 0001:0006164f       ___acrt_initialize_heap    0046264f f   libucrt:heap_handle.obj
 0001:00061660       ___acrt_uninitialize_heap  00462660 f   libucrt:heap_handle.obj
 0001:0006166a       ___acrt_execute_initializers 0046266a f   libucrt:shared_initialization.obj
 0001:000616d2       ___acrt_execute_uninitializers 004626d2 f   libucrt:shared_initialization.obj
 0001:00061703       ___acrt_initialize_new_handler 00462703 f   libucrt:new_handler.obj
 0001:00061712       __callnewh                 00462712 f   libucrt:new_handler.obj
 0001:0006173f       __query_new_handler        0046273f f   libucrt:new_handler.obj
 0001:00061842       __clearfp                  00462842 f   libucrt:ieee87.obj
 0001:00061920       __control87                00462920 f   libucrt:ieee87.obj
 0001:00061cbf       ___ascii_wcsnicmp          00462cbf f   libucrt:wcsnicmp.obj
 0001:00061d0e       __towlower_internal        00462d0e f i libucrt:wcsnicmp.obj
 0001:00061d4d       __wcsnicmp                 00462d4d f   libucrt:wcsnicmp.obj
 0001:00061d99       __wcsnicmp_l               00462d99 f   libucrt:wcsnicmp.obj
 0001:00062439       __sopen_nolock             00463439 f   libucrt:open.obj
 0001:000624a7       __sopen_s                  004634a7 f   libucrt:open.obj
 0001:000624c7       __wsopen_nolock            004634c7 f   libucrt:open.obj
 0001:000627f1       __isatty                   004637f1 f   libucrt:isatty.obj
 0001:00062847       __putwch_nolock            00463847 f   libucrt:putwch.obj
 0001:00062879       ___acrt_fp_strflt_to_string 00463879 f   libucrt:_fptostr.obj
 0001:00062939       ___acrt_fltout             00463939 f   libucrt:cfout.obj
 0001:00063c83       ___strncnt                 00464c83 f   libucrt:strncnt.obj
 0001:00063c9f       ___ascii_wcsicmp           00464c9f f   libucrt:wcsicmp.obj
 0001:00063cdc       __wcsicmp                  00464cdc f   libucrt:wcsicmp.obj
 0001:00063d25       __wcsicmp_l                00464d25 f   libucrt:wcsicmp.obj
 0001:00063ddd       ___acrt_initialize_timeset 00464ddd f   libucrt:timeset.obj
 0001:00063e08       ___daylight                00464e08 f   libucrt:timeset.obj
 0001:00063e0e       ___dstbias                 00464e0e f   libucrt:timeset.obj
 0001:00063e14       ___timezone                00464e14 f   libucrt:timeset.obj
 0001:00063e1a       ___tzname                  00464e1a f   libucrt:timeset.obj
 0001:00063e20       __get_daylight             00464e20 f   libucrt:timeset.obj
 0001:00063e4c       __get_dstbias              00464e4c f   libucrt:timeset.obj
 0001:00063e78       __get_timezone             00464e78 f   libucrt:timeset.obj
 0001:000642b8       ___tzset                   004652b8 f   libucrt:tzset.obj
 0001:00064622       ___acrt_fenv_get_common_round_control 00465622 f   libucrt:_fenvutils.obj
 0001:00064644       ___acrt_fenv_get_control   00465644 f   libucrt:_fenvutils.obj
 0001:000646c4       ___acrt_fenv_get_status    004656c4 f   libucrt:_fenvutils.obj
 0001:0006477c       ___acrt_fenv_set_control   0046577c f   libucrt:_fenvutils.obj
 0001:000647e4       ___acrt_fenv_set_status    004657e4 f   libucrt:_fenvutils.obj
 0001:0006492b       ___acrt_DownlevelLCIDToLocaleName 0046592b f   libucrt:lcidtoname_downlevel.obj
 0001:000649d5       ___acrt_DownlevelLocaleNameToLCID 004659d5 f   libucrt:lcidtoname_downlevel.obj
 0001:00064d7f       ___acrt_pack_narrow_command_line_and_environment 00465d7f f   libucrt:cenvarg.obj
 0001:00064df8       ___acrt_CreateProcessA     00465df8 f   libucrt:createprocessa.obj
 0001:00064faa       ___acrt_getpath            00465faa f   libucrt:getpath.obj
 0001:00065240       ___acrt_CompareStringA     00466240 f   libucrt:comparestringa.obj
 0001:00065339       _strncpy_s                 00466339 f   libucrt:strncpy_s.obj
 0001:00065350       _strpbrk                   00466350 f   libucrt:strpbrk.obj
 0001:00065390       __mbsdec                   00466390 f   libucrt:mbsdec.obj
 0001:000653a7       __mbsdec_l                 004663a7 f   libucrt:mbsdec.obj
 0001:00065443       ___acrt_SetEnvironmentVariableA 00466443 f   libucrt:setenvironmentvariablea.obj
 0001:000655b7       ___acrt_GetLocaleInfoA     004665b7 f   libucrt:getlocaleinfoa.obj
 0001:00065767       __msize_base               00466767 f   libucrt:msize.obj
 0001:0006579a       ___set_fpsr_sse2           0046679a f   libucrt:fpctrl.obj
 0001:0006581a       __clrfp                    0046681a f   libucrt:fpctrl.obj
 0001:0006582b       __ctrlfp                   0046682b f   libucrt:fpctrl.obj
 0001:00065855       __set_statfp               00466855 f   libucrt:fpctrl.obj
 0001:000658ae       __statfp                   004668ae f   libucrt:fpctrl.obj
 0001:000658be       __towlower_l               004668be f   libucrt:towlower.obj
 0001:00065960       ??0__crt_seek_guard@@QAE@H_J@Z 00466960 f i libucrt:chsize.obj
 0001:000659ad       __chsize_nolock            004669ad f   libucrt:chsize.obj
 0001:00065b3c       ___dcrt_lowio_ensure_console_output_initialized 00466b3c f   libucrt:initcon.obj
 0001:00065b5b       ___dcrt_terminate_console_output 00466b5b f   libucrt:initcon.obj
 0001:00065b72       ___dcrt_write_console      00466b72 f   libucrt:initcon.obj
 0001:00065bc7       _fegetenv                  00466bc7 f   libucrt:fegetenv.obj
 0001:00065be4       _fesetenv                  00466be4 f   libucrt:fesetenv.obj
 0001:00065c2f       _feholdexcept              00466c2f f   libucrt:feholdexcept.obj
 0001:00065c80       __CIlog10                  00466c80 f   libucrt:log10_impl.obj
 0001:00065cbb       __CIlog10_default          00466cbb f   libucrt:log10_impl.obj
 0001:00065ccf       __log10_default            00466ccf     libucrt:log10_impl.obj
 0001:00065d90       _ceil                      00466d90 f   libucrt:ceil_pentium4.obj
 0001:00065dd0       __ceil_pentium4            00466dd0 f   libucrt:ceil_pentium4.obj
 0001:00065ead       ___acrt_LCMapStringW       00466ead f   libucrt:lcmapstringw.obj
 0001:00065eeb       ___acrt_initialize_sse2    00466eeb f   libucrt:mathfcns.obj
 0001:00065f00       __CIlog10_pentium4         00466f00 f   libucrt:log10_pentium4.obj
 0001:00065f18       __log10_pentium4           00466f18     libucrt:log10_pentium4.obj
 0001:000661b0       __fFEXP                    004671b0 f   libucrt:87tran.obj
 0001:00066207       __rtinfpopse               00467207     libucrt:87tran.obj
 0001:00066209       __rtinfnpopse              00467209     libucrt:87tran.obj
 0001:00066219       __fFLN                     00467219     libucrt:87tran.obj
 0001:000662ce       __rtinfpop                 004672ce     libucrt:87tran.obj
 0001:000662d0       __rtinfnpop                004672d0     libucrt:87tran.obj
 0001:000662e0       __rtforexpinf              004672e0 f   libucrt:87tran.obj
 0001:000662ed       __ffexpm1                  004672ed     libucrt:87tran.obj
 0001:000663a0       __trandisp1                004673a0 f   libucrt:87disp.obj
 0001:00066415       __trandisp2                00467415 f   libucrt:87disp.obj
 0001:000664af       __rttospopde               004674af     libucrt:87disp.obj
 0001:000664b4       __rttospop                 004674b4     libucrt:87disp.obj
 0001:000664c0       __rtnospop                 004674c0 f   libucrt:87disp.obj
 0001:000664d0       __rttosnpop                004674d0 f   libucrt:87disp.obj
 0001:000664d1       __rtnospopde               004674d1     libucrt:87disp.obj
 0001:000664d8       __rtzeropop                004674d8     libucrt:87disp.obj
 0001:000664da       __rtzeronpop               004674da     libucrt:87disp.obj
 0001:000664e0       __rtzerospop               004674e0 f   libucrt:87disp.obj
 0001:000664ed       __rtonepop                 004674ed     libucrt:87disp.obj
 0001:000664f0       __rtonenpop                004674f0 f   libucrt:87disp.obj
 0001:00066500       __tosnan1                  00467500 f   libucrt:87disp.obj
 0001:00066530       __nosnan2                  00467530 f   libucrt:87disp.obj
 0001:00066540       __tosnan2                  00467540 f   libucrt:87disp.obj
 0001:00066570       __nan2                     00467570 f   libucrt:87disp.obj
 0001:000665b0       __rtindfpop                004675b0 f   libucrt:87disp.obj
 0001:000665b2       __rtindfnpop               004675b2     libucrt:87disp.obj
 0001:000665c3       __rttosnpopde              004675c3     libucrt:87disp.obj
 0001:000665d0       __rtatan2inf               004675d0 f   libucrt:87disp.obj
 0001:000665ed       __rtchsifneg               004675ed     libucrt:87disp.obj
 0001:00066600       __twoToTOS                 00467600 f   libucrt:common.obj
 0001:00066615       __load_CW                  00467615 f   libucrt:common.obj
 0001:0006662c       __convertTOStoQNaN         0046762c f   libucrt:common.obj
 0001:00066645       __fload_withFB             00467645 f   libucrt:common.obj
 0001:00066688       __checkTOS_withFB          00467688 f   libucrt:common.obj
 0001:0006669e       __fast_exit                0046769e f   libucrt:common.obj
 0001:000666ab       __math_exit                004676ab f   libucrt:common.obj
 0001:000666d5       __check_overflow_exit      004676d5 f   libucrt:common.obj
 0001:000666e9       __check_range_exit         004676e9 f   libucrt:common.obj
 0001:00066790       __startTwoArgErrorHandling 00467790 f   libucrt:genexcep.obj
 0001:000667a7       __startOneArgErrorHandling 004677a7 f   libucrt:genexcep.obj
 0001:000667e3       ___libm_error_support      004677e3 f   libucrt:libm_error.obj
 0001:000669d7       __ceil_default             004679d7 f   libucrt:ceil.obj
 0001:00066a8c       __d_inttype                00467a8c f   libucrt:powhlp.obj
 0001:00066af4       __powhlp                   00467af4 f   libucrt:powhlp.obj
 0001:00066c1f       __87except                 00467c1f f   libucrt:87except.obj
 0001:00066d29       __frnd                     00467d29 f   libucrt:frnd.obj
 0001:00066d3d       __errcode                  00467d3d f   libucrt:fpexcept.obj
 0001:00066d71       __except1                  00467d71 f   libucrt:fpexcept.obj
 0001:00066e3f       __handle_exc               00467e3f f   libucrt:fpexcept.obj
 0001:0006702a       __raise_exc                0046802a f   libucrt:fpexcept.obj
 0001:0006704d       __raise_exc_ex             0046804d f   libucrt:fpexcept.obj
 0001:00067343       __set_errno_from_matherr   00468343 f   libucrt:fpexcept.obj
 0001:00067372       __umatherr                 00468372 f   libucrt:fpexcept.obj
 0001:00067412       __decomp                   00468412 f   libucrt:util.obj
 0001:000674e4       __set_exp                  004684e4 f   libucrt:util.obj
 0001:00067511       __sptype                   00468511 f   libucrt:util.obj
 0001:0006756f       __fpclass                  0046856f f   libucrt:ieeemisc.obj
 0001:00067620       __FindPESection            00468620 f   LIBCMT:pesect.obj
 0001:00067670       __IsNonwritableInCurrentImage 00468670 f   LIBCMT:pesect.obj
 0001:00067730       __ValidateImageBase        00468730 f   LIBCMT:pesect.obj
 0001:00067763       __EH_epilog3               00468763 f   LIBCMT:ehprolg3.obj
 0001:00067778       __EH_epilog3_GS            00468778 f   LIBCMT:ehprolg3.obj
 0001:00067789       __EH_prolog3               00468789 f   LIBCMT:ehprolg3.obj
 0001:000677bd       __EH_prolog3_GS            004687bd f   LIBCMT:ehprolg3.obj
 0001:000677f4       __EH_prolog3_catch         004687f4 f   LIBCMT:ehprolg3.obj
 0001:00067830       __aulldvrm                 00468830 f   LIBCMT:ulldvrm.obj
 0001:000678c5       ??_Etype_info@@UAEPAXI@Z   004688c5 f i LIBCMT:std_type_info_static.obj
 0001:000678c5       ??_Gtype_info@@UAEPAXI@Z   004688c5 f i LIBCMT:std_type_info_static.obj
 0001:000678e8       ??3@YAXPAXI@Z              004688e8 f   LIBCMT:delete_scalar_size.obj
 0001:00067900       __alldiv                   00468900 f   LIBCMT:lldiv.obj
 0001:000679b0       __alldvrm                  004689b0 f   LIBCMT:lldvrm.obj
 0001:00067a90       __allrem                   00468a90 f   LIBCMT:llrem.obj
 0001:00067b50       __alloca_probe_16          00468b50 f   LIBCMT:alloca16.obj
 0001:00067b66       __alloca_probe_8           00468b66     LIBCMT:alloca16.obj
 0001:00067b80       __ftol2_sse                00468b80 f   LIBCMT:ftol2.obj
 0001:00067b89       __ftol2_pentium4           00468b89 f   LIBCMT:ftol2.obj
 0001:00067b9c       __ftol2_sse_excpt          00468b9c f   LIBCMT:ftol2.obj
 0001:00067bc0       __ftol2                    00468bc0 f   LIBCMT:ftol2.obj
 0001:00067c35       ??3@YAXPAX@Z               00468c35 f   LIBCMT:delete_scalar.obj
 0001:00067c3a       _wcschr                    00468c3a f   libvcruntime:wcschr.obj
 0001:00067d01       __filter_x86_sse2_floating_point_exception_default 00468d01 f   LIBCMT:x86_exception_filter.obj
 0001:00067d01       __filter_x86_sse2_floating_point_exception 00468d01 f   LIBCMT:x86_exception_filter.obj
 0002:00000000       __imp__RegCloseKey@4       00469000     advapi32:ADVAPI32.dll
 0002:00000004       __imp__RegOpenKeyA@12      00469004     advapi32:ADVAPI32.dll
 0002:00000008       __imp__RegQueryValueExA@24 00469008     advapi32:ADVAPI32.dll
 0002:0000000c       __imp__GetUserNameA@8      0046900c     advapi32:ADVAPI32.dll
 0002:00000010       __imp__RegCreateKeyA@12    00469010     advapi32:ADVAPI32.dll
 0002:00000014       __imp__EqualSid@8          00469014     advapi32:ADVAPI32.dll
 0002:00000018       __imp__AllocateAndInitializeSid@44 00469018     advapi32:ADVAPI32.dll
 0002:0000001c       __imp__CopySid@12          0046901c     advapi32:ADVAPI32.dll
 0002:00000020       __imp__GetLengthSid@4      00469020     advapi32:ADVAPI32.dll
 0002:00000024       __imp__InitializeSecurityDescriptor@8 00469024     advapi32:ADVAPI32.dll
 0002:00000028       __imp__SetSecurityDescriptorDacl@16 00469028     advapi32:ADVAPI32.dll
 0002:0000002c       __imp__SetSecurityDescriptorOwner@12 0046902c     advapi32:ADVAPI32.dll
 0002:00000030       __imp__RegSetValueExA@24   00469030     advapi32:ADVAPI32.dll
 0002:00000034       \177ADVAPI32_NULL_THUNK_DATA 00469034     advapi32:ADVAPI32.dll
 0002:00000038       __imp__SetEndOfFile@4      00469038     kernel32:KERNEL32.dll
 0002:0000003c       __imp__HeapSize@12         0046903c     kernel32:KERNEL32.dll
 0002:00000040       __imp__GetTimeZoneInformation@4 00469040     kernel32:KERNEL32.dll
 0002:00000044       __imp__CreateFileW@28      00469044     kernel32:KERNEL32.dll
 0002:00000048       __imp__GetProcessHeap@0    00469048     kernel32:KERNEL32.dll
 0002:0000004c       __imp__SetStdHandle@8      0046904c     kernel32:KERNEL32.dll
 0002:00000050       __imp__SetEnvironmentVariableW@8 00469050     kernel32:KERNEL32.dll
 0002:00000054       __imp__FreeEnvironmentStringsW@4 00469054     kernel32:KERNEL32.dll
 0002:00000058       __imp__GetTickCount@0      00469058     kernel32:KERNEL32.dll
 0002:0000005c       __imp__GetProcAddress@8    0046905c     kernel32:KERNEL32.dll
 0002:00000060       __imp__GetStdHandle@4      00469060     kernel32:KERNEL32.dll
 0002:00000064       __imp__ReadFile@20         00469064     kernel32:KERNEL32.dll
 0002:00000068       __imp__WriteFile@20        00469068     kernel32:KERNEL32.dll
 0002:0000006c       __imp__GetConsoleMode@8    0046906c     kernel32:KERNEL32.dll
 0002:00000070       __imp__SetConsoleMode@8    00469070     kernel32:KERNEL32.dll
 0002:00000074       __imp__LocalFileTimeToFileTime@8 00469074     kernel32:KERNEL32.dll
 0002:00000078       __imp__GetSystemTimeAsFileTime@4 00469078     kernel32:KERNEL32.dll
 0002:0000007c       __imp__FreeLibrary@4       0046907c     kernel32:KERNEL32.dll
 0002:00000080       __imp__LoadLibraryExA@12   00469080     kernel32:KERNEL32.dll
 0002:00000084       __imp__CloseHandle@4       00469084     kernel32:KERNEL32.dll
 0002:00000088       __imp__GetLastError@0      00469088     kernel32:KERNEL32.dll
 0002:0000008c       __imp__GetOverlappedResult@16 0046908c     kernel32:KERNEL32.dll
 0002:00000090       __imp__SetEvent@4          00469090     kernel32:KERNEL32.dll
 0002:00000094       __imp__WaitForSingleObject@8 00469094     kernel32:KERNEL32.dll
 0002:00000098       __imp__CreateEventA@16     00469098     kernel32:KERNEL32.dll
 0002:0000009c       __imp__CreateThread@24     0046909c     kernel32:KERNEL32.dll
 0002:000000a0       __imp__GetFileAttributesExA@12 004690a0     kernel32:KERNEL32.dll
 0002:000000a4       __imp__GetSystemDirectoryA@8 004690a4     kernel32:KERNEL32.dll
 0002:000000a8       __imp__LoadLibraryA@4      004690a8     kernel32:KERNEL32.dll
 0002:000000ac       __imp__FormatMessageA@28   004690ac     kernel32:KERNEL32.dll
 0002:000000b0       __imp__SetHandleInformation@12 004690b0     kernel32:KERNEL32.dll
 0002:000000b4       __imp__FindClose@4         004690b4     kernel32:KERNEL32.dll
 0002:000000b8       __imp__FindFirstFileA@8    004690b8     kernel32:KERNEL32.dll
 0002:000000bc       __imp__FindNextFileA@8     004690bc     kernel32:KERNEL32.dll
 0002:000000c0       __imp__QueryPerformanceCounter@4 004690c0     kernel32:KERNEL32.dll
 0002:000000c4       __imp__GetProcessTimes@20  004690c4     kernel32:KERNEL32.dll
 0002:000000c8       __imp__GetCurrentProcess@0 004690c8     kernel32:KERNEL32.dll
 0002:000000cc       __imp__GetCurrentProcessId@0 004690cc     kernel32:KERNEL32.dll
 0002:000000d0       __imp__GetCurrentThread@0  004690d0     kernel32:KERNEL32.dll
 0002:000000d4       __imp__GetThreadTimes@20   004690d4     kernel32:KERNEL32.dll
 0002:000000d8       __imp__GetWindowsDirectoryA@8 004690d8     kernel32:KERNEL32.dll
 0002:000000dc       __imp__GlobalMemoryStatus@4 004690dc     kernel32:KERNEL32.dll
 0002:000000e0       __imp__CreateFileA@28      004690e0     kernel32:KERNEL32.dll
 0002:000000e4       __imp__LocalFree@4         004690e4     kernel32:KERNEL32.dll
 0002:000000e8       __imp__WaitNamedPipeA@8    004690e8     kernel32:KERNEL32.dll
 0002:000000ec       __imp__ConnectNamedPipe@8  004690ec     kernel32:KERNEL32.dll
 0002:000000f0       __imp__CreateNamedPipeA@32 004690f0     kernel32:KERNEL32.dll
 0002:000000f4       __imp__GetCurrentThreadId@0 004690f4     kernel32:KERNEL32.dll
 0002:000000f8       __imp__MapViewOfFile@20    004690f8     kernel32:KERNEL32.dll
 0002:000000fc       __imp__UnmapViewOfFile@4   004690fc     kernel32:KERNEL32.dll
 0002:00000100       __imp__LocalAlloc@8        00469100     kernel32:KERNEL32.dll
 0002:00000104       __imp__CreateFileMappingA@24 00469104     kernel32:KERNEL32.dll
 0002:00000108       __imp__CreatePipe@16       00469108     kernel32:KERNEL32.dll
 0002:0000010c       __imp__CreateProcessA@40   0046910c     kernel32:KERNEL32.dll
 0002:00000110       __imp__OpenProcess@12      00469110     kernel32:KERNEL32.dll
 0002:00000114       __imp__SetCurrentDirectoryA@4 00469114     kernel32:KERNEL32.dll
 0002:00000118       __imp__GetCurrentDirectoryA@8 00469118     kernel32:KERNEL32.dll
 0002:0000011c       __imp__CreateDirectoryA@8  0046911c     kernel32:KERNEL32.dll
 0002:00000120       __imp__GetFileAttributesA@4 00469120     kernel32:KERNEL32.dll
 0002:00000124       __imp__GetFileSize@8       00469124     kernel32:KERNEL32.dll
 0002:00000128       __imp__GetFileTime@16      00469128     kernel32:KERNEL32.dll
 0002:0000012c       __imp__SetFilePointer@16   0046912c     kernel32:KERNEL32.dll
 0002:00000130       __imp__WaitForMultipleObjects@16 00469130     kernel32:KERNEL32.dll
 0002:00000134       __imp__ReleaseMutex@4      00469134     kernel32:KERNEL32.dll
 0002:00000138       __imp__CreateMutexA@12     00469138     kernel32:KERNEL32.dll
 0002:0000013c       __imp__GetEnvironmentVariableA@12 0046913c     kernel32:KERNEL32.dll
 0002:00000140       __imp__DeleteFileA@4       00469140     kernel32:KERNEL32.dll
 0002:00000144       __imp__GetLocalTime@4      00469144     kernel32:KERNEL32.dll
 0002:00000148       __imp__MultiByteToWideChar@24 00469148     kernel32:KERNEL32.dll
 0002:0000014c       __imp__WideCharToMultiByte@32 0046914c     kernel32:KERNEL32.dll
 0002:00000150       __imp__GetACP@0            00469150     kernel32:KERNEL32.dll
 0002:00000154       __imp__GetOEMCP@0          00469154     kernel32:KERNEL32.dll
 0002:00000158       __imp__GetCPInfo@8         00469158     kernel32:KERNEL32.dll
 0002:0000015c       __imp__UnhandledExceptionFilter@4 0046915c     kernel32:KERNEL32.dll
 0002:00000160       __imp__SetUnhandledExceptionFilter@4 00469160     kernel32:KERNEL32.dll
 0002:00000164       __imp__TerminateProcess@8  00469164     kernel32:KERNEL32.dll
 0002:00000168       __imp__IsProcessorFeaturePresent@4 00469168     kernel32:KERNEL32.dll
 0002:0000016c       __imp__InitializeSListHead@4 0046916c     kernel32:KERNEL32.dll
 0002:00000170       __imp__IsDebuggerPresent@0 00469170     kernel32:KERNEL32.dll
 0002:00000174       __imp__GetStartupInfoW@4   00469174     kernel32:KERNEL32.dll
 0002:00000178       __imp__GetModuleHandleW@4  00469178     kernel32:KERNEL32.dll
 0002:0000017c       __imp__GetEnvironmentStringsW@0 0046917c     kernel32:KERNEL32.dll
 0002:00000180       __imp__RtlUnwind@16        00469180     kernel32:KERNEL32.dll
 0002:00000184       __imp__SetLastError@4      00469184     kernel32:KERNEL32.dll
 0002:00000188       __imp__EnterCriticalSection@4 00469188     kernel32:KERNEL32.dll
 0002:0000018c       __imp__LeaveCriticalSection@4 0046918c     kernel32:KERNEL32.dll
 0002:00000190       __imp__DeleteCriticalSection@4 00469190     kernel32:KERNEL32.dll
 0002:00000194       __imp__InitializeCriticalSectionAndSpinCount@8 00469194     kernel32:KERNEL32.dll
 0002:00000198       __imp__TlsAlloc@0          00469198     kernel32:KERNEL32.dll
 0002:0000019c       __imp__TlsGetValue@4       0046919c     kernel32:KERNEL32.dll
 0002:000001a0       __imp__TlsSetValue@8       004691a0     kernel32:KERNEL32.dll
 0002:000001a4       __imp__TlsFree@4           004691a4     kernel32:KERNEL32.dll
 0002:000001a8       __imp__LoadLibraryExW@12   004691a8     kernel32:KERNEL32.dll
 0002:000001ac       __imp__EncodePointer@4     004691ac     kernel32:KERNEL32.dll
 0002:000001b0       __imp__RaiseException@16   004691b0     kernel32:KERNEL32.dll
 0002:000001b4       __imp__GetFileType@4       004691b4     kernel32:KERNEL32.dll
 0002:000001b8       __imp__GetModuleFileNameW@12 004691b8     kernel32:KERNEL32.dll
 0002:000001bc       __imp__GetModuleHandleExW@12 004691bc     kernel32:KERNEL32.dll
 0002:000001c0       __imp__WriteConsoleW@20    004691c0     kernel32:KERNEL32.dll
 0002:000001c4       __imp__ExitProcess@4       004691c4     kernel32:KERNEL32.dll
 0002:000001c8       __imp__GetCommandLineA@0   004691c8     kernel32:KERNEL32.dll
 0002:000001cc       __imp__GetCommandLineW@0   004691cc     kernel32:KERNEL32.dll
 0002:000001d0       __imp__OutputDebugStringW@4 004691d0     kernel32:KERNEL32.dll
 0002:000001d4       __imp__HeapFree@12         004691d4     kernel32:KERNEL32.dll
 0002:000001d8       __imp__ReadConsoleW@20     004691d8     kernel32:KERNEL32.dll
 0002:000001dc       __imp__FlushFileBuffers@4  004691dc     kernel32:KERNEL32.dll
 0002:000001e0       __imp__GetConsoleCP@0      004691e0     kernel32:KERNEL32.dll
 0002:000001e4       __imp__GetFileSizeEx@8     004691e4     kernel32:KERNEL32.dll
 0002:000001e8       __imp__SetFilePointerEx@20 004691e8     kernel32:KERNEL32.dll
 0002:000001ec       __imp__HeapAlloc@12        004691ec     kernel32:KERNEL32.dll
 0002:000001f0       __imp__HeapReAlloc@16      004691f0     kernel32:KERNEL32.dll
 0002:000001f4       __imp__GetDateFormatW@24   004691f4     kernel32:KERNEL32.dll
 0002:000001f8       __imp__GetTimeFormatW@24   004691f8     kernel32:KERNEL32.dll
 0002:000001fc       __imp__CompareStringW@24   004691fc     kernel32:KERNEL32.dll
 0002:00000200       __imp__LCMapStringW@24     00469200     kernel32:KERNEL32.dll
 0002:00000204       __imp__GetLocaleInfoW@16   00469204     kernel32:KERNEL32.dll
 0002:00000208       __imp__IsValidLocale@8     00469208     kernel32:KERNEL32.dll
 0002:0000020c       __imp__GetUserDefaultLCID@0 0046920c     kernel32:KERNEL32.dll
 0002:00000210       __imp__EnumSystemLocalesW@8 00469210     kernel32:KERNEL32.dll
 0002:00000214       __imp__GetExitCodeProcess@8 00469214     kernel32:KERNEL32.dll
 0002:00000218       __imp__CreateProcessW@40   00469218     kernel32:KERNEL32.dll
 0002:0000021c       __imp__GetFileAttributesExW@12 0046921c     kernel32:KERNEL32.dll
 0002:00000220       __imp__GetStringTypeW@16   00469220     kernel32:KERNEL32.dll
 0002:00000224       __imp__FindFirstFileExW@24 00469224     kernel32:KERNEL32.dll
 0002:00000228       __imp__FindNextFileW@8     00469228     kernel32:KERNEL32.dll
 0002:0000022c       __imp__IsValidCodePage@4   0046922c     kernel32:KERNEL32.dll
 0002:00000230       __imp__DecodePointer@4     00469230     kernel32:KERNEL32.dll
 0002:00000234       \177KERNEL32_NULL_THUNK_DATA 00469234     kernel32:KERNEL32.dll
 0002:00000238       __imp__SendMessageA@16     00469238     user32:USER32.dll
 0002:0000023c       __imp__GetCursorPos@4      0046923c     user32:USER32.dll
 0002:00000240       __imp__GetForegroundWindow@0 00469240     user32:USER32.dll
 0002:00000244       __imp__GetCapture@0        00469244     user32:USER32.dll
 0002:00000248       __imp__GetQueueStatus@4    00469248     user32:USER32.dll
 0002:0000024c       __imp__GetClipboardOwner@0 0046924c     user32:USER32.dll
 0002:00000250       __imp__FindWindowA@8       00469250     user32:USER32.dll
 0002:00000254       \177USER32_NULL_THUNK_DATA 00469254     user32:USER32.dll
 0002:00000258       ___guard_check_icall_fptr  00469258     LIBCMT:guard_support.obj
 0002:0000025c       ___xc_a                    0046925c     LIBCMT:initializers.obj
 0002:00000264       ___xc_z                    00469264     LIBCMT:initializers.obj
 0002:00000268       ___xi_a                    00469268     LIBCMT:initializers.obj
 0002:00000274       ___acrt_stdio_initializer  00469274     libucrt:stdio_initializer.obj
 0002:00000278       ___acrt_multibyte_initializer 00469278     libucrt:multibyte_initializer.obj
 0002:0000027c       ___acrt_timeset_initializer 0046927c     libucrt:timeset_initializer.obj
 0002:00000280       ___acrt_tran_sse2_initializer 00469280     libucrt:sse2_initializer.obj
 0002:00000284       ___xi_z                    00469284     LIBCMT:initializers.obj
 0002:00000288       ___xp_a                    00469288     LIBCMT:initializers.obj
 0002:0000028c       ___acrt_locale_terminator  0046928c     libucrt:locale_initializer.obj
 0002:00000290       ___dcrt_console_output_terminator 00469290     libucrt:console_output_initializer.obj
 0002:00000294       ___acrt_stdio_terminator   00469294     libucrt:stdio_initializer.obj
 0002:00000298       ___xp_z                    00469298     LIBCMT:initializers.obj
 0002:0000029c       ___xt_a                    0046929c     LIBCMT:initializers.obj
 0002:000002a0       ___xt_z                    004692a0     LIBCMT:initializers.obj
 0002:00000308       ??_C@_05DCIIMACO@?$AA?$AA?$AA?$AB?$AF@ 00469308     agentf.obj
 0002:00000310       ??_C@_1BI@HNNCJILE@?$AA?4?$AA?4?$AA?2?$AAa?$AAg?$AAe?$AAn?$AAt?$AAf?$AA?4?$AAc@ 00469310     agentf.obj
 0002:00000328       ??_C@_1DM@BBBCHEJO@?$AAc?$AAh?$AAa?$AAn?$AA?9?$AA?$DO?$AAv?$AAt?$AA?5?$AA?$DN?$AA?$DN?$AA?5?$AA?$CG?$AAa?$AAg@ 00469328     agentf.obj
 0002:00000364       ??_C@_0CD@DPEIBDJB@Agent?9forwarding?5connection?5clo@ 00469364     agentf.obj
 0002:00000388       ??_C@_0BJ@PAKDEFEF@Connecting?5to?5?$CFs?5port?5?$CFd@ 00469388     be_misc.obj
 0002:000003a4       ??_C@_0BB@NIDAOAIN@Connecting?5to?5?$CFs@ 004693a4     be_misc.obj
 0002:000003b8       ??_C@_0BM@ECNDNCEG@Failed?5to?5connect?5to?5?$CFs?3?5?$CFs@ 004693b8     be_misc.obj
 0002:000003d4       ??_C@_04LLEBNMDN@?$CFs?$AN?6@ 004693d4     be_misc.obj
 0002:000003dc       ??_C@_1BK@NGDHMBJI@?$AA?4?$AA?4?$AA?2?$AAb?$AAe?$AA_?$AAm?$AAi?$AAs?$AAc?$AA?4?$AAc@ 004693dc     be_misc.obj
 0002:000003f8       ??_C@_1BC@EKMFBBBD@?$AAl?$AAe?$AAn?$AA?5?$AA?$DO?$AA?$DN?$AA?5?$AA2@ 004693f8     be_misc.obj
 0002:0000040c       ??_C@_1DI@PMABNCLH@?$AAp?$AAs?$AAb?$AA?9?$AA?$DO?$AAs?$AAi?$AAz?$AAe?$AA?5?$AA?$DM?$AA?5?$AAl?$AAe?$AAn@ 0046940c     be_misc.obj
 0002:00000444       ??_C@_0M@KNBNIJIN@proxy?3?5?$CF?4?$CKs@ 00469444     be_misc.obj
 0002:00000450       ??_C@_1CC@GBNHNEOH@?$AAp?$AAo?$AAs?$AA?5?$AA?$DM?$AA?$DN?$AA?5?$AAp?$AAs?$AAb?$AA?9?$AA?$DO?$AAs?$AAi?$AAz@ 00469450     be_misc.obj
 0002:00000474       ??_C@_0BL@ICDGDEJH@proxy?5?$CIpartial?5line?$CJ?3?5?$CF?4?$CKs@ 00469474     be_misc.obj
 0002:00000490       _backends                  00469490     be_ssh.obj
 0002:00000498       _be_default_protocol       00469498     be_ssh.obj
 0002:0000049c       ??_C@_00CNPNBAHC@@         0046949c     cmdline.obj
 0002:000004a0       ??_C@_0CH@BBHEKEDE@option?5?$CC?$CFs?$CC?5not?5available?5in?5th@ 004694a0     cmdline.obj
 0002:000004c8       ??_C@_07EINEMDHH@telnet?3@ 004694c8     cmdline.obj
 0002:000004d0       ??_C@_02DLFOHOMG@?3?1@     004694d0     cmdline.obj
 0002:000004d4       ??_C@_04EBNJJJJI@?$CF?4?$CKs@ 004694d4     cmdline.obj
 0002:000004dc       ??_C@_0CC@BOBAIGKF@unrecognised?5protocol?5prefix?5?8?$CF@ 004694dc     cmdline.obj
 0002:00000500       ??_C@_02OJDBNLEE@?5?7@     00469500     cmdline.obj
 0002:00000504       ??_C@_02IKJAKOAK@?9P@      00469504     cmdline.obj
 0002:00000508       ??_C@_1BK@IGPCNICF@?$AA?4?$AA?4?$AA?2?$AAc?$AAm?$AAd?$AAl?$AAi?$AAn?$AAe?$AA?4?$AAc@ 00469508     cmdline.obj
 0002:00000524       ??_C@_1BE@KOELLOBN@?$AAr?$AAe?$AAt?$AAd?$AA?5?$AA?$DN?$AA?$DN?$AA?5?$AA2@ 00469524     cmdline.obj
 0002:00000538       ??_C@_05ICAMDKBJ@?9load@   00469538     cmdline.obj
 0002:00000540       ??_C@_04ICJFNLID@?9ssh@    00469540     cmdline.obj
 0002:00000548       ??_C@_07DKMEJCIF@?9telnet@ 00469548     cmdline.obj
 0002:00000550       ??_C@_07PNIEMAJC@?9rlogin@ 00469550     cmdline.obj
 0002:00000558       ??_C@_04OINBMFGG@?9raw@    00469558     cmdline.obj
 0002:00000560       ??_C@_07DIHGINNE@?9serial@ 00469560     cmdline.obj
 0002:00000568       ??_C@_02EJEOCNCO@?9v@      00469568     cmdline.obj
 0002:0000056c       ??_C@_02PJGDNHPF@?9l@      0046956c     cmdline.obj
 0002:00000570       ??_C@_08FCOAIJJN@?9loghost@ 00469570     cmdline.obj
 0002:0000057c       ??_C@_08MJJKILLB@?9hostkey@ 0046957c     cmdline.obj
 0002:00000588       ??_C@_0DP@FIONBLOO@?8?$CFs?8?5is?5not?5a?5valid?5format?5for?5@ 00469588     cmdline.obj
 0002:000005c8       ??_C@_02GMOHPDFH@?9L@      004695c8     cmdline.obj
 0002:000005cc       ??_C@_02LIKGMMII@?9R@      004695cc     cmdline.obj
 0002:000005d0       ??_C@_02KEDOHJFP@?9D@      004695d0     cmdline.obj
 0002:000005d4       ??_C@_0DA@NDNLCDCP@?9?$CFc?5expects?5at?5least?5two?5colons@ 004695d4     cmdline.obj
 0002:00000604       ??_C@_06JHCNKDE@?$CFc?$CF?4?$CKs@ 00469604     cmdline.obj
 0002:0000060c       ??_C@_03DFONGJFI@L?$CFs@   0046960c     cmdline.obj
 0002:00000610       ??_C@_01CKDDGHAB@D@        00469610     cmdline.obj
 0002:00000614       ??_C@_03IAHKIJEO@?9nc@     00469614     cmdline.obj
 0002:00000618       ??_C@_0CJ@EADAEIPK@?9nc?5expects?5argument?5of?5form?5?8h@ 00469618     cmdline.obj
 0002:00000644       ??_C@_02OAHIOGLE@?9m@      00469644     cmdline.obj
 0002:00000648       ??_C@_01KDCPPGHE@r@        00469648     cmdline.obj
 0002:0000064c       ??_C@_0CB@LNEDGKNN@unable?5to?5open?5command?5file?5?$CC?$CFs@ 0046964c     cmdline.obj
 0002:00000670       ??_C@_03LIGMNAGB@?9pw@     00469670     cmdline.obj
 0002:00000674       ??_C@_0DG@HOAILDLM@the?5?9pw?5option?5can?5only?5be?5used@ 00469674     cmdline.obj
 0002:000006ac       ??_C@_06CBKBFCJG@?9agent@  004696ac     cmdline.obj
 0002:000006b4       ??_C@_07PJJOKNHB@?9pagent@ 004696b4     cmdline.obj
 0002:000006bc       ??_C@_08CFHKFFAF@?9pageant@ 004696bc     cmdline.obj
 0002:000006c8       ??_C@_08DPIPCKGL@?9noagent@ 004696c8     cmdline.obj
 0002:000006d4       ??_C@_09DKIMANKI@?9nopagent@ 004696d4     cmdline.obj
 0002:000006e0       ??_C@_0L@NKLGCNNF@?9nopageant@ 004696e0     cmdline.obj
 0002:000006ec       ??_C@_06CEGIIIIE@?9share@  004696ec     cmdline.obj
 0002:000006f4       ??_C@_08DKEGPAHJ@?9noshare@ 004696f4     cmdline.obj
 0002:00000700       ??_C@_02NJEJINBK@?9A@      00469700     cmdline.obj
 0002:00000704       ??_C@_02EMMNKJLI@?9a@      00469704     cmdline.obj
 0002:00000708       ??_C@_02ECEJCEAC@?9X@      00469708     cmdline.obj
 0002:0000070c       ??_C@_02NHMNAAKA@?9x@      0046970c     cmdline.obj
 0002:00000710       ??_C@_02HLHIEPKM@?9t@      00469710     cmdline.obj
 0002:00000714       ??_C@_02OOPMGLAO@?9T@      00469714     cmdline.obj
 0002:00000718       ??_C@_02FONBJBNF@?9N@      00469718     cmdline.obj
 0002:0000071c       ??_C@_02OLHPOPJI@?9C@      0046971c     cmdline.obj
 0002:00000720       ??_C@_02PGHGPEOM@?91@      00469720     cmdline.obj
 0002:00000724       ??_C@_02NNFLKHCP@?92@      00469724     cmdline.obj
 0002:00000728       ??_C@_02IEBECDLA@?9i@      00469728     cmdline.obj
 0002:0000072c       ??_C@_02ILABAAKJ@?94@      0046972c     cmdline.obj
 0002:00000730       ??_C@_05OBEEBKAB@?9ipv4@   00469730     cmdline.obj
 0002:00000738       ??_C@_02LJDHGCCL@?96@      00469738     cmdline.obj
 0002:0000073c       ??_C@_05NDHCHIID@?9ipv6@   0046973c     cmdline.obj
 0002:00000744       ??_C@_07LBHAKCPO@?9sercfg@ 00469744     cmdline.obj
 0002:0000074c       ??_C@_0DN@IIMHHOGI@the?5?9sercfg?5option?5can?5only?5be?5@ 0046974c     cmdline.obj
 0002:0000078c       ??_C@_0CE@OGBPPBHP@Unrecognised?5suboption?5?$CC?9sercfg@ 0046978c     cmdline.obj
 0002:000007b0       ??_C@_03GMOBGHL@1?45@      004697b0     cmdline.obj
 0002:000007b4       ??_C@_0CE@PKDJFCAP@Unrecognised?5suboption?5?$CC?9sercfg@ 004697b4     cmdline.obj
 0002:000007d8       ??_C@_0M@GAACDFHA@?9sessionlog@ 004697d8     cmdline.obj
 0002:000007e4       ??_C@_07BJBNOHIC@?9sshlog@ 004697e4     cmdline.obj
 0002:000007ec       ??_C@_0L@OFEEOOKC@?9sshrawlog@ 004697ec     cmdline.obj
 0002:000007f8       ??_C@_09LOEANFPC@?9proxycmd@ 004697f8     cmdline.obj
 0002:00000804       ??_C@_0O@KEOPCOBB@?9restrict?9acl@ 00469804     cmdline.obj
 0002:00000814       ??_C@_0O@CHPNJNLO@?9restrict_acl@ 00469814     cmdline.obj
 0002:00000824       ??_C@_0N@CPDAHODB@?9restrictacl@ 00469824     cmdline.obj
 0002:00000834       ??_C@_1BE@LPNLDGNE@?$AA?4?$AA?4?$AA?2?$AAc?$AAo?$AAn?$AAf?$AA?4?$AAc@ 00469834     conf.obj
 0002:00000848       ??_C@_1CE@CCKFHKHB@?$AAo?$AAl?$AAd?$AAe?$AAn?$AAt?$AAr?$AAy?$AA?5?$AA?$DN?$AA?$DN?$AA?5?$AAe?$AAn?$AAt@ 00469848     conf.obj
 0002:00000870       ??_C@_1EE@EEKAMFKN@?$AAs?$AAu?$AAb?$AAk?$AAe?$AAy?$AAt?$AAy?$AAp?$AAe?$AAs?$AA?$FL?$AAp?$AAr?$AAi@ 00469870     conf.obj
 0002:000008b8       ??_C@_1EC@BPLFDJAM@?$AAv?$AAa?$AAl?$AAu?$AAe?$AAt?$AAy?$AAp?$AAe?$AAs?$AA?$FL?$AAp?$AAr?$AAi?$AAm@ 004698b8     conf.obj
 0002:000008fc       ??_C@_1M@IDDCMKPN@?$AAe?$AAn?$AAt?$AAr?$AAy@ 004698fc     conf.obj
 0002:00000908       ??_C@_1EA@EHPHCNLC@?$AAv?$AAa?$AAl?$AAu?$AAe?$AAt?$AAy?$AAp?$AAe?$AAs?$AA?$FL?$AAp?$AAr?$AAi?$AAm@ 00469908     conf.obj
 0002:00000948       ??_C@_1EC@EKCJNHGB@?$AAs?$AAu?$AAb?$AAk?$AAe?$AAy?$AAt?$AAy?$AAp?$AAe?$AAs?$AA?$FL?$AAp?$AAr?$AAi@ 00469948     conf.obj
 0002:00000990       ??_C@_1EA@CNKKHOHA@?$AAv?$AAa?$AAl?$AAu?$AAe?$AAt?$AAy?$AAp?$AAe?$AAs?$AA?$FL?$AAp?$AAr?$AAi?$AAm@ 00469990     conf.obj
 0002:000009d0       ??_C@_1EC@CAHEIEKD@?$AAs?$AAu?$AAb?$AAk?$AAe?$AAy?$AAt?$AAy?$AAp?$AAe?$AAs?$AA?$FL?$AAp?$AAr?$AAi@ 004699d0     conf.obj
 0002:00000a14       ??_C@_17MIMMBPFJ@?$AAr?$AAe?$AAt@ 00469a14     conf.obj
 0002:00000a20       ??_C@_1EK@BFKJCCO@?$AAv?$AAa?$AAl?$AAu?$AAe?$AAt?$AAy?$AAp?$AAe?$AAs?$AA?$FL?$AAp?$AAr?$AAi?$AAm@ 00469a20     conf.obj
 0002:00000a70       ??_C@_1EC@EIKPDFKD@?$AAv?$AAa?$AAl?$AAu?$AAe?$AAt?$AAy?$AAp?$AAe?$AAs?$AA?$FL?$AAp?$AAr?$AAi?$AAm@ 00469a70     conf.obj
 0002:00000ab4       ??_C@_0DI@KPPHJCFH@Proxy?5error?3?5SOCKS?5proxy?5wants?5@ 00469ab4     cproxy.obj
 0002:00000aec       ??_C@_0DG@GODOGCME@Proxy?5error?3?5SOCKS?5proxy?5won?8t?5@ 00469aec     cproxy.obj
 0002:00000b24       ??_C@_0DF@CKPHGFEO@Proxy?5error?3?5SOCKS?5proxy?5refuse@ 00469b24     cproxy.obj
 0002:00000b60       ??_C@_0EO@DJFMIEOP@Proxy?5error?3?5Server?5chose?5CHAP?5@ 00469b60     cproxy.obj
 0002:00000bb0       ??_C@_0EG@HFGGNNBB@Proxy?5error?3?5Server?5chose?5CHAP?5@ 00469bb0     cproxy.obj
 0002:00000bf8       ??_C@_1BC@CGLMHCPF@?$AA?4?$AA?4?$AA?2?$AAe?$AAc?$AAc?$AA?4?$AAc@ 00469bf8     ecc.obj
 0002:00000c0c       ??_C@_1O@HAOLMPOI@?$AAw?$AAc?$AA?9?$AA?$DO?$AAs?$AAc@ 00469c0c     ecc.obj
 0002:00000c1c       ??_C@_1BI@DJNJMABL@?$AAQ?$AA?9?$AA?$DO?$AAw?$AAc?$AA?5?$AA?$DN?$AA?$DN?$AA?5?$AAw?$AAc@ 00469c1c     ecc.obj
 0002:00000c34       ??_C@_1DI@NAHPADHE@?$AA?$CB?$AAm?$AAp?$AA_?$AAe?$AAq?$AA_?$AAi?$AAn?$AAt?$AAe?$AAg?$AAe?$AAr?$AA?$CI@ 00469c34     ecc.obj
 0002:00000c6c       ??_C@_1BI@KHLCHIHB@?$AAQ?$AA?9?$AA?$DO?$AAm?$AAc?$AA?5?$AA?$DN?$AA?$DN?$AA?5?$AAm?$AAc@ 00469c6c     ecc.obj
 0002:00000c84       ??_C@_1CE@GJPMPIEA@?$AAP?$AAm?$AAi?$AAn?$AAu?$AAs?$AAQ?$AA?9?$AA?$DO?$AAm?$AAc?$AA?5?$AA?$DN?$AA?$DN?$AA?5@ 00469c84     ecc.obj
 0002:00000ca8       ??_C@_1O@PHDHDHCJ@?$AAe?$AAc?$AA?9?$AA?$DO?$AAs?$AAc@ 00469ca8     ecc.obj
 0002:00000cb8       ??_C@_1BI@FMLAFEBA@?$AAQ?$AA?9?$AA?$DO?$AAe?$AAc?$AA?5?$AA?$DN?$AA?$DN?$AA?5?$AAe?$AAc@ 00469cb8     ecc.obj
 0002:00000cf4       ??_C@_1BK@NLGMELOF@?$AA?4?$AA?4?$AA?2?$AAl?$AAo?$AAg?$AAg?$AAi?$AAn?$AAg?$AA?4?$AAc@ 00469cf4     logging.obj
 0002:00000d10       ??_C@_1BE@DNNDFKKD@?$AAc?$AAt?$AAx?$AA?9?$AA?$DO?$AAl?$AAg?$AAf?$AAp@ 00469d10     logging.obj
 0002:00000d24       ??_C@_0DI@LDOGMIFP@Disabled?5writing?5session?5log?5du@ 00469d24     logging.obj
 0002:00000d5c       ??_C@_02BOGAIONP@ab@       00469d5c     logging.obj
 0002:00000d60       ??_C@_02GMLFBBN@wb@        00469d60     logging.obj
 0002:00000d64       ??_C@_0BC@CCPCBAML@?$CFY?4?$CFm?4?$CFd?5?$CFH?3?$CFM?3?$CFS@ 00469d64     logging.obj
 0002:00000d78       ??_C@_0DP@OEIPDIOF@?$DN?$HO?$DN?$HO?$DN?$HO?$DN?$HO?$DN?$HO?$DN?$HO?$DN?$HO?$DN?$HO?$DN?$HO?$DN?$HO?$DN?$HO?$DN?5PuTTY?5l@ 00469d78     logging.obj
 0002:00000db8       ??_C@_05CCNLIHFO@ASCII@    00469db8     logging.obj
 0002:00000dc0       ??_C@_03DGOGAGNC@raw@      00469dc0     logging.obj
 0002:00000dc4       ??_C@_0M@JLAOMPFP@SSH?5packets@ 00469dc4     logging.obj
 0002:00000dd0       ??_C@_0N@LJOKCA@SSH?5raw?5data@ 00469dd0     logging.obj
 0002:00000de0       ??_C@_07CIFAGBMG@unknown@  00469de0     logging.obj
 0002:00000de8       ??_C@_0BB@BCAOKBDA@Disabled?5writing@ 00469de8     logging.obj
 0002:00000dfc       ??_C@_0O@JKPGJOCN@Error?5writing@ 00469dfc     logging.obj
 0002:00000e0c       ??_C@_09JIOHNGHE@Appending@ 00469e0c     logging.obj
 0002:00000e18       ??_C@_0M@NPLMCGEG@Writing?5new@ 00469e18     logging.obj
 0002:00000e24       ??_C@_0CF@BIBDBDMF@?$CFs?5session?5log?5?$CI?$CFs?5mode?$CJ?5to?5fil@ 00469e24     logging.obj
 0002:00000e4c       ??_C@_1DA@DBJCFJHK@?$AAc?$AAt?$AAx?$AA?9?$AA?$DO?$AAs?$AAt?$AAa?$AAt?$AAe?$AA?5?$AA?$CB?$AA?$DN?$AA?5?$AAL@ 00469e4c     logging.obj
 0002:00000e7c       ??_C@_0BA@GKCPLIOC@Event?5Log?3?5?$CFs?$AN?6@ 00469e7c     logging.obj
 0002:00000e8c       ??_C@_08KCCDBHEM@Incoming@ 00469e8c     logging.obj
 0002:00000e98       ??_C@_08MEACDAPG@Outgoing@ 00469e98     logging.obj
 0002:00000ea4       ??_C@_0L@NHKLNPMI@?$CFs?5packet?5@ 00469ea4     logging.obj
 0002:00000eb0       ??_C@_08PJDLIFJK@?$CD0x?$CFlx?0?5@ 00469eb0     logging.obj
 0002:00000ebc       ??_C@_0BG@JOOCLEGP@type?5?$CFd?5?1?50x?$CF02x?5?$CI?$CFs?$CJ@ 00469ebc     logging.obj
 0002:00000ed4       ??_C@_0BN@CBGBOOME@?5on?5behalf?5of?5downstream?5?$CD?$CFu@ 00469ed4     logging.obj
 0002:00000ef4       ??_C@_05DNDNCJEB@?5?$CI?$CFs?$CJ@ 00469ef4     logging.obj
 0002:00000efc       ??_C@_02PCIJFNDE@?$AN?6@   00469efc     logging.obj
 0002:00000f00       ??_C@_0BC@LGPAMIPH@?$CFY?9?$CFm?9?$CFd?5?$CFH?3?$CFM?3?$CFS@ 00469f00     logging.obj
 0002:00000f14       ??_C@_0BE@DONOENMC@?$CFs?5raw?5data?5at?5?$CFs?$AN?6@ 00469f14     logging.obj
 0002:00000f28       ??_C@_01LKDEMHDF@s@        00469f28     logging.obj
 0002:00000f2c       ??_C@_0BI@DLCCOJEF@?5?5?$CI?$CFd?5byte?$CFs?5omitted?$CJ?$AN?6@ 00469f2c     logging.obj
 0002:00000f44       ??_C@_0N@OEKPCOII@?5?5?$CF08zx?$CF?$CKs?$AN?6@ 00469f44     logging.obj
 0002:00000f54       ??_C@_02BAHDIOLJ@XX@       00469f54     logging.obj
 0002:00000f58       ??_C@_04NOJCDH@?$CF02x@    00469f58     logging.obj
 0002:00000f60       ??_C@_02FFEBEEPL@?$CFY@    00469f60     logging.obj
 0002:00000f64       ??_C@_02OOGLLHAM@?$CFm@    00469f64     logging.obj
 0002:00000f68       ??_C@_02DPKJAMEF@?$CFd@    00469f68     logging.obj
 0002:00000f6c       ??_C@_06NDFCBELD@?$CFH?$CFM?$CFS@ 00469f6c     logging.obj
 0002:00000fd0       ??_C@_0N@DDNPCALO@main?5channel@ 00469fd0     mainchan.obj
 0002:00000fe0       ??_C@_1BM@ILFNPLKD@?$AA?4?$AA?4?$AA?2?$AAm?$AAa?$AAi?$AAn?$AAc?$AAh?$AAa?$AAn?$AA?4?$AAc@ 00469fe0     mainchan.obj
 0002:00001000       ??_C@_1EA@BLNALFEN@?$AAc?$AAh?$AAa?$AAn?$AA?9?$AA?$DO?$AAv?$AAt?$AA?5?$AA?$DN?$AA?$DN?$AA?5?$AA?$CG?$AAm?$AAa@ 0046a000     mainchan.obj
 0002:00001040       ??_C@_0BE@HFBJICFG@Opened?5main?5channel@ 0046a040     mainchan.obj
 0002:00001054       ??_C@_0DP@EPJNCDJO@X11?5forwarding?5not?5enabled?3?5una@ 0046a054     mainchan.obj
 0002:00001094       ??_C@_0BO@HIHEGAAJ@Sent?5?$CFd?5environment?5variables@ 0046a094     mainchan.obj
 0002:000010b4       ??_C@_0BH@PGFPBGIN@X11?5forwarding?5enabled@ 0046a0b4     mainchan.obj
 0002:000010cc       ??_C@_0BH@EFJJEGKG@X11?5forwarding?5refused@ 0046a0cc     mainchan.obj
 0002:000010e4       ??_C@_0BJ@MEGEDNKO@Agent?5forwarding?5enabled@ 0046a0e4     mainchan.obj
 0002:00001100       ??_C@_0BJ@HHKCGNIF@Agent?5forwarding?5refused@ 0046a100     mainchan.obj
 0002:0000111c       ??_C@_0O@JMANKGDG@Allocated?5pty@ 0046a11c     mainchan.obj
 0002:0000112c       ??_C@_0BP@EKKAENDO@Server?5refused?5to?5allocate?5pty@ 0046a12c     mainchan.obj
 0002:0000114c       ??_C@_0CB@LLJPBHCJ@Server?5refused?5to?5allocate?5pty?$AN@ 0046a14c     mainchan.obj
 0002:00001170       ??_C@_0CO@IEEHGPFK@Server?5refused?5to?5set?5environme@ 0046a170     mainchan.obj
 0002:000011a0       ??_C@_0CL@GINABBJG@All?5environment?5variables?5succe@ 0046a1a0     mainchan.obj
 0002:000011cc       ??_C@_0CC@PMCIAKHB@All?5environment?5variables?5refus@ 0046a1cc     mainchan.obj
 0002:000011f0       ??_C@_0CO@JFFMBKPB@Server?5refused?5to?5set?5environme@ 0046a1f0     mainchan.obj
 0002:00001220       ??_C@_0DC@OIIOIOKD@Server?5refused?5to?5set?5all?5envir@ 0046a220     mainchan.obj
 0002:00001254       ??_C@_0BI@EDCBOILC@Started?5a?5shell?1command@ 0046a254     mainchan.obj
 0002:0000126c       ??_C@_0CM@BGEKHIMM@Primary?5command?5failed?$DL?5attempt@ 0046a26c     mainchan.obj
 0002:00001298       ??_C@_0CI@OLBEMKMK@Server?5refused?5to?5start?5a?5shell@ 0046a298     mainchan.obj
 0002:000012c0       ??_C@_0CI@BFKCLHOH@Server?5refused?5to?5open?5main?5cha@ 0046a2c0     mainchan.obj
 0002:000012e8       ??_C@_0BB@IHMOKBH@Sent?5EOF?5message@ 0046a2e8     mainchan.obj
 0002:000012fc       ??_C@_0BM@IIJJEMFA@Main?5session?5channel?5closed@ 0046a2fc     mainchan.obj
 0002:00001318       ??_C@_0CE@KHDPCFAF@Session?5sent?5command?5exit?5statu@ 0046a318     mainchan.obj
 0002:0000133c       ??_C@_0P@EHDBBIE@?5?$CIcore?5dumped?$CJ@ 0046a33c     mainchan.obj
 0002:0000134c       ??_C@_02GFKOMOKH@?5?$CI@   0046a34c     mainchan.obj
 0002:00001350       ??_C@_01PKGAHCOL@?$CJ@     0046a350     mainchan.obj
 0002:00001354       ??_C@_0BP@BGPMIKGP@Session?5exited?5on?5?$CFs?$CFs?$CFs?$CF?4?$CKs?$CFs@ 0046a354     mainchan.obj
 0002:00001374       ??_C@_0BL@KMIFKOIO@unrecognised?5signal?5?$CC?$CF?4?$CKs?$CC@ 0046a374     mainchan.obj
 0002:00001390       ??_C@_09PACDMDNC@signal?5?$CFd@ 0046a390     mainchan.obj
 0002:0000139c       ??_C@_05EMFLFCNO@Break@    0046a39c     mainchan.obj
 0002:000013a4       ??_C@_0BD@IHBJPNFD@SIGINT?5?$CIInterrupt?$CJ@ 0046a3a4     mainchan.obj
 0002:000013b8       ??_C@_0BE@FOOFEKIL@SIGTERM?5?$CITerminate?$CJ@ 0046a3b8     mainchan.obj
 0002:000013cc       ??_C@_0P@EIOPNBJC@SIGKILL?5?$CIKill?$CJ@ 0046a3cc     mainchan.obj
 0002:000013dc       ??_C@_0P@NJKLPAKK@SIGQUIT?5?$CIQuit?$CJ@ 0046a3dc     mainchan.obj
 0002:000013ec       ??_C@_0BA@KFLHJEOB@SIGHUP?5?$CIHangup?$CJ@ 0046a3ec     mainchan.obj
 0002:000013fc       ??_C@_0N@IKNKPMOI@More?5signals@ 0046a3fc     mainchan.obj
 0002:0000140c       ??_C@_07GHNLFNAM@SIGABRT@  0046a40c     mainchan.obj
 0002:00001414       ??_C@_07BMAEIDCH@SIGALRM@  0046a414     mainchan.obj
 0002:0000141c       ??_C@_06ONOHJOEH@SIGFPE@   0046a41c     mainchan.obj
 0002:00001424       ??_C@_06HBHKGPEM@SIGILL@   0046a424     mainchan.obj
 0002:0000142c       ??_C@_07LNAHJDEB@SIGPIPE@  0046a42c     mainchan.obj
 0002:00001434       ??_C@_07MIPHKCEO@SIGSEGV@  0046a434     mainchan.obj
 0002:0000143c       ??_C@_07CJEMDFG@SIGUSR1@   0046a43c     mainchan.obj
 0002:00001444       ??_C@_07CJLJJAJF@SIGUSR2@  0046a444     mainchan.obj
 0002:0000144c       ??_C@_03JMHEAPMO@INT@      0046a44c     mainchan.obj
 0002:00001450       ??_C@_04HCGLACHA@TERM@     0046a450     mainchan.obj
 0002:00001458       ??_C@_04NFKOACKA@KILL@     0046a458     mainchan.obj
 0002:00001460       ??_C@_04GBOBDPBG@QUIT@     0046a460     mainchan.obj
 0002:00001468       ??_C@_03FANHOBDO@HUP@      0046a468     mainchan.obj
 0002:0000146c       ??_C@_04NMLMILCD@ABRT@     0046a46c     mainchan.obj
 0002:00001474       ??_C@_04KHGDFFAI@ALRM@     0046a474     mainchan.obj
 0002:0000147c       ??_C@_03IBHGLCPC@FPE@      0046a47c     mainchan.obj
 0002:00001480       ??_C@_03BNOLEDPJ@ILL@      0046a480     mainchan.obj
 0002:00001484       ??_C@_04GGAEFGO@PIPE@      0046a484     mainchan.obj
 0002:0000148c       ??_C@_04HDJAHEGB@SEGV@     0046a48c     mainchan.obj
 0002:00001494       ??_C@_04LJPDBFHJ@USR1@     0046a494     mainchan.obj
 0002:0000149c       ??_C@_04JCNOEGLK@USR2@     0046a49c     mainchan.obj
 0002:000014a4       ??_C@_0BC@NNMLKAOO@Sent?5signal?5SIG?$CFs@ 0046a4a4     mainchan.obj
 0002:000014b8       ??_C@_1BI@OGPCMFEE@?$AA?4?$AA?4?$AA?2?$AAm?$AAe?$AAm?$AAo?$AAr?$AAy?$AA?4?$AAc@ 0046a4b8     memory.obj
 0002:000014d0       ??_C@_1BI@CNOLHJLA@?$AAe?$AAl?$AAt?$AAs?$AAi?$AAz?$AAe?$AA?5?$AA?$DO?$AA?5?$AA0@ 0046a4d0     memory.obj
 0002:000014e8       ??_C@_1CG@BCBMGELK@?$AAo?$AAl?$AAd?$AAs?$AAi?$AAz?$AAe?$AA?5?$AA?$DM?$AA?$DN?$AA?5?$AAm?$AAa?$AAx?$AAs@ 0046a4e8     memory.obj
 0002:00001510       ??_C@_1CE@MANIAPO@?$AAo?$AAl?$AAd?$AAl?$AAe?$AAn?$AA?5?$AA?$DM?$AA?$DN?$AA?5?$AAm?$AAa?$AAx?$AAs?$AAi@ 0046a510     memory.obj
 0002:00001534       ??_C@_1DK@NCGJAGIA@?$AAe?$AAx?$AAt?$AAr?$AAa?$AAl?$AAe?$AAn?$AA?5?$AA?$DM?$AA?$DN?$AA?5?$AAm?$AAa?$AAx@ 0046a534     memory.obj
 0002:00001570       ??_C@_0BI@DJLCIJJD@0123456789abcdefABCDEF?3@ 0046a570     misc.obj
 0002:00001588       ??_C@_0EC@FGCAEFNK@0123456789ABCDEFGHIJKLMNOPQRSTU@ 0046a588     misc.obj
 0002:000015cc       ??_C@_0M@PKLBOLOE@x86?5Windows@ 0046a5cc     misc.obj
 0002:000015d8       ??_C@_0BK@PLMHHLEL@Build?5platform?3?5?$CFd?9bit?5?$CFs@ 0046a5d8     misc.obj
 0002:000015f4       ??_C@_0N@COLANHDG@?$CFsCompiler?3?5@ 0046a5f4     misc.obj
 0002:00001604       ??_C@_0O@HLNFDAGJ@Visual?5Studio@ 0046a604     misc.obj
 0002:00001614       ??_C@_0BH@IGAKLJIE@?0?5unrecognised?5version@ 0046a614     misc.obj
 0002:0000162c       ??_C@_0O@HALHIHGD@?0?5_MSC_VER?$DN?$CFd@ 0046a62c     misc.obj
 0002:0000163c       ??_C@_03ICICOMAL@yes@      0046a63c     misc.obj
 0002:00001640       ??_C@_02KAJCLHKP@no@       0046a640     misc.obj
 0002:00001644       ??_C@_0BO@NLKCLNAI@?$CFsEmbedded?5HTML?5Help?5file?3?5?$CFs@ 0046a644     misc.obj
 0002:00001664       ??_C@_0BE@NBANNANG@?$CFsSource?5commit?3?5?$CFs@ 0046a664     misc.obj
 0002:00001678       ??_C@_0O@NALGGDJF@Out?5of?5memory@ 0046a678     misc.obj
 0002:00001688       ??_C@_1BG@DLGFDEC@?$AA?4?$AA?4?$AA?2?$AAm?$AAp?$AAi?$AAn?$AAt?$AA?4?$AAc@ 0046a688     mpint.obj
 0002:000016a0       ??_C@_15IKCLKIFD@?$AAn?$AAw@ 0046a6a0     mpint.obj
 0002:000016a8       ??_C@_1CC@PDPGMCFB@?$AAx?$AA0?$AA?9?$AA?$DO?$AAn?$AAw?$AA?5?$AA?$DN?$AA?$DN?$AA?5?$AAx?$AA1?$AA?9?$AA?$DO?$AAn@ 0046a6a8     mpint.obj
 0002:000016d0       ??_C@_1EC@JCINCOAC@?$AAd?$AAe?$AAc?$AAi?$AAm?$AAa?$AAl?$AA?4?$AAl?$AAe?$AAn?$AA?5?$AA?$DM?$AA?5?$AA?$CI@ 0046a6d0     mpint.obj
 0002:00001714       ??_C@_1DI@NBGMJNJD@?$AAh?$AAe?$AAx?$AA?4?$AAl?$AAe?$AAn?$AA?5?$AA?$DM?$AA?$DN?$AA?5?$AA?$CI?$AA?$HO?$AA?$CI?$AAs@ 0046a714     mpint.obj
 0002:0000174c       ??_C@_1BK@PMKBAOGP@?$AAw?$AAo?$AAr?$AAd?$AA?5?$AA?$DM?$AA?5?$AAx?$AA?9?$AA?$DO?$AAn?$AAw@ 0046a74c     mpint.obj
 0002:00001768       ??_C@_1BO@FPFHOAGI@?$AAb?$AAi?$AAt?$AAs?$AA?5?$AA?$DM?$AA?5?$AA0?$AAx?$AA1?$AA0?$AA0?$AA0?$AA0@ 0046a768     mpint.obj
 0002:00001788       ??_C@_1CA@EHIIJAKE@?$AAl?$AAe?$AAn?$AA?5?$AA?$DM?$AA?$DN?$AA?5?$AAp?$AAo?$AAo?$AAl?$AA?9?$AA?$DO?$AAn?$AAw@ 0046a788     mpint.obj
 0002:000017a8       ??_C@_1O@KBGOBLBB@?$AA?$CB?$AAc?$AAa?$AAr?$AAr?$AAy@ 0046a7a8     mpint.obj
 0002:000017b8       ??_C@_1FO@LGKPJJAD@?$AAs?$AAc?$AAr?$AAa?$AAt?$AAc?$AAh?$AA?4?$AAn?$AAw?$AA?5?$AA?$DO?$AA?$DN?$AA?5?$AAm@ 0046a7b8     mpint.obj
 0002:00001818       ??_C@_1BE@OCENCALB@?$AAx?$AA?9?$AA?$DO?$AAn?$AAw?$AA?5?$AA?$DO?$AA?5?$AA0@ 0046a818     mpint.obj
 0002:0000182c       ??_C@_1BI@DMHMBBIJ@?$AAx?$AA?9?$AA?$DO?$AAw?$AA?$FL?$AA0?$AA?$FN?$AA?5?$AA?$CG?$AA?5?$AA1@ 0046a82c     mpint.obj
 0002:00001844       ??_C@_1M@IIPNAHGM@?$AAp?$AA?5?$AA?$DO?$AA?5?$AA0@ 0046a844     mpint.obj
 0002:00001850       ??_C@_1CA@BJLPNIIK@?$AAx?$AA?9?$AA?$DO?$AAn?$AAw?$AA?5?$AA?$DM?$AA?$DN?$AA?5?$AAm?$AAc?$AA?9?$AA?$DO?$AAr?$AAw@ 0046a850     mpint.obj
 0002:00001870       ??_C@_1CA@OIGFNNCA@?$AAy?$AA?9?$AA?$DO?$AAn?$AAw?$AA?5?$AA?$DM?$AA?$DN?$AA?5?$AAm?$AAc?$AA?9?$AA?$DO?$AAr?$AAw@ 0046a870     mpint.obj
 0002:00001890       ??_C@_1CE@LKLOMEKL@?$AAx?$AA?9?$AA?$DO?$AAn?$AAw?$AA?5?$AA?$DM?$AA?$DN?$AA?5?$AA2?$AA?$CK?$AAm?$AAc?$AA?9?$AA?$DO@ 0046a890     mpint.obj
 0002:000018b4       ??_C@_1CA@CMFDAHKD@?$AAm?$AAo?$AAd?$AAu?$AAl?$AAu?$AAs?$AA?9?$AA?$DO?$AAn?$AAw?$AA?5?$AA?$DO?$AA?5?$AA0@ 0046a8b4     mpint.obj
 0002:000018d4       ??_C@_1CE@FDPDAOJA@?$AAm?$AAo?$AAd?$AAu?$AAl?$AAu?$AAs?$AA?9?$AA?$DO?$AAw?$AA?$FL?$AA0?$AA?$FN?$AA?5?$AA?$CG@ 0046a8d4     mpint.obj
 0002:000018f8       ??_C@_1FA@LPLBDJBP@?$AAm?$AAp?$AA_?$AAc?$AAm?$AAp?$AA_?$AAe?$AAq?$AA?$CI?$AAa?$AA?0?$AA?5?$AAa?$AA_@ 0046a8f8     mpint.obj
 0002:00001948       ??_C@_1CK@CHHMAJLF@?$AA?$CB?$AAm?$AAp?$AA_?$AAe?$AAq?$AA_?$AAi?$AAn?$AAt?$AAe?$AAg?$AAe?$AAr?$AA?$CI@ 0046a948     mpint.obj
 0002:00001978       ??_C@_1FA@EMKFMKIH@?$AAo?$AAu?$AAt?$AAp?$AAu?$AAt?$AA_?$AAb?$AAi?$AAt?$AA_?$AAi?$AAn?$AAd?$AAe@ 0046a978     mpint.obj
 0002:000019c8       ??_C@_1DC@JPFGKKME@?$AA?$CB?$AAm?$AAp?$AA_?$AAc?$AAm?$AAp?$AA_?$AAh?$AAs?$AA?$CI?$AAr?$AAe?$AAm?$AAa@ 0046a9c8     mpint.obj
 0002:00001a10       _nullplug                  0046aa10     nullplug.obj
 0002:00001a14       _GSS_MECH_KRB5             0046aa14     pgssapi.obj
 0002:00001a50       ??_C@_0L@ILDJNAMO@?$CK?$IGH?$IG?w?$BC?$AB?$AC?$AB?$AB@ 0046aa50     pgssapi.obj
 0002:00001a5c       ??_C@_0L@KABEIDAN@?$CK?$IGH?$IG?w?$BC?$AB?$AC?$AB?$AC@ 0046aa5c     pgssapi.obj
 0002:00001a68       ??_C@_0L@LJAPLCEM@?$CK?$IGH?$IG?w?$BC?$AB?$AC?$AB?$AD@ 0046aa68     pgssapi.obj
 0002:00001a74       ??_C@_06EFHFGJEI@?$CL?$AG?$AB?$AF?$AG?$AC@ 0046aa74     pgssapi.obj
 0002:00001a7c       ??_C@_0L@PGEOCEIL@?$CK?$IGH?$IG?w?$BC?$AB?$AC?$AB?$AE@ 0046aa7c     pgssapi.obj
 0002:00001a88       ??_C@_06FMGOFIAJ@?$CL?$AG?$AB?$AF?$AG?$AD@ 0046aa88     pgssapi.obj
 0002:00001a90       ??_C@_06BDCPMOMO@?$CL?$AG?$AB?$AF?$AG?$AE@ 0046aa90     pgssapi.obj
 0002:00001a98       ??_C@_09NLECEHAP@?$CK?$IGH?$IG?w?$BC?$AB?$AC?$AC@ 0046aa98     pgssapi.obj
 0002:00001b28       ??_C@_0BD@HMMJGDE@forwarding?5from?5?$CFs@ 0046ab28     portfwd.obj
 0002:00001b3c       ??_C@_0L@FNHHKHJK@forwarding@ 0046ab3c     portfwd.obj
 0002:00001b48       ??_C@_0M@CDHNGIPM@?$CFu?4?$CFu?4?$CFu?4?$CFu@ 0046ab48     portfwd.obj
 0002:00001b54       ??_C@_1BK@EJJBBFKE@?$AA?4?$AA?4?$AA?2?$AAp?$AAo?$AAr?$AAt?$AAf?$AAw?$AAd?$AA?4?$AAc@ 0046ab54     portfwd.obj
 0002:00001b70       ??_C@_1BO@DBHKKDMF@?$AAi?$AAp?$AAv?$AA6?$AA?4?$AAl?$AAe?$AAn?$AA?5?$AA?$DN?$AA?$DN?$AA?5?$AA1?$AA6@ 0046ab70     portfwd.obj
 0002:00001b90       ??_C@_0CI@HJHCONDA@?$CF04x?3?$CF04x?3?$CF04x?3?$CF04x?3?$CF04x?3?$CF04x?3?$CF@ 0046ab90     portfwd.obj
 0002:00001bb8       ??_C@_1FG@BGEBNNDC@?$AAf?$AAa?$AAl?$AAs?$AAe?$AA?5?$AA?$CG?$AA?$CG?$AA?5?$AA?$CC?$AAT?$AAh?$AAe?$AAs?$AAe@ 0046abb8     portfwd.obj
 0002:00001c10       ??_C@_1FA@LGPPGDDD@?$AAp?$AAf?$AAc?$AAh?$AAa?$AAn?$AA?9?$AA?$DO?$AAv?$AAt?$AA?5?$AA?$DN?$AA?$DN?$AA?5?$AA?$CG@ 0046ac10     portfwd.obj
 0002:00001c60       ??_C@_0BG@FMJABBMD@Forwarded?5port?5closed@ 0046ac60     portfwd.obj
 0002:00001c78       ??_C@_1EM@EEKEMPLD@?$AAc?$AAh?$AAa?$AAn?$AA?9?$AA?$DO?$AAv?$AAt?$AA?5?$AA?$DN?$AA?$DN?$AA?5?$AA?$CG?$AAP?$AAo@ 0046ac78     portfwd.obj
 0002:00001cc4       ??_C@_02LMMGGCAJ@?3?5@     0046acc4     portfwd.obj
 0002:00001cc8       ??_C@_0CL@LIEOFAGJ@Forwarded?5connection?5refused?5by@ 0046acc8     portfwd.obj
 0002:00001cf4       ??_C@_0CL@OAHHEDDM@Service?5lookup?5failed?5for?5sourc@ 0046acf4     portfwd.obj
 0002:00001d20       ??_C@_01JLIPDDHJ@?3@       0046ad20     portfwd.obj
 0002:00001d24       ??_C@_0DA@BGECCLDL@Service?5lookup?5failed?5for?5desti@ 0046ad24     portfwd.obj
 0002:00001d54       ??_C@_05IDKHKMLA@local@    0046ad54     portfwd.obj
 0002:00001d5c       ??_C@_06IMIHEKN@remote@    0046ad5c     portfwd.obj
 0002:00001d64       ??_C@_07OBLKMMON@dynamic@  0046ad64     portfwd.obj
 0002:00001d6c       ??_C@_0BP@OOEDKOCL@?$CFs?5port?5forwarding?5from?5?$CFs?$CFs?$CFd@ 0046ad6c     portfwd.obj
 0002:00001d8c       ??_C@_0M@OIOIHPP@?$CFs?5to?5?$CFs?3?$CFd@ 0046ad8c     portfwd.obj
 0002:00001d98       ??_C@_0O@FPBFNNNH@Cancelling?5?$CFs@ 0046ad98     portfwd.obj
 0002:00001da8       ??_C@_01ODHLEDKK@?$CI@     0046ada8     portfwd.obj
 0002:00001dac       ??_C@_0N@JKMAFJEE@?$CFs?$CFs?$CFs?$CFs?$CFd?$CFs@ 0046adac     portfwd.obj
 0002:00001dbc       ??_C@_0M@GBNCOFKO@?$CFs?3?$CFs?$CFs?$CFd?$CFs@ 0046adbc     portfwd.obj
 0002:00001dc8       ??_C@_09FIOGNGMI@?5failed?3?5@ 0046adc8     portfwd.obj
 0002:00001dd4       ??_C@_05KGMLFMJN@IPv4?5@   0046add4     portfwd.obj
 0002:00001ddc       ??_C@_05KFEPIIPD@IPv6?5@   0046addc     portfwd.obj
 0002:00001de4       ??_C@_0CF@NHJAMJBJ@Local?5?$CFsport?5?$CFs?5forwarding?5to?5?$CF@ 0046ade4     portfwd.obj
 0002:00001e0c       ??_C@_0CN@FMCCPJAP@Local?5?$CFsport?5?$CFs?5SOCKS?5dynamic?5f@ 0046ae0c     portfwd.obj
 0002:00001e3c       ??_C@_09IPAEKDAI@localhost@ 0046ae3c     portfwd.obj
 0002:00001e48       ??_C@_0CK@DGMHOJIG@Duplicate?5remote?5port?5forwardin@ 0046ae48     portfwd.obj
 0002:00001e74       ??_C@_0CI@LPFOCNO@Requesting?5remote?5port?5?$CFs?5forwa@ 0046ae74     portfwd.obj
 0002:00001ed4       ??_C@_07KGMNIMLD@?5?$CIIPv4?$CJ@ 0046aed4     proxy.obj
 0002:00001edc       ??_C@_07KFEJFINN@?5?$CIIPv6?$CJ@ 0046aedc     proxy.obj
 0002:00001ee4       ??_C@_0BO@HKJJGADA@Looking?5up?5host?5?$CC?$CFs?$CC?$CFs?5for?5?$CFs@ 0046aee4     proxy.obj
 0002:00001f04       ??_C@_0CO@HOGLODGH@Leaving?5host?5lookup?5to?5proxy?5of@ 0046af04     proxy.obj
 0002:00001f34       ??_C@_04MEDPFIKH@HTTP@     0046af34     proxy.obj
 0002:00001f3c       ??_C@_07PAHNFOC@SOCKS?54@  0046af3c     proxy.obj
 0002:00001f44       ??_C@_07BGBMOEKD@SOCKS?55@ 0046af44     proxy.obj
 0002:00001f4c       ??_C@_06GPEENMIJ@Telnet@   0046af4c     proxy.obj
 0002:00001f54       ??_C@_0CC@CHIEJHHN@Proxy?5error?3?5Unknown?5proxy?5meth@ 0046af54     proxy.obj
 0002:00001f78       ??_C@_0CP@PLLHJOLH@Will?5use?5?$CFs?5proxy?5at?5?$CFs?3?$CFd?5to?5c@ 0046af78     proxy.obj
 0002:00001fa8       ??_C@_05BFHPMDA@proxy@     0046afa8     proxy.obj
 0002:00001fb0       ??_C@_0CP@GFIKKOPL@Proxy?5error?3?5Unable?5to?5resolve?5@ 0046afb0     proxy.obj
 0002:00001fe0       ??_C@_0CF@BLDCNBEG@Connecting?5to?5?$CFs?5proxy?5at?5?$CFs?5po@ 0046afe0     proxy.obj
 0002:00002008       ??_C@_0CG@CPJGCIDJ@CONNECT?5?$CFs?3?$CFi?5HTTP?11?41?$AN?6Host?3?5?$CF@ 0046b008     proxy.obj
 0002:00002030       ??_C@_05CCMOGDN@?$CFs?3?$CFs@ 0046b030     proxy.obj
 0002:00002038       ??_C@_0BM@FIOMLIMJ@Proxy?9Authorization?3?5Basic?5@ 0046b038     proxy.obj
 0002:00002054       ??_C@_1BG@FDDNKKLG@?$AA?4?$AA?4?$AA?2?$AAp?$AAr?$AAo?$AAx?$AAy?$AA?4?$AAc@ 0046b054     proxy.obj
 0002:0000206c       ??_C@_1BA@GMKHALLP@?$AAl?$AAe?$AAn?$AA?5?$AA?$DO?$AA?5?$AA0@ 0046b06c     proxy.obj
 0002:0000207c       ??_C@_0O@FCMLAEAK@HTTP?1?$CFi?4?$CFi?5?$CFn@ 0046b07c     proxy.obj
 0002:0000208c       ??_C@_0CG@DCGPPIJD@Proxy?5error?3?5HTTP?5response?5was?5@ 0046b08c     proxy.obj
 0002:000020b4       ??_C@_0BA@DNMLDEBM@Proxy?5error?3?5?$CFs@ 0046b0b4     proxy.obj
 0002:000020c4       ??_C@_0CE@BIHKCDIA@Proxy?5error?3?5unexpected?5proxy?5e@ 0046b0c4     proxy.obj
 0002:000020e8       ??_C@_0DD@NJPCDHJC@Proxy?5error?3?5SOCKS?5version?54?5do@ 0046b0e8     proxy.obj
 0002:00002120       ??_C@_0EG@HCDALBAJ@Proxy?5error?3?5SOCKS?5proxy?5respon@ 0046b120     proxy.obj
 0002:00002168       ??_C@_0DC@EMGNIPAC@Proxy?5error?3?5SOCKS?5server?5wante@ 0046b168     proxy.obj
 0002:0000219c       ??_C@_0DH@PKGOJMHG@Proxy?5error?3?5Username?5and?5IDENT@ 0046b19c     proxy.obj
 0002:000021d4       ??_C@_0DC@DJNHKOKE@Proxy?5error?3?5Error?5while?5commun@ 0046b1d4     proxy.obj
 0002:00002208       ??_C@_0DF@FODBGJHO@Proxy?5error?3?5SOCKS?5proxy?5return@ 0046b208     proxy.obj
 0002:00002240       ??_C@_0DL@NOOPLEPN@Proxy?5error?3?5SOCKS?5proxy?5did?5no@ 0046b240     proxy.obj
 0002:00002280       ??_C@_0EK@FGDFPEDC@Proxy?5error?3?5SOCKS?5password?5sub@ 0046b280     proxy.obj
 0002:000022cc       ??_C@_0DJ@PIHELBJP@Proxy?5error?3?5SOCKS?5proxy?5refuse@ 0046b2cc     proxy.obj
 0002:00002308       ??_C@_0EF@EENJHGFK@Proxy?5error?3?5SOCKS?55?5cannot?5sup@ 0046b308     proxy.obj
 0002:00002350       ??_C@_0DH@KDJCAPLN@Proxy?5error?3?5SOCKS?5proxy?5return@ 0046b350     proxy.obj
 0002:00002388       ??_C@_0O@IGFHOHCM@Proxy?5error?3?5@ 0046b388     proxy.obj
 0002:00002398       ??_C@_0BN@PBCHBBPC@General?5SOCKS?5server?5failure@ 0046b398     proxy.obj
 0002:000023b8       ??_C@_0CC@JOGFEKLK@Connection?5not?5allowed?5by?5rules@ 0046b3b8     proxy.obj
 0002:000023dc       ??_C@_0BE@BCKBHKGP@Network?5unreachable@ 0046b3dc     proxy.obj
 0002:000023f0       ??_C@_0BB@BJPAGEMG@Host?5unreachable@ 0046b3f0     proxy.obj
 0002:00002404       ??_C@_0BD@NPDMPPFP@Connection?5refused@ 0046b404     proxy.obj
 0002:00002418       ??_C@_0M@CDHAHENJ@TTL?5expired@ 0046b418     proxy.obj
 0002:00002424       ??_C@_0BG@OIMEHCDM@Command?5not?5supported@ 0046b424     proxy.obj
 0002:0000243c       ??_C@_0BL@DHAHNDBK@Address?5type?5not?5supported@ 0046b43c     proxy.obj
 0002:00002458       ??_C@_0CB@OKKMDHPE@Unrecognised?5SOCKS?5error?5code?5?$CF@ 0046b458     proxy.obj
 0002:0000247c       ??_C@_0DO@BMJANFCJ@Proxy?5error?3?5SOCKS?5proxy?5return@ 0046b47c     proxy.obj
 0002:000024bc       ??_C@_0DE@KPEONOBG@Proxy?5error?3?5We?5don?8t?5support?5G@ 0046b4bc     proxy.obj
 0002:000024f0       ??_C@_0FD@PEHNLFO@Proxy?5error?3?5SOCKS?55?5authentica@ 0046b4f0     proxy.obj
 0002:00002548       ??_C@_0FD@NKCOFPO@Proxy?5error?3?5SOCKS?55?5authentica@ 0046b548     proxy.obj
 0002:000025a0       ??_C@_0FD@HKOFFKHP@Proxy?5error?3?5Server?5chose?5usern@ 0046b5a0     proxy.obj
 0002:000025f4       ??_C@_0CE@BKJPCPBI@Proxy?5error?3?5Unexpected?5proxy?5e@ 0046b5f4     proxy.obj
 0002:00002618       ??_C@_04OODOLJMA@host@     0046b618     proxy.obj
 0002:00002620       ??_C@_04LPGMAPLE@port@     0046b620     proxy.obj
 0002:00002628       ??_C@_04CCHAHKJA@user@     0046b628     proxy.obj
 0002:00002630       ??_C@_04BBDAIEHH@pass@     0046b630     proxy.obj
 0002:00002638       ??_C@_09BJOLDIDC@proxyhost@ 0046b638     proxy.obj
 0002:00002644       ??_C@_09EILJIOEG@proxyport@ 0046b644     proxy.obj
 0002:00002650       ??_C@_06MNBAJCJJ@?2x?$CF02X@ 0046b650     proxy.obj
 0002:00002658       ??_C@_0CB@BKFEEMHP@Sending?5Telnet?5proxy?5command?3?5?$CF@ 0046b658     proxy.obj
 0002:00002680       _appname                   0046b680     psftp.obj
 0002:00002684       _share_can_be_downstream   0046b684     psftp.obj
 0002:00002685       _share_can_be_upstream     0046b685     psftp.obj
 0002:000026d0       ??_C@_05FCHBDPGJ@PSFTP@    0046b6d0     psftp.obj
 0002:000026d8       ??_C@_01DCLJPIOD@?$CB@     0046b6d8     psftp.obj
 0002:000026dc       ??_C@_0BE@ECMMMDBA@run?5a?5local?5command@ 0046b6dc     psftp.obj
 0002:000026f0       ??_C@_0DP@BCFDBGBB@?$DMcommand?$DO?6?5?5Runs?5a?5local?5comman@ 0046b6f0     psftp.obj
 0002:00002730       ??_C@_03MDONDFG@bye@       0046b730     psftp.obj
 0002:00002734       ??_C@_0BJ@NAPLHOIC@finish?5your?5SFTP?5session@ 0046b734     psftp.obj
 0002:00002750       ??_C@_0DO@JCILCJAP@?6?5?5Terminates?5your?5SFTP?5session@ 0046b750     psftp.obj
 0002:00002790       ??_C@_02ELLOPNDH@cd@       0046b790     psftp.obj
 0002:00002794       ??_C@_0CF@DPGILJLP@change?5your?5remote?5working?5dire@ 0046b794     psftp.obj
 0002:000027c0       ??_C@_0LI@LGGKCMIF@?5?$FL?5?$DMnew?5working?5directory?$DO?5?$FN?6?5?5@ 0046b7c0     psftp.obj
 0002:00002878       ??_C@_05OCEJBCEE@chmod@    0046b878     psftp.obj
 0002:00002880       ??_C@_0CC@EKCGNFPP@change?5file?5permissions?5and?5mod@ 0046b880     psftp.obj
 0002:000028a8       ??_C@_0EHK@MPJLAHCM@?5?$DMmodes?$DO?5?$DMfilename?9or?9wildcard?$DO@ 0046b8a8     psftp.obj
 0002:00002d24       ??_C@_05LBOHBHFK@close@    0046bd24     psftp.obj
 0002:00002d2c       ??_C@_0CP@NJCAKGCN@finish?5your?5SFTP?5session?5but?5do@ 0046bd2c     psftp.obj
 0002:00002d60       ??_C@_0KM@GIGHLOFF@?6?5?5Terminates?5your?5SFTP?5session@ 0046bd60     psftp.obj
 0002:00002e0c       ??_C@_03ONKLGNNH@del@      0046be0c     psftp.obj
 0002:00002e10       ??_C@_0CC@BFIPMBFP@delete?5files?5on?5the?5remote?5serv@ 0046be10     psftp.obj
 0002:00002e38       ??_C@_0GB@FCJEMNCD@?5?$DMfilename?9or?9wildcard?$DO?5?$FL?5?$DMfile@ 0046be38     psftp.obj
 0002:00002e9c       ??_C@_06FOBLBEIN@delete@   0046be9c     psftp.obj
 0002:00002ea4       ??_C@_03DAPAKLGM@dir@      0046bea4     psftp.obj
 0002:00002ea8       ??_C@_0BC@JMBCFDHG@list?5remote?5files@ 0046bea8     psftp.obj
 0002:00002ec0       ??_C@_0BBI@IBDMJEPA@?5?$FL?5?$DMdirectory?9name?$DO?5?$FN?1?$FL?5?$DMwildca@ 0046bec0     psftp.obj
 0002:00002fd8       ??_C@_04MKNBDEPB@exit@     0046bfd8     psftp.obj
 0002:00002fe0       ??_C@_03HNAFFKGA@get@      0046bfe0     psftp.obj
 0002:00002fe4       ??_C@_0DG@PAFCPEBK@download?5a?5file?5from?5the?5server@ 0046bfe4     psftp.obj
 0002:00003020       ??_C@_0PI@CANKFCLO@?5?$FL?5?9r?5?$FN?5?$FL?5?9?9?5?$FN?5?$DMfilename?$DO?5?$FL?5?$DMlo@ 0046c020     psftp.obj
 0002:00003118       ??_C@_04PCJFHION@help@     0046c118     psftp.obj
 0002:00003120       ??_C@_09KANLDBBD@give?5help@ 0046c120     psftp.obj
 0002:00003130       ??_C@_0LA@LMCJACLD@?5?$FL?5?$DMcommand?$DO?5?$FL?5?$DMcommand?$DO?5?4?4?4?5?$FN?5@ 0046c130     psftp.obj
 0002:000031e0       ??_C@_03OEELLDIC@lcd@      0046c1e0     psftp.obj
 0002:000031e4       ??_C@_0BP@GLHIPGDO@change?5local?5working?5directory@ 0046c1e4     psftp.obj
 0002:00003208       ??_C@_0JF@FADGBPPO@?5?$DMlocal?9directory?9name?$DO?6?5?5Chang@ 0046c208     psftp.obj
 0002:000032a0       ??_C@_04FOAPOCEE@lpwd@     0046c2a0     psftp.obj
 0002:000032a8       ??_C@_0BO@JHNLHOPG@print?5local?5working?5directory@ 0046c2a8     psftp.obj
 0002:000032c8       ??_C@_0HN@ELFEDLLH@?6?5?5Print?5the?5local?5working?5dire@ 0046c2c8     psftp.obj
 0002:00003348       ??_C@_02EFGBDOJM@ls@       0046c348     psftp.obj
 0002:0000334c       ??_C@_04PLMBMBJN@mget@     0046c34c     psftp.obj
 0002:00003354       ??_C@_0CA@JHKLOJGC@download?5multiple?5files?5at?5once@ 0046c354     psftp.obj
 0002:00003378       ??_C@_0BDD@BMIHEGBE@?5?$FL?5?9r?5?$FN?5?$FL?5?9?9?5?$FN?5?$DMfilename?9or?9wil@ 0046c378     psftp.obj
 0002:000034ac       ??_C@_05PKPOIPAL@mkdir@    0046c4ac     psftp.obj
 0002:000034b4       ??_C@_0CI@OENJHIAK@create?5directories?5on?5the?5remot@ 0046c4b4     psftp.obj
 0002:000034e0       ??_C@_0GF@CGKDPDHG@?5?$DMdirectory?9name?$DO?5?$FL?5?$DMdirectory?9@ 0046c4e0     psftp.obj
 0002:00003548       ??_C@_04CKCJANML@mput@     0046c548     psftp.obj
 0002:00003550       ??_C@_0BO@CGFAFIBE@upload?5multiple?5files?5at?5once@ 0046c550     psftp.obj
 0002:00003570       ??_C@_0BCP@IJJILLCA@?5?$FL?5?9r?5?$FN?5?$FL?5?9?9?5?$FN?5?$DMfilename?9or?9wil@ 0046c570     psftp.obj
 0002:000036a0       ??_C@_02DJNEKAOO@mv@       0046c6a0     psftp.obj
 0002:000036a4       ??_C@_0CM@DILNCBPM@move?5or?5rename?5file?$CIs?$CJ?5on?5the?5r@ 0046c6a4     psftp.obj
 0002:000036d0       ??_C@_0BLA@LLAJPAPD@?5?$DMsource?$DO?5?$FL?5?$DMsource?$DO?4?4?4?5?$FN?5?$DMdest@ 0046c6d0     psftp.obj
 0002:00003880       ??_C@_04PMOCAHAA@open@     0046c880     psftp.obj
 0002:00003888       ??_C@_0BC@PEFHPPON@connect?5to?5a?5host@ 0046c888     psftp.obj
 0002:000038a0       ??_C@_0IP@NHGONDDM@?5?$FL?$DMuser?$DO?$EA?$FN?$DMhostname?$DO?5?$FL?$DMport?$DO?$FN?6?5@ 0046c8a0     psftp.obj
 0002:00003930       ??_C@_03KMONJGDG@put@      0046c930     psftp.obj
 0002:00003934       ??_C@_0DE@KIPNKOBB@upload?5a?5file?5from?5your?5local?5m@ 0046c934     psftp.obj
 0002:00003968       ??_C@_0PG@EKGFICGF@?5?$FL?5?9r?5?$FN?5?$FL?5?9?9?5?$FN?5?$DMfilename?$DO?5?$FL?5?$DMre@ 0046c968     psftp.obj
 0002:00003a60       ??_C@_03OFKLFAAJ@pwd@      0046ca60     psftp.obj
 0002:00003a64       ??_C@_0CE@KAEFOCGK@print?5your?5remote?5working?5direc@ 0046ca64     psftp.obj
 0002:00003a88       ??_C@_0EG@HDDIPJCD@?6?5?5Print?5the?5current?5remote?5wor@ 0046ca88     psftp.obj
 0002:00003ad0       ??_C@_04KNNLNNGO@quit@     0046cad0     psftp.obj
 0002:00003ad8       ??_C@_05PKLLHACI@reget@    0046cad8     psftp.obj
 0002:00003ae0       ??_C@_0BL@ELFOCHMA@continue?5downloading?5files@ 0046cae0     psftp.obj
 0002:00003b00       ??_C@_0BBJ@PLFKGDKK@?5?$FL?5?9r?5?$FN?5?$FL?5?9?9?5?$FN?5?$DMfilename?$DO?5?$FL?5?$DMlo@ 0046cb00     psftp.obj
 0002:00003c1c       ??_C@_03KKOPAHBG@ren@      0046cc1c     psftp.obj
 0002:00003c20       ??_C@_06LMEAOBLB@rename@   0046cc20     psftp.obj
 0002:00003c28       ??_C@_05CLFDLMHO@reput@    0046cc28     psftp.obj
 0002:00003c30       ??_C@_0BJ@GILCCIFG@continue?5uploading?5files@ 0046cc30     psftp.obj
 0002:00003c50       ??_C@_0BBI@MOBDPGLF@?5?$FL?5?9r?5?$FN?5?$FL?5?9?9?5?$FN?5?$DMfilename?$DO?5?$FL?5?$DMre@ 0046cc50     psftp.obj
 0002:00003d68       ??_C@_02IHJIIPDJ@rm@       0046cd68     psftp.obj
 0002:00003d6c       ??_C@_05IHDOMKOF@rmdir@    0046cd6c     psftp.obj
 0002:00003d74       ??_C@_0CI@JAJHPEPI@remove?5directories?5on?5the?5remot@ 0046cd74     psftp.obj
 0002:00003da0       ??_C@_0NH@FOEDPDBI@?5?$DMdirectory?9name?$DO?5?$FL?5?$DMdirectory?9@ 0046cda0     psftp.obj
 0002:00003e78       ??_C@_0DB@HKKNPFJ@did?5not?5receive?5SFTP?5response?5p@ 0046ce78     psftp.obj
 0002:00003eac       ??_C@_0DK@IGMAFOKA@unable?5to?5understand?5SFTP?5respo@ 0046ceac     psftp.obj
 0002:00003ee8       ??_C@_01KMDKNFGN@?1@       0046cee8     psftp.obj
 0002:00003eec       ??_C@_02DIKICOBM@?1?4@     0046ceec     psftp.obj
 0002:00003ef0       ??_C@_03BPDOPNEN@?1?4?4@   0046cef0     psftp.obj
 0002:00003ef4       ??_C@_0DG@JAIAEKCF@psftp?3?5not?5connected?5to?5a?5host?$DL@ 0046cef4     psftp.obj
 0002:00003f2c       ??_C@_0BN@DNBHCIHM@?$CFs?3?5Cannot?5create?5directory?6@ 0046cf2c     psftp.obj
 0002:00003f4c       ??_C@_0CC@KBHBKFIC@?$CFs?3?5unable?5to?5open?5directory?3?5?$CF@ 0046cf4c     psftp.obj
 0002:00003f70       ??_C@_0BL@GCAOMDCN@?$CFs?3?5reading?5directory?3?5?$CFs?6@ 0046cf70     psftp.obj
 0002:00003f8c       ??_C@_01LFCBOECM@?4@       0046cf8c     psftp.obj
 0002:00003f90       ??_C@_02DJGKEECL@?4?4@     0046cf90     psftp.obj
 0002:00003f94       ??_C@_0DO@HKFBPDKN@ignoring?5potentially?5dangerous?5@ 0046cf94     psftp.obj
 0002:00003fd4       ??_C@_0BH@PNAOKLEK@?$CFs?3?5open?5for?5read?3?5?$CFs?6@ 0046cfd4     psftp.obj
 0002:00003fec       ??_C@_0BK@OKBNGNEF@local?3?5unable?5to?5open?5?$CFs?6@ 0046cfec     psftp.obj
 0002:00004008       ??_C@_0CL@OJPAHMHM@reget?3?5cannot?5restart?5?$CFs?5?9?5file@ 0046d008     psftp.obj
 0002:00004034       ??_C@_0CJ@CBOLKBPP@reget?3?5restarting?5at?5file?5posit@ 0046d034     psftp.obj
 0002:00004060       ??_C@_0BH@HGKDAHHI@remote?3?$CFs?5?$DN?$DO?5local?3?$CFs?6@ 0046d060     psftp.obj
 0002:00004078       ??_C@_0BJ@GLIGGLNC@error?5while?5reading?3?5?$CFs?6@ 0046d078     psftp.obj
 0002:00004094       ??_C@_0CA@EPCDLGHE@error?5while?5writing?5local?5file?6@ 0046d094     psftp.obj
 0002:000040b4       ??_C@_0BK@FMODFGKN@?$CFs?3?5create?5directory?3?5?$CFs?6@ 0046d0b4     psftp.obj
 0002:000040d0       ??_C@_0BI@BFCLNPDN@?$CFs?3?5open?5for?5write?3?5?$CFs?6@ 0046d0d0     psftp.obj
 0002:000040e8       ??_C@_0BF@FHCDIAKE@read?5size?5of?5?$CFs?3?5?$CFs?6@ 0046d0e8     psftp.obj
 0002:00004100       ??_C@_0CF@DEAPPGKA@read?5size?5of?5?$CFs?3?5size?5was?5not?5g@ 0046d100     psftp.obj
 0002:00004128       ??_C@_0CJ@JFCBMJJK@reput?3?5restarting?5at?5file?5posit@ 0046d128     psftp.obj
 0002:00004154       ??_C@_0BH@FEBHLNJP@local?3?$CFs?5?$DN?$DO?5remote?3?$CFs?6@ 0046d154     psftp.obj
 0002:0000416c       ??_C@_0CA@DNNFOBFL@error?5while?5reading?5local?5file?6@ 0046d16c     psftp.obj
 0002:0000418c       ??_C@_0BJ@JDEELMBP@error?5while?5writing?3?5?$CFs?6@ 0046d18c     psftp.obj
 0002:000041a8       ??_C@_0BI@DHHHEPFD@error?5while?5closing?3?5?$CFs@ 0046d1a8     psftp.obj
 0002:000041c0       ??_C@_0CM@CHALKDIC@Multiple?9level?5wildcards?5are?5no@ 0046d1c0     psftp.obj
 0002:000041ec       ??_C@_0BH@KGNHHBEN@Unable?5to?5open?5?$CFs?3?5?$CFs?6@ 0046d1ec     psftp.obj
 0002:00004204       ??_C@_1BG@FGOIIKPE@?$AA?4?$AA?4?$AA?2?$AAp?$AAs?$AAf?$AAt?$AAp?$AA?4?$AAc@ 0046d204     psftp.obj
 0002:00004220       ??_C@_1GG@BOAACDCI@?$AAs?$AAw?$AAc?$AAm?$AA?9?$AA?$DO?$AAn?$AAa?$AAm?$AAe?$AAs?$AA?5?$AA?$CG?$AA?$CG?$AA?5@ 0046d220     psftp.obj
 0002:00004288       ??_C@_06DIJPEION@?$CFs?$CFs?$CFs@ 0046d288     psftp.obj
 0002:00004290       ??_C@_0BF@CODGBLMO@?$CFs?3?5nothing?5matched?6@ 0046d290     psftp.obj
 0002:000042a8       ??_C@_0BN@CKHKEGIF@psftp?3?5unknown?5command?5?$CC?$CFs?$CC?6@ 0046d2a8     psftp.obj
 0002:000042c8       ??_C@_0DN@MHKBCNFE@Directory?5is?5too?5large?5to?5sort?$DL@ 0046d2c8     psftp.obj
 0002:00004308       ??_C@_03OFAPEBGM@?$CFs?6@  0046d308     psftp.obj
 0002:0000430c       ??_C@_0BG@PHNMANNO@Listing?5directory?5?$CFs?6@ 0046d30c     psftp.obj
 0002:00004324       ??_C@_0BK@IODJLODE@Reading?5directory?5?$CFs?3?5?$CFs?6@ 0046d324     psftp.obj
 0002:00004340       ??_C@_0BC@NPLLGNIL@Directory?5?$CFs?3?5?$CFs?6@ 0046d340     psftp.obj
 0002:00004354       ??_C@_0BM@KBHLAJDE@Remote?5directory?5is?5now?5?$CFs?6@ 0046d354     psftp.obj
 0002:00004370       ??_C@_0BI@HNPHNHAI@Remote?5directory?5is?5?$CFs?6@ 0046d370     psftp.obj
 0002:00004388       ??_C@_02BAABKJLB@?9?9@     0046d388     psftp.obj
 0002:0000438c       ??_C@_02CNCCOICK@?9r@      0046d38c     psftp.obj
 0002:00004390       ??_C@_0BO@MBEFAKJ@?$CFs?3?5unrecognised?5option?5?8?$CFs?8?6@ 0046d390     psftp.obj
 0002:000043b0       ??_C@_0BI@DFFAKEPC@?$CFs?3?5expects?5a?5filename?6@ 0046d3b0     psftp.obj
 0002:000043c8       ??_C@_0BM@JNLJAPLE@mkdir?3?5expects?5a?5directory?6@ 0046d3c8     psftp.obj
 0002:000043e4       ??_C@_0O@LPFLPILP@mkdir?5?$CFs?3?5?$CFs?6@ 0046d3e4     psftp.obj
 0002:000043f4       ??_C@_0O@MBLIFLPA@mkdir?5?$CFs?3?5OK?6@ 0046d3f4     psftp.obj
 0002:00004404       ??_C@_0O@CPJIKPPI@rmdir?5?$CFs?3?5?$CFs?6@ 0046d404     psftp.obj
 0002:00004414       ??_C@_0O@FBHLAMLH@rmdir?5?$CFs?3?5OK?6@ 0046d414     psftp.obj
 0002:00004424       ??_C@_0BM@DDBJJIBI@rmdir?3?5expects?5a?5directory?6@ 0046d424     psftp.obj
 0002:00004440       ??_C@_0L@KHFMGEIG@rm?5?$CFs?3?5?$CFs?6@ 0046d440     psftp.obj
 0002:0000444c       ??_C@_0L@NJLPMHMJ@rm?5?$CFs?3?5OK?6@ 0046d44c     psftp.obj
 0002:00004458       ??_C@_0BI@LBPOKBBN@rm?3?5expects?5a?5filename?6@ 0046d458     psftp.obj
 0002:00004470       ??_C@_0O@EMIFFCIC@mv?5?$CFs?5?$CFs?3?5?$CFs?6@ 0046d470     psftp.obj
 0002:00004480       ??_C@_09OPDGLCFB@?$CFs?5?9?$DO?5?$CFs?6@ 0046d480     psftp.obj
 0002:0000448c       ??_C@_0BL@NGHAFBEG@mv?3?5expects?5two?5filenames?6@ 0046d48c     psftp.obj
 0002:000044a8       ??_C@_0EO@BDIDJMJA@mv?3?5multiple?5or?5wildcard?5argume@ 0046d4a8     psftp.obj
 0002:000044f8       ??_C@_0BO@GBDLFFFL@file?5permissions?5not?5provided@ 0046d4f8     psftp.obj
 0002:00004518       ??_C@_0BG@OBCLIGDD@get?5attrs?5for?5?$CFs?3?5?$CFs?6@ 0046d518     psftp.obj
 0002:00004530       ??_C@_0BG@BEHNFPHC@set?5attrs?5for?5?$CFs?3?5?$CFs?6@ 0046d530     psftp.obj
 0002:00004548       ??_C@_0BC@FCNBBAEJ@?$CFs?3?5?$CF04o?5?9?$DO?5?$CF04o?6@ 0046d548     psftp.obj
 0002:0000455c       ??_C@_0DA@HHMOLLBF@chmod?3?5expects?5a?5mode?5specifier@ 0046d55c     psftp.obj
 0002:0000458c       ??_C@_08OAAHJGNL@01234567@ 0046d58c     psftp.obj
 0002:00004598       ??_C@_0DK@HBKMOCD@chmod?3?5numeric?5file?5modes?5shoul@ 0046d598     psftp.obj
 0002:000045d4       ??_C@_02NMFNNFIO@?$CFo@    0046d5d4     psftp.obj
 0002:000045d8       ??_C@_01IHBHIGKO@?0@       0046d5d8     psftp.obj
 0002:000045e0       ??_C@_0EP@EEFHJPLB@chmod?3?5file?5mode?5?8?$CF?4?$CKs?8?5contain@ 0046d5e0     psftp.obj
 0002:00004630       ??_C@_0CH@DIAPGIKI@chmod?3?5file?5mode?5?8?$CF?4?$CKs?8?5is?5inco@ 0046d630     psftp.obj
 0002:00004658       ??_C@_0FH@BLBEPIHK@chmod?3?5file?5mode?5?8?$CF?4?$CKs?8?3?5set?$FLug@ 0046d658     psftp.obj
 0002:000046b0       ??_C@_0EJ@HAPCCNKN@chmod?3?5file?5mode?5?8?$CF?4?$CKs?8?5contain@ 0046d6b0     psftp.obj
 0002:00004700       ??_C@_0GA@BBMINICL@chmod?3?5file?5mode?5?8?$CF?4?$CKs?8?5contain@ 0046d700     psftp.obj
 0002:00004760       ??_C@_0BK@PAAGHMJF@psftp?3?5already?5connected?6@ 0046d760     psftp.obj
 0002:0000477c       ??_C@_0BL@HBFJKHCP@open?3?5expects?5a?5host?5name?6@ 0046d77c     psftp.obj
 0002:00004798       ??_C@_0BL@DAJOCNOK@open?3?5invalid?5port?5number?6@ 0046d798     psftp.obj
 0002:000047b4       ??_C@_0CF@OIOIENCI@lcd?3?5expects?5a?5local?5directory?5@ 0046d7b4     psftp.obj
 0002:000047dc       ??_C@_0CF@GHHOIMJL@lcd?3?5unable?5to?5change?5directory@ 0046d7dc     psftp.obj
 0002:00004804       ??_C@_0BL@OKDCLKFO@New?5local?5directory?5is?5?$CFs?6@ 0046d804     psftp.obj
 0002:00004820       ??_C@_0BP@DNGJJBKE@Current?5local?5directory?5is?5?$CFs?6@ 0046d820     psftp.obj
 0002:00004840       ??_C@_04FDGMDGHG@?$CF?9?$CKs@ 0046d840     psftp.obj
 0002:00004848       ??_C@_0BN@MGCPHGCA@help?3?5?$CFs?3?5command?5not?5found?6@ 0046d848     psftp.obj
 0002:00004868       ??_C@_02DKCKIIND@?$CFs@    0046d868     psftp.obj
 0002:0000486c       ??_C@_07OJLMJNFM@psftp?$DO?5@ 0046d86c     psftp.obj
 0002:00004874       ??_C@_05FAEIHPAI@quit?6@   0046d874     psftp.obj
 0002:0000487c       ??_C@_0CG@MKJIBDHJ@Fatal?3?5unable?5to?5initialise?5SFT@ 0046d87c     psftp.obj
 0002:000048a4       ??_C@_0CP@NJONIMNM@Warning?3?5failed?5to?5resolve?5home@ 0046d8a4     psftp.obj
 0002:000048d4       ??_C@_0CA@JEODBGGO@Remote?5working?5directory?5is?5?$CFs?6@ 0046d8d4     psftp.obj
 0002:000048f4       ??_C@_0BK@CMAIAMHM@Fatal?3?5unable?5to?5open?5?$CFs?6@ 0046d8f4     psftp.obj
 0002:00004910       ??_C@_0DB@LHEFEPOH@Received?5unexpected?5end?9of?9file@ 0046d910     psftp.obj
 0002:00004944       ??_C@_0CK@BHODGFAM@PuTTY?5Secure?5File?5Transfer?5?$CISFT@ 0046d944     psftp.obj
 0002:00004970       ??_C@_0CE@JKEJNPBC@Usage?3?5psftp?5?$FLoptions?$FN?5?$FLuser?$EA?$FNh@ 0046d970     psftp.obj
 0002:00004994       ??_C@_09MAGKGNDA@Options?3?6@ 0046d994     psftp.obj
 0002:000049a0       ??_C@_0DA@LLOCJCBI@?5?5?9V?5?5?5?5?5?5?5?5print?5version?5infor@ 0046d9a0     psftp.obj
 0002:000049d0       ??_C@_0DB@NGALBONC@?5?5?9pgpfp?5?5?5?5print?5PGP?5key?5finge@ 0046d9d0     psftp.obj
 0002:00004a04       ??_C@_0CF@HMPFAEPA@?5?5?9b?5file?5?5?5use?5specified?5batch@ 0046da04     psftp.obj
 0002:00004a2c       ??_C@_0CH@OCNOPLL@?5?5?9bc?5?5?5?5?5?5?5output?5batchfile?5co@ 0046da2c     psftp.obj
 0002:00004a54       ??_C@_0DH@DKACDJMH@?5?5?9be?5?5?5?5?5?5?5don?8t?5stop?5batchfil@ 0046da54     psftp.obj
 0002:00004a8c       ??_C@_0CD@JLCMJEMO@?5?5?9v?5?5?5?5?5?5?5?5show?5verbose?5messag@ 0046da8c     psftp.obj
 0002:00004ab0       ??_C@_0DE@CKENBPAA@?5?5?9load?5sessname?5?5Load?5settings@ 0046dab0     psftp.obj
 0002:00004ae4       ??_C@_0CN@MKHKOEFP@?5?5?9l?5user?5?5?5connect?5with?5specif@ 0046dae4     psftp.obj
 0002:00004b14       ??_C@_0CH@GCKHKFHI@?5?5?9P?5port?5?5?5connect?5to?5specifie@ 0046db14     psftp.obj
 0002:00004b3c       ??_C@_0CL@HHFCCNKD@?5?5?9pw?5passw?5login?5with?5specifie@ 0046db3c     psftp.obj
 0002:00004b68       ??_C@_0DK@CFDOEFDO@?5?5?91?5?92?5?5?5?5?5force?5use?5of?5partic@ 0046db68     psftp.obj
 0002:00004ba4       ??_C@_0CH@ENGOOKOG@?5?5?94?5?96?5?5?5?5?5force?5use?5of?5IPv4?5o@ 0046dba4     psftp.obj
 0002:00004bcc       ??_C@_0CA@OBCIKGBE@?5?5?9C?5?5?5?5?5?5?5?5enable?5compression?6@ 0046dbcc     psftp.obj
 0002:00004bec       ??_C@_0DG@ENNIIIIJ@?5?5?9i?5key?5?5?5?5private?5key?5file?5fo@ 0046dbec     psftp.obj
 0002:00004c24       ??_C@_0CE@LPGCJCIB@?5?5?9noagent?5?5disable?5use?5of?5Page@ 0046dc24     psftp.obj
 0002:00004c48       ??_C@_0CD@GFPPBAFA@?5?5?9agent?5?5?5?5enable?5use?5of?5Pagea@ 0046dc48     psftp.obj
 0002:00004c6c       ??_C@_0BJ@BOLABBBF@?5?5?9hostkey?5aa?3bb?3cc?3?4?4?4?6@ 0046dc6c     psftp.obj
 0002:00004c88       ??_C@_0DL@IDDFIMDK@?5?5?5?5?5?5?5?5?5?5?5?5manually?5specify?5a?5@ 0046dc88     psftp.obj
 0002:00004cc4       ??_C@_0CN@KCKOOPHP@?5?5?9batch?5?5?5?5disable?5all?5interac@ 0046dcc4     psftp.obj
 0002:00004cf8       ??_C@_0EG@IKPNJEPO@?5?5?9no?9sanitise?9stderr?5?5don?8t?5st@ 0046dcf8     psftp.obj
 0002:00004d40       ??_C@_0BF@DDOHIFJD@?5?5?9proxycmd?5command?6@ 0046dd40     psftp.obj
 0002:00004d58       ??_C@_0CK@DLMOJBMM@?5?5?5?5?5?5?5?5?5?5?5?5use?5?8command?8?5as?5lo@ 0046dd58     psftp.obj
 0002:00004d84       ??_C@_0BA@JKMDKHMN@?5?5?9sshlog?5file?6@ 0046dd84     psftp.obj
 0002:00004d94       ??_C@_0BD@FAHLILJB@?5?5?9sshrawlog?5file?6@ 0046dd94     psftp.obj
 0002:00004da8       ??_C@_0CM@KEPCIJMF@?5?5?5?5?5?5?5?5?5?5?5?5log?5protocol?5detail@ 0046dda8     psftp.obj
 0002:00004dd4       ??_C@_01EEMJAFIK@?6@       0046ddd4     psftp.obj
 0002:00004dd8       ??_C@_0O@JPJGHAFG@psftp?3?5?$CFs?6?$CFs?6@ 0046ddd8     psftp.obj
 0002:00004de8       ??_C@_0DB@NAIOENLM@psftp?3?5multiple?5usernames?5speci@ 0046dde8     psftp.obj
 0002:00004e1c       ??_C@_04OFCFIDFI@sftp@     0046de1c     psftp.obj
 0002:00004e28       ??_C@_0JB@JOCCJJFO@test?5?9x?5?1usr?1lib?1sftp?9server?5?$CG?$CG@ 0046de28     psftp.obj
 0002:00004ebc       ??_C@_0O@ELCIGDJM@ssh_init?3?5?$CFs?6@ 0046debc     psftp.obj
 0002:00004ecc       ??_C@_0CN@DFENLPMH@ssh_init?3?5error?5during?5SSH?5conn@ 0046decc     psftp.obj
 0002:00004efc       ??_C@_0BB@LBEANBIC@Connected?5to?5?$CFs?6@ 0046defc     psftp.obj
 0002:00004f10       ??_C@_07OOLFDFIA@psftp?3?5@ 0046df10     psftp.obj
 0002:00004f18       ??_C@_0CI@NANEPJFF@?6?5?5?5?5?5?5?5try?5typing?5?$CCpsftp?5?9h?$CC?5f@ 0046df18     psftp.obj
 0002:00004f40       ??_C@_0CB@CDBNPPJP@option?5?$CC?$CFs?$CC?5requires?5an?5argumen@ 0046df40     psftp.obj
 0002:00004f64       ??_C@_02JNAPBCPB@?9h@      0046df64     psftp.obj
 0002:00004f68       ??_C@_02GIPFNJGC@?9?$DP@   0046df68     psftp.obj
 0002:00004f6c       ??_C@_06LMIDBODK@?9?9help@ 0046df6c     psftp.obj
 0002:00004f74       ??_C@_06OEJDLALJ@?9pgpfp@  0046df74     psftp.obj
 0002:00004f7c       ??_C@_02NMMKAJIM@?9V@      0046df7c     psftp.obj
 0002:00004f80       ??_C@_09GAJKMFCA@?9?9version@ 0046df80     psftp.obj
 0002:00004f8c       ??_C@_06COHPCLGM@?9batch@  0046df8c     psftp.obj
 0002:00004f94       ??_C@_02GHOAPKHL@?9b@      0046df94     psftp.obj
 0002:00004f98       ??_C@_03IJGAHACK@?9bc@     0046df98     psftp.obj
 0002:00004f9c       ??_C@_03NPDKNHKM@?9be@     0046df9c     psftp.obj
 0002:00004fa0       ??_C@_0BB@MLGPGHAD@?9sanitise?9stderr@ 0046dfa0     psftp.obj
 0002:00004fb4       ??_C@_0BE@EPLNLLAH@?9no?9sanitise?9stderr@ 0046dfb4     psftp.obj
 0002:00004fc8       ??_C@_0BE@LOAAFJEB@unknown?5option?5?$CC?$CFs?$CC@ 0046dfc8     psftp.obj
 0002:00004fdc       ??_C@_0DP@FPABBPAN@psftp?3?5no?5hostname?5specified?$DL?5u@ 0046dfdc     psftp.obj
 0002:0000501c       ??_C@_1CC@GFNOOCAB@?$AA?4?$AA?4?$AA?2?$AAp?$AAs?$AAf?$AAt?$AAp?$AAc?$AAo?$AAm?$AAm?$AAo?$AAn?$AA?4@ 0046e01c     psftpcommon.obj
 0002:00005040       ??_C@_1BK@PDLDPPPF@?$AAc?$AAt?$AAx?$AA?9?$AA?$DO?$AAs?$AAo?$AAr?$AAt?$AAi?$AAn?$AAg@ 0046e040     psftpcommon.obj
 0002:00005060       _ttymodes                  0046e060     settings.obj
 0002:000052d8       ??_C@_03BHCPJDHL@aes@      0046e2d8     settings.obj
 0002:000052dc       ??_C@_08OMGHMHM@chacha20@  0046e2dc     settings.obj
 0002:000052e8       ??_C@_04CBBGIJBO@3des@     0046e2e8     settings.obj
 0002:000052f0       ??_C@_04JBIELMDE@WARN@     0046e2f0     settings.obj
 0002:000052f8       ??_C@_03CAPBGDEJ@des@      0046e2f8     settings.obj
 0002:000052fc       ??_C@_08CMDBPLDA@blowfish@ 0046e2fc     settings.obj
 0002:00005308       ??_C@_07EJAPOIDC@arcfour@  0046e308     settings.obj
 0002:00005310       ??_C@_04KDGGCKGB@ecdh@     0046e310     settings.obj
 0002:00005318       ??_C@_0M@PENOLILK@dh?9gex?9sha1@ 0046e318     settings.obj
 0002:00005324       ??_C@_0BA@PANCPPML@dh?9group14?9sha1@ 0046e324     settings.obj
 0002:00005334       ??_C@_0P@BNDKBLBG@dh?9group1?9sha1@ 0046e334     settings.obj
 0002:00005344       ??_C@_03DFNMMEBL@rsa@      0046e344     settings.obj
 0002:00005348       ??_C@_07LBIEHNGB@ed25519@  0046e348     settings.obj
 0002:00005350       ??_C@_05FGIDCBJD@ecdsa@    0046e350     settings.obj
 0002:00005358       ??_C@_03EAKOMMFI@dsa@      0046e358     settings.obj
 0002:0000535c       ??_C@_04PEMNKEGO@INTR@     0046e35c     settings.obj
 0002:00005364       ??_C@_05JDCHENNJ@ERASE@    0046e364     settings.obj
 0002:0000536c       ??_C@_03KPJEKKJC@EOF@      0046e36c     settings.obj
 0002:00005370       ??_C@_03FFHLECBI@EOL@      0046e370     settings.obj
 0002:00005374       ??_C@_04POEJLHGF@EOL2@     0046e374     settings.obj
 0002:0000537c       ??_C@_05JLPDBANI@START@    0046e37c     settings.obj
 0002:00005384       ??_C@_04MDHMLCKF@STOP@     0046e384     settings.obj
 0002:0000538c       ??_C@_04GOPMIPNE@SUSP@     0046e38c     settings.obj
 0002:00005394       ??_C@_05INNFJBBA@DSUSP@    0046e394     settings.obj
 0002:0000539c       ??_C@_07JHHPDFIC@REPRINT@  0046e39c     settings.obj
 0002:000053a4       ??_C@_06FJPLOEDN@WERASE@   0046e3a4     settings.obj
 0002:000053ac       ??_C@_05MBNGDNDE@LNEXT@    0046e3ac     settings.obj
 0002:000053b4       ??_C@_05KALGKIBB@FLUSH@    0046e3b4     settings.obj
 0002:000053bc       ??_C@_05EAAHFJLP@SWTCH@    0046e3bc     settings.obj
 0002:000053c4       ??_C@_06DNKMJCIK@STATUS@   0046e3c4     settings.obj
 0002:000053cc       ??_C@_07KLFFMLGM@DISCARD@  0046e3cc     settings.obj
 0002:000053d4       ??_C@_06HEEGBLFE@IGNPAR@   0046e3d4     settings.obj
 0002:000053dc       ??_C@_06NCFKGAKE@PARMRK@   0046e3dc     settings.obj
 0002:000053e4       ??_C@_05CLPFEJCF@INPCK@    0046e3e4     settings.obj
 0002:000053ec       ??_C@_06FAHNCPEL@ISTRIP@   0046e3ec     settings.obj
 0002:000053f4       ??_C@_05KKDKAIBK@INLCR@    0046e3f4     settings.obj
 0002:000053fc       ??_C@_05NCDKCOA@IGNCR@     0046e3fc     settings.obj
 0002:00005404       ??_C@_05DOPFEAIL@ICRNL@    0046e404     settings.obj
 0002:0000540c       ??_C@_05LNOMNKPC@IUCLC@    0046e40c     settings.obj
 0002:00005414       ??_C@_04HHLLLNOB@IXON@     0046e414     settings.obj
 0002:0000541c       ??_C@_05FMNMPIHN@IXANY@    0046e41c     settings.obj
 0002:00005424       ??_C@_05HPEKNAGI@IXOFF@    0046e424     settings.obj
 0002:0000542c       ??_C@_07FODEGPLO@IMAXBEL@  0046e42c     settings.obj
 0002:00005434       ??_C@_05LBHOJADP@IUTF8@    0046e434     settings.obj
 0002:0000543c       ??_C@_04HFPFPNBL@ISIG@     0046e43c     settings.obj
 0002:00005444       ??_C@_06DBKIJOGI@ICANON@   0046e444     settings.obj
 0002:0000544c       ??_C@_05HBOPOCKO@XCASE@    0046e44c     settings.obj
 0002:00005454       ??_C@_04CJAHKHLK@ECHO@     0046e454     settings.obj
 0002:0000545c       ??_C@_05KGJDOGHF@ECHOE@    0046e45c     settings.obj
 0002:00005464       ??_C@_05DIBAMLPL@ECHOK@    0046e464     settings.obj
 0002:0000546c       ??_C@_06HAFAPJLN@ECHONL@   0046e46c     settings.obj
 0002:00005474       ??_C@_06NIICIJJE@NOFLSH@   0046e474     settings.obj
 0002:0000547c       ??_C@_06LBKGOPNL@TOSTOP@   0046e47c     settings.obj
 0002:00005484       ??_C@_06LIDCLKKL@IEXTEN@   0046e484     settings.obj
 0002:0000548c       ??_C@_07JDDLFNE@ECHOCTL@   0046e48c     settings.obj
 0002:00005494       ??_C@_06KHFJIABP@ECHOKE@   0046e494     settings.obj
 0002:0000549c       ??_C@_06PMNHKPGP@PENDIN@   0046e49c     settings.obj
 0002:000054a4       ??_C@_05PLHKGJPM@OPOST@    0046e4a4     settings.obj
 0002:000054ac       ??_C@_05BFLCFEOD@OLCUC@    0046e4ac     settings.obj
 0002:000054b4       ??_C@_05HMGDOLAH@ONLCR@    0046e4b4     settings.obj
 0002:000054bc       ??_C@_05OIKMKDJG@OCRNL@    0046e4bc     settings.obj
 0002:000054c4       ??_C@_05GONGEEOJ@ONOCR@    0046e4c4     settings.obj
 0002:000054cc       ??_C@_06LBADOLBH@ONLRET@   0046e4cc     settings.obj
 0002:000054d4       ??_C@_03KJOHOHON@CS7@      0046e4d4     settings.obj
 0002:000054d8       ??_C@_03COHPPLCC@CS8@      0046e4d8     settings.obj
 0002:000054dc       ??_C@_06NDBAKJBG@PARENB@   0046e4dc     settings.obj
 0002:000054e4       ??_C@_06OHGAGLCC@PARODD@   0046e4e4     settings.obj
 0002:000054ec       ??_C@_0M@EKKIMHEK@187?0187?0187@ 0046e4ec     settings.obj
 0002:000054f8       ??_C@_0M@HIJMBBJH@255?0255?0255@ 0046e4f8     settings.obj
 0002:00005504       ??_C@_05FAEMOKCC@0?00?00@  0046e504     settings.obj
 0002:0000550c       ??_C@_08KKGKFDEE@85?085?085@ 0046e50c     settings.obj
 0002:00005518       ??_C@_07BOJKDALH@0?0255?00@ 0046e518     settings.obj
 0002:00005520       ??_C@_07ELECBMIG@187?00?00@ 0046e520     settings.obj
 0002:00005528       ??_C@_09DCKAJKMO@255?085?085@ 0046e528     settings.obj
 0002:00005534       ??_C@_07MKJHEOCD@0?0187?00@ 0046e534     settings.obj
 0002:0000553c       ??_C@_09MNAJNEEK@85?0255?085@ 0046e53c     settings.obj
 0002:00005548       ??_C@_09FECCHLOJ@187?0187?00@ 0046e548     settings.obj
 0002:00005554       ??_C@_0L@MAPMHELN@255?0255?085@ 0046e554     settings.obj
 0002:00005560       ??_C@_07OFKOGOHD@0?00?0187@ 0046e560     settings.obj
 0002:00005568       ??_C@_09LMJHMNAI@85?085?0255@ 0046e568     settings.obj
 0002:00005574       ??_C@_09HLBLFLLJ@187?00?0187@ 0046e574     settings.obj
 0002:00005580       ??_C@_0L@LBGCGNPP@255?085?0255@ 0046e580     settings.obj
 0002:0000558c       ??_C@_09CNAOKCBI@0?0187?0187@ 0046e58c     settings.obj
 0002:00005598       ??_C@_0L@FLEIIDII@85?0255?0255@ 0046e598     settings.obj
 0002:000055a8       ??_C@_0EA@NIIBGEKA@0?00?00?00?00?00?00?00?00?00?00?00?00?00?00?00@ 0046e5a8     settings.obj
 0002:000055e8       ??_C@_0EA@FPDDEHNH@0?01?02?01?01?01?01?01?01?01?01?01?01?02?02?02@ 0046e5e8     settings.obj
 0002:00005628       ??_C@_0EA@DBPANBHP@1?02?02?02?02?02?02?02?02?02?02?02?02?02?02?02@ 0046e628     settings.obj
 0002:00005668       ??_C@_0EA@BKNNICLM@1?02?02?02?02?02?02?02?02?02?02?02?02?02?02?02@ 0046e668     settings.obj
 0002:000056a8       ??_C@_0EA@BMFKLFMA@1?01?01?01?01?01?01?01?01?01?01?01?01?01?01?01@ 0046e6a8     settings.obj
 0002:000056e8       ??_C@_0EA@GAMBBNED@2?02?02?02?02?02?02?02?02?02?02?02?02?02?02?02@ 0046e6e8     settings.obj
 0002:00005728       ??_C@_1BM@LPMDBKLM@?$AA?4?$AA?4?$AA?2?$AAs?$AAe?$AAt?$AAt?$AAi?$AAn?$AAg?$AAs?$AA?4?$AAc@ 0046e728     settings.obj
 0002:00005744       ??_C@_1CE@COELNHMC@?$AAm?$AAa?$AAp?$AAp?$AAi?$AAn?$AAg?$AA?$FL?$AAi?$AA?$FN?$AA?4?$AAv?$AA?5?$AA?$DO?$AA?$DN@ 0046e744     settings.obj
 0002:00005768       ??_C@_1CE@OCELJLLL@?$AAm?$AAa?$AAp?$AAp?$AAi?$AAn?$AAg?$AA?$FL?$AAi?$AA?$FN?$AA?4?$AAv?$AA?5?$AA?$DM?$AA?5@ 0046e768     settings.obj
 0002:0000578c       ??_C@_1M@HCFHNBN@?$AAj?$AA?5?$AA?$DM?$AA?5?$AAn@ 0046e78c     settings.obj
 0002:00005798       ??_C@_04HDOCAJNK@?$CFs?$CFs@ 0046e798     settings.obj
 0002:000057a0       ??_C@_04CGFJFPFD@none@     0046e7a0     settings.obj
 0002:000057a8       ??_C@_08IAGCHHEC@implicit@ 0046e7a8     settings.obj
 0002:000057b4       ??_C@_08FCANLLBJ@explicit@ 0046e7b4     settings.obj
 0002:000057c0       ??_C@_07PNOOCAHN@custom?3@ 0046e7c0     settings.obj
 0002:000057c8       ??_C@_08EJIMMOH@HostName@  0046e7c8     settings.obj
 0002:000057d4       ??_C@_0M@LILHGKM@LogFileName@ 0046e7d4     settings.obj
 0002:000057e0       ??_C@_07BLDPIFHF@LogType@  0046e7e0     settings.obj
 0002:000057e8       ??_C@_0N@GEDMDCAP@LogFileClash@ 0046e7e8     settings.obj
 0002:000057f8       ??_C@_08EEDLMPAL@LogFlush@ 0046e7f8     settings.obj
 0002:00005804       ??_C@_09KNNJBOJB@LogHeader@ 0046e804     settings.obj
 0002:00005810       ??_C@_0BE@FDKJDNBD@SSHLogOmitPasswords@ 0046e810     settings.obj
 0002:00005824       ??_C@_0P@LPNJCIN@SSHLogOmitData@ 0046e824     settings.obj
 0002:00005834       ??_C@_08NAKOFPNG@Protocol@ 0046e834     settings.obj
 0002:00005840       ??_C@_0L@NGCGLEGO@PortNumber@ 0046e840     settings.obj
 0002:0000584c       ??_C@_0M@FKKACOPA@CloseOnExit@ 0046e84c     settings.obj
 0002:00005858       ??_C@_0M@OIMMGHLB@WarnOnClose@ 0046e858     settings.obj
 0002:00005864       ??_C@_0N@MHDGNOPF@PingInterval@ 0046e864     settings.obj
 0002:00005874       ??_C@_0BB@IHHLNFKP@PingIntervalSecs@ 0046e874     settings.obj
 0002:00005888       ??_C@_0L@BJCKGKOH@TCPNoDelay@ 0046e888     settings.obj
 0002:00005894       ??_C@_0O@JGFDCAMB@TCPKeepalives@ 0046e894     settings.obj
 0002:000058a4       ??_C@_0N@PLJHOHNJ@TerminalType@ 0046e8a4     settings.obj
 0002:000058b4       ??_C@_0O@IJLHKGFA@TerminalSpeed@ 0046e8b4     settings.obj
 0002:000058c4       ??_C@_0O@OPOECGBL@TerminalModes@ 0046e8c4     settings.obj
 0002:000058d4       ??_C@_0O@BBFCFNFH@AddressFamily@ 0046e8d4     settings.obj
 0002:000058e4       ??_C@_0BB@LPDPIJJE@ProxyExcludeList@ 0046e8e4     settings.obj
 0002:000058f8       ??_C@_08BEHIGMOD@ProxyDNS@ 0046e8f8     settings.obj
 0002:00005904       ??_C@_0P@PPDCMMIE@ProxyLocalhost@ 0046e904     settings.obj
 0002:00005914       ??_C@_0M@LKIANCI@ProxyMethod@ 0046e914     settings.obj
 0002:00005920       ??_C@_09JHHHBEOG@ProxyHost@ 0046e920     settings.obj
 0002:0000592c       ??_C@_09MGCFKCJC@ProxyPort@ 0046e92c     settings.obj
 0002:00005938       ??_C@_0O@LPPPKJOO@ProxyUsername@ 0046e938     settings.obj
 0002:00005948       ??_C@_0O@IHOKPHGK@ProxyPassword@ 0046e948     settings.obj
 0002:00005958       ??_C@_0BD@IJFLPJDD@ProxyTelnetCommand@ 0046e958     settings.obj
 0002:0000596c       ??_C@_0P@JGBJEMOJ@ProxyLogToTerm@ 0046e96c     settings.obj
 0002:0000597c       ??_C@_0M@OAOKKMLA@Environment@ 0046e97c     settings.obj
 0002:00005988       ??_C@_08KAFEAHEM@UserName@ 0046e988     settings.obj
 0002:00005994       ??_C@_0BI@HPGFHBFK@UserNameFromEnvironment@ 0046e994     settings.obj
 0002:000059ac       ??_C@_0O@NAGEBAGM@LocalUserName@ 0046e9ac     settings.obj
 0002:000059bc       ??_C@_05KLMMLKAP@NoPTY@    0046e9bc     settings.obj
 0002:000059c4       ??_C@_0M@COKFBABJ@Compression@ 0046e9c4     settings.obj
 0002:000059d0       ??_C@_08ELDJNHED@TryAgent@ 0046e9d0     settings.obj
 0002:000059dc       ??_C@_08DEDMJEH@AgentFwd@  0046e9dc     settings.obj
 0002:000059e8       ??_C@_09NHHDGKAI@GssapiFwd@ 0046e9e8     settings.obj
 0002:000059f4       ??_C@_0P@GIGKEPFI@ChangeUsername@ 0046e9f4     settings.obj
 0002:00005a04       ??_C@_06GMNODMGL@Cipher@   0046ea04     settings.obj
 0002:00005a0c       ??_C@_03JGJNGHKI@KEX@      0046ea0c     settings.obj
 0002:00005a10       ??_C@_07GAELOIOK@HostKey@  0046ea10     settings.obj
 0002:00005a18       ??_C@_09BMHKJAKC@RekeyTime@ 0046ea18     settings.obj
 0002:00005a24       ??_C@_0M@PFLIKHA@GssapiRekey@ 0046ea24     settings.obj
 0002:00005a30       ??_C@_0L@KEKIPMHA@RekeyBytes@ 0046ea30     settings.obj
 0002:00005a3c       ??_C@_09KOEOFNAD@SshNoAuth@ 0046ea3c     settings.obj
 0002:00005a48       ??_C@_09DKKEANNA@SshBanner@ 0046ea48     settings.obj
 0002:00005a54       ??_C@_07FCPJEOBP@AuthTIS@  0046ea54     settings.obj
 0002:00005a5c       ??_C@_06HELEMNLA@AuthKI@   0046ea5c     settings.obj
 0002:00005a64       ??_C@_0L@CHDFIOCG@AuthGSSAPI@ 0046ea64     settings.obj
 0002:00005a70       ??_C@_0O@IHFFAMNI@AuthGSSAPIKEX@ 0046ea70     settings.obj
 0002:00005a80       ??_C@_07LFMOFKKL@GSSLibs@  0046ea80     settings.obj
 0002:00005a88       ??_C@_09BHJOMFHD@GSSCustom@ 0046ea88     settings.obj
 0002:00005a94       ??_C@_0L@GJCNFDMJ@SshNoShell@ 0046ea94     settings.obj
 0002:00005aa0       ??_C@_07IJKOAEAB@SshProt@  0046eaa0     settings.obj
 0002:00005aa8       ??_C@_07JKMCGKPM@LogHost@  0046eaa8     settings.obj
 0002:00005ab0       ??_C@_07JIBCMKKI@SSH2DES@  0046eab0     settings.obj
 0002:00005ab8       ??_C@_0O@DBKBLPLH@PublicKeyFile@ 0046eab8     settings.obj
 0002:00005ac8       ??_C@_0O@KIBMIAMB@RemoteCommand@ 0046eac8     settings.obj
 0002:00005ad8       ??_C@_0L@EKHPMACB@RFCEnviron@ 0046ead8     settings.obj
 0002:00005ae4       ??_C@_0O@NFKJOOLK@PassiveTelnet@ 0046eae4     settings.obj
 0002:00005af4       ??_C@_0BC@JNJDLGLL@BackspaceIsDelete@ 0046eaf4     settings.obj
 0002:00005b08       ??_C@_0M@IAIPMGHM@RXVTHomeEnd@ 0046eb08     settings.obj
 0002:00005b14       ??_C@_0BC@BBBMIOEA@LinuxFunctionKeys@ 0046eb14     settings.obj
 0002:00005b28       ??_C@_0BC@GFKFPOKF@NoApplicationKeys@ 0046eb28     settings.obj
 0002:00005b3c       ??_C@_0BF@BNOOACFM@NoApplicationCursors@ 0046eb3c     settings.obj
 0002:00005b54       ??_C@_0BB@LKDBJLNO@NoMouseReporting@ 0046eb54     settings.obj
 0002:00005b68       ??_C@_0P@NHOBLDKM@NoRemoteResize@ 0046eb68     settings.obj
 0002:00005b78       ??_C@_0M@NLLEMLGG@NoAltScreen@ 0046eb78     settings.obj
 0002:00005b84       ??_C@_0BB@GFKNAPEB@NoRemoteWinTitle@ 0046eb84     settings.obj
 0002:00005b98       ??_C@_0BE@FPDFACDB@NoRemoteClearScroll@ 0046eb98     settings.obj
 0002:00005bac       ??_C@_0BD@NNAFOHOC@RemoteQTitleAction@ 0046ebac     settings.obj
 0002:00005bc0       ??_C@_0N@CINAKFBC@NoDBackspace@ 0046ebc0     settings.obj
 0002:00005bd0       ??_C@_0BA@GBAEKIHO@NoRemoteCharset@ 0046ebd0     settings.obj
 0002:00005be0       ??_C@_0BG@OMJCNGBD@ApplicationCursorKeys@ 0046ebe0     settings.obj
 0002:00005bf8       ??_C@_0BC@LPJJOBAL@ApplicationKeypad@ 0046ebf8     settings.obj
 0002:00005c0c       ??_C@_0O@ODHLPDBL@NetHackKeypad@ 0046ec0c     settings.obj
 0002:00005c1c       ??_C@_05PNJLCIJH@AltF4@    0046ec1c     settings.obj
 0002:00005c24       ??_C@_08ONDFFNLC@AltSpace@ 0046ec24     settings.obj
 0002:00005c30       ??_C@_07BNCFDEPA@AltOnly@  0046ec30     settings.obj
 0002:00005c38       ??_C@_0L@KHCMDGHF@ComposeKey@ 0046ec38     settings.obj
 0002:00005c44       ??_C@_0M@IALMOGEC@CtrlAltKeys@ 0046ec44     settings.obj
 0002:00005c50       ??_C@_09EOCMDLLC@TelnetKey@ 0046ec50     settings.obj
 0002:00005c5c       ??_C@_09NGJDFNOK@TelnetRet@ 0046ec5c     settings.obj
 0002:00005c68       ??_C@_09KJLHDNO@LocalEcho@ 0046ec68     settings.obj
 0002:00005c74       ??_C@_09DPLIOKMK@LocalEdit@ 0046ec74     settings.obj
 0002:00005c80       ??_C@_0L@BALPGHLA@Answerback@ 0046ec80     settings.obj
 0002:00005c8c       ??_C@_0M@LEOHJBHA@AlwaysOnTop@ 0046ec8c     settings.obj
 0002:00005c98       ??_C@_0BF@EHMMPINK@FullScreenOnAltEnter@ 0046ec98     settings.obj
 0002:00005cb0       ??_C@_0N@LEODHNGP@HideMousePtr@ 0046ecb0     settings.obj
 0002:00005cc0       ??_C@_0L@OGFBKFHD@SunkenEdge@ 0046ecc0     settings.obj
 0002:00005ccc       ??_C@_0N@IABNAJJO@WindowBorder@ 0046eccc     settings.obj
 0002:00005cdc       ??_C@_07FCKKMHHB@CurType@  0046ecdc     settings.obj
 0002:00005ce4       ??_C@_08GKHGBCHI@BlinkCur@ 0046ece4     settings.obj
 0002:00005cf0       ??_C@_04HGDFHEMH@Beep@     0046ecf0     settings.obj
 0002:00005cf8       ??_C@_07CMMEKHFM@BeepInd@  0046ecf8     settings.obj
 0002:00005d00       ??_C@_0N@BJJHCJCA@BellWaveFile@ 0046ed00     settings.obj
 0002:00005d10       ??_C@_0N@IPMNIPGA@BellOverload@ 0046ed10     settings.obj
 0002:00005d20       ??_C@_0O@CDMHMOFM@BellOverloadN@ 0046ed20     settings.obj
 0002:00005d30       ??_C@_0O@JDOKDEIH@BellOverloadT@ 0046ed30     settings.obj
 0002:00005d40       ??_C@_0O@NMKLKCEA@BellOverloadS@ 0046ed40     settings.obj
 0002:00005d50       ??_C@_0BA@MABCDIFL@ScrollbackLines@ 0046ed50     settings.obj
 0002:00005d60       ??_C@_0O@LEEOHPBE@DECOriginMode@ 0046ed60     settings.obj
 0002:00005d70       ??_C@_0N@ILJAOEK@AutoWrapMode@ 0046ed70     settings.obj
 0002:00005d80       ??_C@_0M@FNIJEIEH@LFImpliesCR@ 0046ed80     settings.obj
 0002:00005d8c       ??_C@_0M@BEMAPABH@CRImpliesLF@ 0046ed8c     settings.obj
 0002:00005d98       ??_C@_0BF@JGEFHOEO@DisableArabicShaping@ 0046ed98     settings.obj
 0002:00005db0       ??_C@_0M@NDKNKJNC@DisableBidi@ 0046edb0     settings.obj
 0002:00005dbc       ??_C@_0O@KBKLHJPB@WinNameAlways@ 0046edbc     settings.obj
 0002:00005dcc       ??_C@_08KFMPIOHG@WinTitle@ 0046edcc     settings.obj
 0002:00005dd8       ??_C@_09HBFLKCJM@TermWidth@ 0046edd8     settings.obj
 0002:00005de4       ??_C@_0L@OOPDCIKD@TermHeight@ 0046ede4     settings.obj
 0002:00005df0       ??_C@_04IEDBBIIG@Font@     0046edf0     settings.obj
 0002:00005df8       ??_C@_0M@KJKEBPLJ@FontQuality@ 0046edf8     settings.obj
 0002:00005e04       ??_C@_0L@HFLKBGMB@FontVTMode@ 0046ee04     settings.obj
 0002:00005e10       ??_C@_0BB@FPEGLBEG@UseSystemColours@ 0046ee10     settings.obj
 0002:00005e24       ??_C@_0L@LIPCLLA@TryPalette@ 0046ee24     settings.obj
 0002:00005e30       ??_C@_0L@ICDFAFOH@ANSIColour@ 0046ee30     settings.obj
 0002:00005e3c       ??_C@_0P@GNOFNGDF@Xterm256Colour@ 0046ee3c     settings.obj
 0002:00005e4c       ??_C@_0L@HAGJIDOI@TrueColour@ 0046ee4c     settings.obj
 0002:00005e58       ??_C@_0N@OCJNFBJL@BoldAsColour@ 0046ee58     settings.obj
 0002:00005e68       ??_C@_08INIFNAJK@Colour?$CFd@ 0046ee68     settings.obj
 0002:00005e74       ??_C@_08GDAMKODC@?$CFd?0?$CFd?0?$CFd@ 0046ee74     settings.obj
 0002:00005e80       ??_C@_06BHJNDCHC@RawCNP@   0046ee80     settings.obj
 0002:00005e88       ??_C@_0N@OMCGNKMB@UTF8linedraw@ 0046ee88     settings.obj
 0002:00005e98       ??_C@_08MHJGNOJI@PasteRTF@ 0046ee98     settings.obj
 0002:00005ea4       ??_C@_0N@FIBAMOBA@MouseIsXterm@ 0046eea4     settings.obj
 0002:00005eb4       ??_C@_0L@NFGMPOPM@RectSelect@ 0046eeb4     settings.obj
 0002:00005ec0       ??_C@_0O@PAKNEKAO@PasteControls@ 0046eec0     settings.obj
 0002:00005ed0       ??_C@_0O@HLHLGPKK@MouseOverride@ 0046eed0     settings.obj
 0002:00005ee0       ??_C@_0L@BELKIKMP@Wordness?$CFd@ 0046eee0     settings.obj
 0002:00005eec       ??_C@_0O@MGGEICPL@MouseAutocopy@ 0046eeec     settings.obj
 0002:00005efc       ??_C@_0L@HCAJDALL@MousePaste@ 0046eefc     settings.obj
 0002:00005f08       ??_C@_0N@JOFCEPDE@CtrlShiftIns@ 0046ef08     settings.obj
 0002:00005f18       ??_C@_0M@OFNOIOKM@CtrlShiftCV@ 0046ef18     settings.obj
 0002:00005f24       ??_C@_0N@HAKENDJO@LineCodePage@ 0046ef24     settings.obj
 0002:00005f34       ??_C@_0N@BPNEJBB@CJKAmbigWide@ 0046ef34     settings.obj
 0002:00005f44       ??_C@_0N@PIJCCBHN@UTF8Override@ 0046ef44     settings.obj
 0002:00005f54       ??_C@_07KLNKAJI@Printer@   0046ef54     settings.obj
 0002:00005f5c       ??_C@_0M@MBCMAAJO@CapsLockCyr@ 0046ef5c     settings.obj
 0002:00005f68       ??_C@_09POMGMCPK@ScrollBar@ 0046ef68     settings.obj
 0002:00005f74       ??_C@_0BE@KMIMBHDM@ScrollBarFullScreen@ 0046ef74     settings.obj
 0002:00005f88       ??_C@_0M@JIDFKMDN@ScrollOnKey@ 0046ef88     settings.obj
 0002:00005f94       ??_C@_0N@LCNOKNPE@ScrollOnDisp@ 0046ef94     settings.obj
 0002:00005fa4       ??_C@_0BC@POFKFLGE@EraseToScrollback@ 0046efa4     settings.obj
 0002:00005fb8       ??_C@_08IIIHHPEC@LockSize@ 0046efb8     settings.obj
 0002:00005fc4       ??_C@_03BAHEDIIM@BCE@      0046efc4     settings.obj
 0002:00005fc8       ??_C@_09JKKJKKDF@BlinkText@ 0046efc8     settings.obj
 0002:00005fd4       ??_C@_0L@KCBEKKGN@X11Forward@ 0046efd4     settings.obj
 0002:00005fe0       ??_C@_0L@OJPLDOHH@X11Display@ 0046efe0     settings.obj
 0002:00005fec       ??_C@_0M@JGIOOIKI@X11AuthType@ 0046efec     settings.obj
 0002:00005ff8       ??_C@_0M@MJILCBMB@X11AuthFile@ 0046eff8     settings.obj
 0002:00006004       ??_C@_0BD@JODMNHAM@LocalPortAcceptAll@ 0046f004     settings.obj
 0002:00006018       ??_C@_0BE@NGBGOEKN@RemotePortAcceptAll@ 0046f018     settings.obj
 0002:0000602c       ??_C@_0BA@DEGJFOOK@PortForwardings@ 0046f02c     settings.obj
 0002:0000603c       ??_C@_0L@CKBGAPPJ@BugIgnore1@ 0046f03c     settings.obj
 0002:00006048       ??_C@_0M@FBLBOFAP@BugPlainPW1@ 0046f048     settings.obj
 0002:00006054       ??_C@_07HGKKPJMK@BugRSA1@  0046f054     settings.obj
 0002:0000605c       ??_C@_0L@BDLFMDK@BugIgnore2@ 0046f05c     settings.obj
 0002:00006068       ??_C@_08LMFPGBAG@BugHMAC2@ 0046f068     settings.obj
 0002:00006074       ??_C@_0O@HHCGBINB@BugDeriveKey2@ 0046f074     settings.obj
 0002:00006084       ??_C@_0L@OKCDPKPE@BugRSAPad2@ 0046f084     settings.obj
 0002:00006090       ??_C@_0N@EAJDOHJN@BugPKSessID2@ 0046f090     settings.obj
 0002:000060a0       ??_C@_09FOBJEPJI@BugRekey2@ 0046f0a0     settings.obj
 0002:000060ac       ??_C@_0L@CAKKHIHJ@BugMaxPkt2@ 0046f0ac     settings.obj
 0002:000060b8       ??_C@_0L@EMEJBJOB@BugOldGex2@ 0046f0b8     settings.obj
 0002:000060c4       ??_C@_09FKPNFPBM@BugWinadj@ 0046f0c4     settings.obj
 0002:000060d0       ??_C@_0L@NBODBIIG@BugChanReq@ 0046f0d0     settings.obj
 0002:000060dc       ??_C@_09GFIFOOCP@StampUtmp@ 0046f0dc     settings.obj
 0002:000060e8       ??_C@_0L@ODMMKNII@LoginShell@ 0046f0e8     settings.obj
 0002:000060f4       ??_C@_0BA@JCLCLPLH@ScrollbarOnLeft@ 0046f0f4     settings.obj
 0002:00006104       ??_C@_08ICMGAJHO@BoldFont@ 0046f104     settings.obj
 0002:00006110       ??_C@_08FKENJKAF@WideFont@ 0046f110     settings.obj
 0002:0000611c       ??_C@_0N@HNHKBGGM@WideBoldFont@ 0046f11c     settings.obj
 0002:0000612c       ??_C@_0L@MCFOPLPK@ShadowBold@ 0046f12c     settings.obj
 0002:00006138       ??_C@_0BB@DEENLAPN@ShadowBoldOffset@ 0046f138     settings.obj
 0002:0000614c       ??_C@_0L@IAACJGLI@SerialLine@ 0046f14c     settings.obj
 0002:00006158       ??_C@_0M@IMNKFFDH@SerialSpeed@ 0046f158     settings.obj
 0002:00006164       ??_C@_0P@PNCDCCLH@SerialDataBits@ 0046f164     settings.obj
 0002:00006174       ??_C@_0BD@GNGKCION@SerialStopHalfbits@ 0046f174     settings.obj
 0002:00006188       ??_C@_0N@DLJOCBBM@SerialParity@ 0046f188     settings.obj
 0002:00006198       ??_C@_0BC@BGBNEFKO@SerialFlowControl@ 0046f198     settings.obj
 0002:000061ac       ??_C@_0M@NMEBEKD@WindowClass@ 0046f1ac     settings.obj
 0002:000061b8       ??_C@_0BC@MFEIKFMM@ConnectionSharing@ 0046f1b8     settings.obj
 0002:000061cc       ??_C@_0BK@DFGOFBLA@ConnectionSharingUpstream@ 0046f1cc     settings.obj
 0002:000061e8       ??_C@_0BM@OEKMOMPP@ConnectionSharingDownstream@ 0046f1e8     settings.obj
 0002:00006204       ??_C@_0BC@MKKNGENI@SSHManualHostKeys@ 0046f204     settings.obj
 0002:00006218       ??_C@_07DLHCIBDH@default@  0046f218     settings.obj
 0002:00006220       ??_C@_05COMADJBK@xterm@    0046f220     settings.obj
 0002:00006228       ??_C@_0M@CABGKPOJ@38400?038400@ 0046f228     settings.obj
 0002:00006234       ??_C@_01FHEEJDEE@A@        0046f234     settings.obj
 0002:00006238       ??_C@_01NANMIPIL@N@        0046f238     settings.obj
 0002:0000623c       ??_C@_09BGIKPLGP@ProxyType@ 0046f23c     settings.obj
 0002:00006248       ??_C@_0BC@FOBJKCLC@ProxySOCKSVersion@ 0046f248     settings.obj
 0002:0000625c       ??_C@_0BG@GKDLINPC@connect?5?$CFhost?5?$CFport?2n@ 0046f25c     settings.obj
 0002:00006274       ??_C@_01LOCGONAA@?$AA@     0046f274     settings.obj
 0002:00006278       ??_C@_0DJ@MPKBJJ@ecdh?0dh?9gex?9sha1?0dh?9group14?9sha@ 0046f278     settings.obj
 0002:000062b4       ??_C@_0DJ@EABHHLNC@ecdh?0dh?9group14?9sha1?0rsa?0WARN?0d@ 0046f2b4     settings.obj
 0002:000062f0       ??_C@_09EEOEPHII@BugDHGEx2@ 0046f2f0     settings.obj
 0002:000062fc       ??_C@_1BI@INPKPAKF@?$AAr?$AAa?$AAw?$AA?5?$AA?$CB?$AA?$DN?$AA?5?$AAN?$AAU?$AAL?$AAL@ 0046f2fc     settings.obj
 0002:00006314       ??_C@_0DE@IBDFHALG@dh?9group14?9sha1?0dh?9group1?9sha1?0@ 0046f314     settings.obj
 0002:00006348       ??_C@_0DE@HLPMGGDH@dh?9gex?9sha1?0dh?9group14?9sha1?0dh?9@ 0046f348     settings.obj
 0002:0000637c       ??_C@_0BL@KMNDLLJK@ed25519?0ecdsa?0rsa?0dsa?0WARN@ 0046f37c     settings.obj
 0002:00006398       ??_C@_02JKCPHAII@1G@       0046f398     settings.obj
 0002:0000639c       ??_C@_0P@LJKHKCJK@NoRemoteQTitle@ 0046f39c     settings.obj
 0002:000063ac       ??_C@_05DHCCMBJA@PuTTY@    0046f3ac     settings.obj
 0002:000063b4       ??_C@_08GBHCOLMC@BuggyMAC@ 0046f3b4     settings.obj
 0002:000063c0       ??_C@_0BB@PMGECFAG@Default?5Settings@ 0046f3c0     settings.obj
 0002:000063f8       ??_C@_0BH@MEKFPJGG@unexpected?5OK?5response@ 0046f3f8     sftp.obj
 0002:00006410       ??_C@_0M@IDJOOACD@end?5of?5file@ 0046f410     sftp.obj
 0002:0000641c       ??_C@_0BK@NDOCBPGE@no?5such?5file?5or?5directory@ 0046f41c     sftp.obj
 0002:00006438       ??_C@_0BC@CIJDGCDI@permission?5denied@ 0046f438     sftp.obj
 0002:0000644c       ??_C@_07MBLPHJFH@failure@  0046f44c     sftp.obj
 0002:00006454       ??_C@_0M@PMMIEFCP@bad?5message@ 0046f454     sftp.obj
 0002:00006460       ??_C@_0O@EFMNOFHN@no?5connection@ 0046f460     sftp.obj
 0002:00006470       ??_C@_0BA@CHAAGJKB@connection?5lost@ 0046f470     sftp.obj
 0002:00006480       ??_C@_0BG@HIGMDFMO@operation?5unsupported@ 0046f480     sftp.obj
 0002:00006498       ??_C@_1BE@MOJIBJKE@?$AA?4?$AA?4?$AA?2?$AAs?$AAf?$AAt?$AAp?$AA?4?$AAc@ 0046f498     sftp.obj
 0002:000064b0       ??_C@_1GC@BPHOKDPD@?$AAN?$AAU?$AAL?$AAL?$AA?5?$AA?$DN?$AA?$DN?$AA?5?$AAf?$AAi?$AAn?$AAd?$AA2?$AA3?$AA4@ 0046f4b0     sftp.obj
 0002:00006514       ??_C@_0CF@NIOKEKLL@did?5not?5receive?5a?5valid?5SFTP?5pa@ 0046f514     sftp.obj
 0002:0000653c       ??_C@_0BF@NKHOFAM@request?5ID?5mismatch?6@ 0046f53c     sftp.obj
 0002:00006554       ??_C@_0BL@ECIJKKOL@expected?5FXP_STATUS?5packet@ 0046f554     sftp.obj
 0002:00006570       ??_C@_0BM@MNGOPDFD@malformed?5FXP_STATUS?5packet@ 0046f570     sftp.obj
 0002:0000658c       ??_C@_0BD@KFLAIOGJ@unknown?5error?5code@ 0046f58c     sftp.obj
 0002:000065a0       ??_C@_0BC@OBHFAANF@could?5not?5connect@ 0046f5a0     sftp.obj
 0002:000065b4       ??_C@_0BM@EKNANIOJ@did?5not?5receive?5FXP_VERSION@ 0046f5b4     sftp.obj
 0002:000065d0       ??_C@_0BN@BFEAMPBL@malformed?5FXP_VERSION?5packet@ 0046f5d0     sftp.obj
 0002:000065f0       ??_C@_0DB@DKEFLDEL@remote?5protocol?5is?5more?5advance@ 0046f5f0     sftp.obj
 0002:00006624       ??_C@_0CJ@CHLGLDNK@REALPATH?5did?5not?5return?5name?5co@ 0046f624     sftp.obj
 0002:00006650       ??_C@_0CG@OEAFCPKG@REALPATH?5returned?5malformed?5FXP@ 0046f650     sftp.obj
 0002:00006678       ??_C@_0BO@BMBDHEPD@received?5malformed?5FXP_HANDLE@ 0046f678     sftp.obj
 0002:00006698       ??_C@_0BP@IEALGBMG@malformed?5SSH_FXP_ATTRS?5packet@ 0046f698     sftp.obj
 0002:000066b8       ??_C@_0CM@HCLNKABL@READ?5returned?5malformed?5SSH_FXP@ 0046f6b8     sftp.obj
 0002:000066e4       ??_C@_0CI@EHDIHHKI@READ?5returned?5more?5bytes?5than?5r@ 0046f6e4     sftp.obj
 0002:0000670c       ??_C@_0BK@BNJGEBNE@malformed?5FXP_NAME?5packet@ 0046f70c     sftp.obj
 0002:00006728       ??_C@_0CD@GJDBKENL@unreasonably?5large?5FXP_NAME?5pac@ 0046f728     sftp.obj
 0002:0000674c       ??_C@_0CP@MAHLIIBK@request?5ID?5is?5not?5part?5of?5the?5c@ 0046f74c     sftp.obj
 0002:0000677c       ??_C@_0DG@MNLJKCBN@received?5a?5short?5buffer?5from?5FX@ 0046f77c     sftp.obj
 0002:000067b4       ??_C@_0CN@MIJGCJMO@request?5ID?5is?5not?5part?5of?5the?5c@ 0046f7b4     sftp.obj
 0002:000067e8       _no_attrs                  0046f7e8     sftpcommon.obj
 0002:00006810       ??_C@_1CA@JOFEEKOG@?$AA?4?$AA?4?$AA?2?$AAs?$AAf?$AAt?$AAp?$AAc?$AAo?$AAm?$AAm?$AAo?$AAn?$AA?4?$AAc@ 0046f810     sftpcommon.obj
 0002:00006830       ??_C@_1EI@JOJHJBKB@?$AAl?$AAe?$AAn?$AAg?$AAt?$AAh?$AA?5?$AA?$DM?$AA?$DN?$AA?5?$AA0?$AAx?$AAF?$AAF?$AAF@ 0046f830     sftpcommon.obj
 0002:00006878       _ssh_backend               0046f878     ssh.obj
 0002:000068d8       ??_C@_03FMKCBIDH@ssh@      0046f8d8     ssh.obj
 0002:000068dc       ??_C@_1BC@LPFNKHFH@?$AA?4?$AA?4?$AA?2?$AAs?$AAs?$AAh?$AA?4?$AAc@ 0046f8dc     ssh.obj
 0002:000068f0       ??_C@_1DM@JCOBHOGK@?$AAs?$AAs?$AAh?$AA?9?$AA?$DO?$AAv?$AAe?$AAr?$AAs?$AAi?$AAo?$AAn?$AA?5?$AA?$DN?$AA?$DN@ 0046f8f0     ssh.obj
 0002:0000692c       ??_C@_1CG@HCKPIONF@?$AAs?$AAs?$AAh?$AA?9?$AA?$DO?$AAg?$AAs?$AAs?$AA_?$AAs?$AAt?$AAa?$AAt?$AAe?$AA?4@ 0046f92c     ssh.obj
 0002:00006954       ??_C@_0CO@FHIPNKID@Reusing?5a?5shared?5connection?5to?5@ 0046f954     ssh.obj
 0002:00006984       ??_C@_0P@OGAGIFE@SSH?5connection@ 0046f984     ssh.obj
 0002:00006994       ??_C@_1DK@PDHAMBLG@?$AAs?$AAs?$AAh?$AAp?$AAr?$AAo?$AAt?$AA?5?$AA?$DN?$AA?$DN?$AA?5?$AA0?$AA?5?$AA?$HM?$AA?$HM@ 0046f994     ssh.obj
 0002:000069d0       ??_C@_03GJAMENNA@2?40@     0046f9d0     ssh.obj
 0002:000069d4       ??_C@_1DM@ICDCJA@?$AAs?$AAs?$AAh?$AA?9?$AA?$DO?$AAc?$AAo?$AAn?$AAn?$AA_?$AAt?$AAh?$AAr?$AAo?$AAt@ 0046f9d4     ssh.obj
 0002:00006a28       ??_C@_1BK@BKMHHPIF@?$AA?4?$AA?4?$AA?2?$AAs?$AAs?$AAh?$AA1?$AAb?$AAp?$AAp?$AA?4?$AAc@ 0046fa28     ssh1bpp.obj
 0002:00006a44       ??_C@_1DI@FMCFLIEP@?$AAb?$AAp?$AAp?$AA?9?$AA?$DO?$AAv?$AAt?$AA?5?$AA?$DN?$AA?$DN?$AA?5?$AA?$CG?$AAs?$AAs?$AAh@ 0046fa44     ssh1bpp.obj
 0002:00006a7c       ??_C@_1BM@LAGDBEBO@?$AA?$CB?$AAs?$AA?9?$AA?$DO?$AAc?$AAi?$AAp?$AAh?$AAe?$AAr?$AA_?$AAi?$AAn@ 0046fa7c     ssh1bpp.obj
 0002:00006a98       ??_C@_1BO@IFLIJHNF@?$AA?$CB?$AAs?$AA?9?$AA?$DO?$AAc?$AAi?$AAp?$AAh?$AAe?$AAr?$AA_?$AAo?$AAu?$AAt@ 0046fa98     ssh1bpp.obj
 0002:00006ab8       ??_C@_1BM@CHPAMMAC@?$AA?$CB?$AAs?$AA?9?$AA?$DO?$AAc?$AAr?$AAc?$AAd?$AAa?$AA_?$AAc?$AAt?$AAx@ 0046fab8     ssh1bpp.obj
 0002:00006ad4       ??_C@_0BK@MMAMGDDL@Initialised?5?$CFs?5encryption@ 0046fad4     ssh1bpp.obj
 0002:00006af0       ??_C@_1EC@EIPIILIJ@?$AAc?$AAi?$AAp?$AAh?$AAe?$AAr?$AA?9?$AA?$DO?$AAb?$AAl?$AAk?$AAs?$AAi?$AAz?$AAe@ 0046faf0     ssh1bpp.obj
 0002:00006b34       ??_C@_1BI@NNNONCKI@?$AA?$CB?$AAs?$AA?9?$AA?$DO?$AAc?$AAo?$AAm?$AAp?$AAc?$AAt?$AAx@ 0046fb34     ssh1bpp.obj
 0002:00006b4c       ??_C@_1BM@PNFNBCNM@?$AA?$CB?$AAs?$AA?9?$AA?$DO?$AAd?$AAe?$AAc?$AAo?$AAm?$AAp?$AAc?$AAt?$AAx@ 0046fb4c     ssh1bpp.obj
 0002:00006b68       ??_C@_0CD@EPBMFMLD@Started?5zlib?5?$CIRFC1950?$CJ?5compress@ 0046fb68     ssh1bpp.obj
 0002:00006b90       ??_C@_0EH@EICCKJGA@Out?9of?9range?5packet?5length?5from@ 0046fb90     ssh1bpp.obj
 0002:00006bd8       ??_C@_0CM@ONOGIJID@Network?5attack?5?$CICRC?5compensatio@ 0046fbd8     ssh1bpp.obj
 0002:00006c04       ??_C@_1BO@NPPKKDLH@?$AAs?$AA?9?$AA?$DO?$AAb?$AAi?$AAg?$AAl?$AAe?$AAn?$AA?5?$AA?$DO?$AA?$DN?$AA?5?$AA8@ 0046fc04     ssh1bpp.obj
 0002:00006c24       ??_C@_0CB@NDPIGBGP@Incorrect?5CRC?5received?5on?5packe@ 0046fc24     ssh1bpp.obj
 0002:00006c48       ??_C@_0CM@OBCNCOIA@Zlib?5decompression?5encountered?5@ 0046fc48     ssh1bpp.obj
 0002:00006c74       ??_C@_0DD@MHPKBFHH@Remote?5side?5unexpectedly?5closed@ 0046fc74     ssh1bpp.obj
 0002:00006ca8       ??_C@_0CG@PKCOFJKH@Remote?5side?5closed?5network?5conn@ 0046fca8     ssh1bpp.obj
 0002:00006da4       ??_C@_1CI@HHJKPPLC@?$AA?4?$AA?4?$AA?2?$AAs?$AAs?$AAh?$AA1?$AAc?$AAo?$AAn?$AAn?$AAe?$AAc?$AAt?$AAi@ 0046fda4     ssh1connection.obj
 0002:00006dd0       ??_C@_1EG@IPFAHPPH@?$AAp?$AAp?$AAl?$AA?9?$AA?$DO?$AAv?$AAt?$AA?5?$AA?$DN?$AA?$DN?$AA?5?$AA?$CG?$AAs?$AAs?$AAh@ 0046fdd0     ssh1connection.obj
 0002:00006e18       ??_C@_0M@LKCCPDMK@nonexistent@ 0046fe18     ssh1connection.obj
 0002:00006e24       ??_C@_09IEHCJDML@half?9open@ 0046fe24     ssh1connection.obj
 0002:00006e30       ??_C@_0BO@FNGJIAKB@Received?5?$CFs?5for?5?$CFs?5channel?5?$CFu@ 0046fe30     ssh1connection.obj
 0002:00006e50       ??_C@_1BI@EMDFBGGA@?$AAc?$AA?9?$AA?$DO?$AAh?$AAa?$AAl?$AAf?$AAo?$AAp?$AAe?$AAn@ 0046fe50     ssh1connection.obj
 0002:00006e68       ??_C@_0FK@CKODJBNF@Received?5CHANNEL_CLOSE_CONFIRMA@ 0046fe68     ssh1connection.obj
 0002:00006ec4       ??_C@_0BK@OJHOFMHH@Authentication?5successful@ 0046fec4     ssh1connection.obj
 0002:00006ee0       ??_C@_0DA@BJCENIDN@Access?5granted?4?5Press?5Return?5to@ 0046fee0     ssh1connection.obj
 0002:00006f10       ??_C@_0CJ@IHMILJJ@Unexpected?5packet?5received?0?5typ@ 0046ff10     ssh1connection.obj
 0002:00006f3c       ??_C@_1BO@INKKBANN@?$AAc?$AA?9?$AA?$DO?$AAp?$AAe?$AAn?$AAd?$AAi?$AAn?$AAg?$AA_?$AAe?$AAo?$AAf@ 0046ff3c     ssh1connection.obj
 0002:00006f5c       ??_C@_01CLKCMJKC@?5@       0046ff5c     ssh1connection.obj
 0002:00006f60       ??_C@_0BB@GIDHIKLL@Session?5finished@ 0046ff60     ssh1connection.obj
 0002:00006f74       ??_C@_0BH@DNMBHCDJ@due?5to?5local?5error?3?5?$CFs@ 0046ff74     ssh1connection.obj
 0002:00006f90       ??_C@_1EC@EJLKAAI@?$AA?$CB?$AA?$CI?$AAc?$AA?9?$AA?$DO?$AAc?$AAl?$AAo?$AAs?$AAe?$AAs?$AA?5?$AA?$CG?$AA?5?$AAC@ 0046ff90     ssh1connection.obj
 0002:00006fd4       ??_C@_0CD@BOHMBDGD@Opening?5connection?5to?5?$CFs?3?$CFd?5for@ 0046ffd4     ssh1connection.obj
 0002:0000704c       ??_C@_0CI@FJMANKPK@Received?5?$CFs?5with?5no?5outstanding@ 0047004c     ssh1connection-client.obj
 0002:00007074       ??_C@_0BN@ICJOFFCI@Rejected?5X11?5connect?5request@ 00470074     ssh1connection-client.obj
 0002:00007094       ??_C@_0BL@PENAMJAF@Opened?5X11?5forward?5channel@ 00470094     ssh1connection-client.obj
 0002:000070b0       ??_C@_0CM@ILAFDJEP@Rejected?5remote?5port?5open?5reque@ 004700b0     ssh1connection-client.obj
 0002:000070dc       ??_C@_0CM@EBDODNHE@Received?5remote?5port?5open?5reque@ 004700dc     ssh1connection-client.obj
 0002:00007108       ??_C@_0BF@CNMNNBHC@Port?5open?5failed?3?5?$CFs@ 00470108     ssh1connection-client.obj
 0002:00007120       ??_C@_0CD@DHNJHFLP@Forwarded?5port?5opened?5successfu@ 00470120     ssh1connection-client.obj
 0002:00007144       ??_C@_0CD@DDJGPENM@Server?5sent?5command?5exit?5status@ 00470144     ssh1connection-client.obj
 0002:00007168       ??_C@_0CH@OIAECCL@Remote?5port?5forwarding?5from?5?$CFs?5@ 00470168     ssh1connection-client.obj
 0002:00007190       ??_C@_0CH@LNEGBCAA@Remote?5port?5forwarding?5from?5?$CFs?5@ 00470190     ssh1connection-client.obj
 0002:000071b8       ??_C@_1DG@PFGFCBKG@?$AA?4?$AA?4?$AA?2?$AAs?$AAs?$AAh?$AA1?$AAc?$AAo?$AAn?$AAn?$AAe?$AAc?$AAt?$AAi@ 004701b8     ssh1connection-client.obj
 0002:000071f0       ??_C@_1BM@FHEGKCJN@?$AAr?$AAe?$AAa?$AAl?$AAp?$AAf?$AA?5?$AA?$DN?$AA?$DN?$AA?5?$AAr?$AAp?$AAf@ 004701f0     ssh1connection-client.obj
 0002:00007210       ??_C@_1GA@CPKLDNIP@?$AAf?$AAa?$AAl?$AAs?$AAe?$AA?5?$AA?$CG?$AA?$CG?$AA?5?$AA?$CC?$AAS?$AAh?$AAo?$AAu?$AAl@ 00470210     ssh1connection-client.obj
 0002:00007290       ??_C@_0BP@IGKLADLI@Public?5key?5packet?5not?5received@ 00470290     ssh1login.obj
 0002:000072b0       ??_C@_0BF@OIEJEBFE@Received?5public?5keys@ 004702b0     ssh1login.obj
 0002:000072c8       ??_C@_0BJ@JJNAKBGD@Host?5key?5fingerprint?5is?3@ 004702c8     ssh1login.obj
 0002:000072e4       ??_C@_08PBAHBJAK@?5?5?5?5?5?5?$CFs@ 004702e4     ssh1login.obj
 0002:000072f0       ??_C@_0BM@KGHNKMGE@Bad?5SSH?91?5public?5key?5packet@ 004702f0     ssh1login.obj
 0002:0000730c       ??_C@_0CH@IHLPIDPD@SSH?91?5public?5keys?5were?5badly?5fo@ 0047030c     ssh1login.obj
 0002:00007334       ??_C@_0DE@NALLKIBP@Host?5key?5did?5not?5appear?5in?5manu@ 00470334     ssh1login.obj
 0002:00007368       ??_C@_0CG@EHHEHPCC@User?5aborted?5at?5host?5key?5verifi@ 00470368     ssh1login.obj
 0002:00007390       ??_C@_0DK@PACBCMIN@SSH?91?5public?5key?5encryptions?5fa@ 00470390     ssh1login.obj
 0002:000073cc       ??_C@_0BG@FILKDMEH@Encrypted?5session?5key@ 004703cc     ssh1login.obj
 0002:000073e4       ??_C@_0CF@HHJELONP@AES?5not?5supported?5in?5SSH?91?0?5ski@ 004703e4     ssh1login.obj
 0002:0000740c       ??_C@_04CMONEEGC@3DES@     0047040c     ssh1login.obj
 0002:00007414       ??_C@_08KOMAHJJD@Blowfish@ 00470414     ssh1login.obj
 0002:00007420       ??_C@_0L@EOAKHLNE@single?9DES@ 00470420     ssh1login.obj
 0002:00007430       ??_C@_0EB@CHIJKDPJ@Server?5violates?5SSH?91?5protocol?5@ 00470430     ssh1login.obj
 0002:00007474       ??_C@_0BL@PIIHPKCJ@No?5supported?5ciphers?5found@ 00470474     ssh1login.obj
 0002:00007490       ??_C@_06KDGDAFPH@cipher@   00470490     ssh1login.obj
 0002:00007498       ??_C@_0BP@GEALDMIJ@User?5aborted?5at?5cipher?5warning@ 00470498     ssh1login.obj
 0002:000074b8       ??_C@_0BG@DIGLDGJI@Using?53DES?5encryption@ 004704b8     ssh1login.obj
 0002:000074d0       ??_C@_0BM@BBOEIGCF@Using?5single?9DES?5encryption@ 004704d0     ssh1login.obj
 0002:000074ec       ??_C@_0BK@EIKCDDM@Using?5Blowfish?5encryption@ 004704ec     ssh1login.obj
 0002:00007508       ??_C@_0BP@LBBLLFBK@Trying?5to?5enable?5encryption?4?4?4@ 00470508     ssh1login.obj
 0002:00007528       ??_C@_0CE@FJPBFBDG@Encryption?5not?5successfully?5ena@ 00470528     ssh1login.obj
 0002:0000754c       ??_C@_0CA@JFEIDIEE@Successfully?5started?5encryption@ 0047054c     ssh1login.obj
 0002:0000756c       ??_C@_0P@LPKBKFIB@SSH?5login?5name@ 0047056c     ssh1login.obj
 0002:0000757c       ??_C@_0L@KEHJGFAJ@login?5as?3?5@ 0047057c     ssh1login.obj
 0002:00007588       ??_C@_0BF@IGAMAODP@No?5username?5provided@ 00470588     ssh1login.obj
 0002:000075a0       ??_C@_0BD@NJNGFMAH@Sent?5username?5?$CC?$CFs?$CC@ 004705a0     ssh1login.obj
 0002:000075b4       ??_C@_0BF@NPKLCJBH@Sent?5username?5?$CC?$CFs?$CC?$AN?6@ 004705b4     ssh1login.obj
 0002:000075cc       ??_C@_0BG@BKDHKDOL@Reading?5key?5file?5?$CC?$CFs?$CC@ 004705cc     ssh1login.obj
 0002:000075e4       ??_C@_0CC@JMJFIJAG@Key?5file?5contains?5public?5key?5on@ 004705e4     ssh1login.obj
 0002:00007608       ??_C@_0BI@NGIDAILF@Unable?5to?5load?5key?5?$CI?$CFs?$CJ@ 00470608     ssh1login.obj
 0002:00007620       ??_C@_0CE@BAMFPOLN@Unable?5to?5load?5key?5file?5?$CC?$CFs?$CC?5?$CI?$CF@ 00470620     ssh1login.obj
 0002:00007644       ??_C@_0CB@DPBNKMOI@Unable?5to?5use?5this?5key?5file?5?$CI?$CFs@ 00470644     ssh1login.obj
 0002:00007668       ??_C@_0CD@KDDMHNCB@Unable?5to?5use?5key?5file?5?$CC?$CFs?$CC?5?$CI?$CFs@ 00470668     ssh1login.obj
 0002:0000768c       ??_C@_0CF@IBMJOGJN@Pageant?5is?5running?4?5Requesting?5@ 0047068c     ssh1login.obj
 0002:000076b4       ??_C@_0CH@PCABEGHD@Pageant?5reported?5negative?5key?5c@ 004706b4     ssh1login.obj
 0002:000076dc       ??_C@_0BK@ECGNFPIC@Pageant?5has?5?$CFd?5SSH?91?5keys@ 004706dc     ssh1login.obj
 0002:000076f8       ??_C@_0CG@OCNDCPM@Pageant?5key?5list?5packet?5was?5tru@ 004706f8     ssh1login.obj
 0002:00007720       ??_C@_0CM@BFAHCAOE@Pageant?5key?5?$CD?$CFd?5matches?5configu@ 00470720     ssh1login.obj
 0002:0000774c       ??_C@_0BH@OPACOADI@Trying?5Pageant?5key?5?$CD?$CFd@ 0047074c     ssh1login.obj
 0002:00007764       ??_C@_0M@ICJGOCKI@Key?5refused@ 00470764     ssh1login.obj
 0002:00007770       ??_C@_0BH@JDPJLPMF@Received?5RSA?5challenge@ 00470770     ssh1login.obj
 0002:00007788       ??_C@_0CL@IOPHBKK@Server?8s?5RSA?5challenge?5was?5badl@ 00470788     ssh1login.obj
 0002:000077b4       ??_C@_0BL@ODHDGAK@Sending?5Pageant?8s?5response@ 004707b4     ssh1login.obj
 0002:000077d0       ??_C@_0BM@OOOCBPA@Pageant?8s?5response?5accepted@ 004707d0     ssh1login.obj
 0002:000077ec       ??_C@_0DA@GMADANLM@Authenticated?5using?5RSA?5key?5?$CC?$CF?4@ 004707ec     ssh1login.obj
 0002:0000781c       ??_C@_0CA@HCMDLEPO@Pageant?8s?5response?5not?5accepted@ 0047081c     ssh1login.obj
 0002:0000783c       ??_C@_0CD@FAHGKLDL@Pageant?5failed?5to?5answer?5challe@ 0047083c     ssh1login.obj
 0002:00007860       ??_C@_0BP@CCFNIMAJ@No?5reply?5received?5from?5Pageant@ 00470860     ssh1login.obj
 0002:00007880       ??_C@_0CD@CDGGMNPN@Configured?5key?5file?5not?5in?5Page@ 00470880     ssh1login.obj
 0002:000078a4       ??_C@_0CB@BBHJNDBI@Failed?5to?5get?5reply?5from?5Pagean@ 004708a4     ssh1login.obj
 0002:000078c8       ??_C@_0CE@IEHJDBPN@Trying?5public?5key?5authenticatio@ 004708c8     ssh1login.obj
 0002:000078ec       ??_C@_0BH@BLHJIOHH@Trying?5public?5key?5?$CC?$CFs?$CC@ 004708ec     ssh1login.obj
 0002:00007904       ??_C@_0BK@PCDHHOPE@No?5passphrase?5required?4?$AN?6@ 00470904     ssh1login.obj
 0002:00007920       ??_C@_0BD@NGECALDL@SSH?5key?5passphrase@ 00470920     ssh1login.obj
 0002:00007934       ??_C@_0BK@CGPKBALG@Passphrase?5for?5key?5?$CC?$CFs?$CC?3?5@ 00470934     ssh1login.obj
 0002:00007950       ??_C@_0CC@NGMFJOKP@User?5aborted?5at?5passphrase?5prom@ 00470950     ssh1login.obj
 0002:00007974       ??_C@_0CK@JGBFLJH@Couldn?8t?5load?5private?5key?5from?5@ 00470974     ssh1login.obj
 0002:000079a0       ??_C@_0BE@BGMEGCKP@Wrong?5passphrase?4?$AN?6@ 004709a0     ssh1login.obj
 0002:000079b4       ??_C@_1BO@GHIBJOHG@?$AA?4?$AA?4?$AA?2?$AAs?$AAs?$AAh?$AA1?$AAl?$AAo?$AAg?$AAi?$AAn?$AA?4?$AAc@ 004709b4     ssh1login.obj
 0002:000079d8       ??_C@_1GK@GMHEEBBI@?$AAf?$AAa?$AAl?$AAs?$AAe?$AA?5?$AA?$CG?$AA?$CG?$AA?5?$AA?$CC?$AAu?$AAn?$AAe?$AAx?$AAp@ 004709d8     ssh1login.obj
 0002:00007a44       ??_C@_0CB@CLLCFHG@Server?5refused?5our?5public?5key?4?$AN@ 00470a44     ssh1login.obj
 0002:00007a68       ??_C@_0EM@KPKHHAFL@Received?5unexpected?5packet?5in?5r@ 00470a68     ssh1login.obj
 0002:00007ab4       ??_C@_0CO@LGDBEPGH@Failed?5to?5authenticate?5with?5our@ 00470ab4     ssh1login.obj
 0002:00007ae8       ??_C@_0EL@KPOIOADP@Received?5unexpected?5packet?5in?5r@ 00470ae8     ssh1login.obj
 0002:00007b34       ??_C@_0BN@GPBLAKNN@Requested?5TIS?5authentication@ 00470b34     ssh1login.obj
 0002:00007b54       ??_C@_0BM@OJKDEMHM@TIS?5authentication?5declined@ 00470b54     ssh1login.obj
 0002:00007b70       ??_C@_0BO@BFHGKFG@TIS?5authentication?5refused?4?$AN?6@ 00470b70     ssh1login.obj
 0002:00007b90       ??_C@_0CG@HNFFOLPD@TIS?5challenge?5packet?5was?5badly?5@ 00470b90     ssh1login.obj
 0002:00007bb8       ??_C@_0BH@FEAEHOM@Received?5TIS?5challenge@ 00470bb8     ssh1login.obj
 0002:00007bd0       ??_C@_0BH@FDBBBFIP@SSH?5TIS?5authentication@ 00470bd0     ssh1login.obj
 0002:00007be8       ??_C@_0FB@MEJIGENG@?9?9?5TIS?5authentication?5challenge@ 00470be8     ssh1login.obj
 0002:00007c40       ??_C@_0FB@NAOBEBF@?9?9?5End?5of?5TIS?5authentication?5ch@ 00470c40     ssh1login.obj
 0002:00007c94       ??_C@_0BO@LFMDMOOG@TIS?5authentication?5response?3?5@ 00470c94     ssh1login.obj
 0002:00007cb8       ??_C@_0EL@CMPOIJAP@Received?5unexpected?5packet?5in?5r@ 00470cb8     ssh1login.obj
 0002:00007d04       ??_C@_0CE@EIJKKNAA@Requested?5CryptoCard?5authentica@ 00470d04     ssh1login.obj
 0002:00007d28       ??_C@_0CD@OINBDJMD@CryptoCard?5authentication?5decli@ 00470d28     ssh1login.obj
 0002:00007d4c       ??_C@_0CF@ECGFFMOA@CryptoCard?5authentication?5refus@ 00470d4c     ssh1login.obj
 0002:00007d74       ??_C@_0CN@PAJOCAIE@CryptoCard?5challenge?5packet?5was@ 00470d74     ssh1login.obj
 0002:00007da4       ??_C@_0BO@JIIBOJDP@Received?5CryptoCard?5challenge@ 00470da4     ssh1login.obj
 0002:00007dc4       ??_C@_0BO@POBNLKGI@SSH?5CryptoCard?5authentication@ 00470dc4     ssh1login.obj
 0002:00007de8       ??_C@_0FB@NLGIAHJH@?9?9?5CryptoCard?5authentication?5ch@ 00470de8     ssh1login.obj
 0002:00007e40       ??_C@_0FB@JICKFAAA@?9?9?5End?5of?5CryptoCard?5authentica@ 00470e40     ssh1login.obj
 0002:00007e94       ??_C@_0CF@PGPBPIFA@CryptoCard?5authentication?5respo@ 00470e94     ssh1login.obj
 0002:00007ebc       ??_C@_0CO@HODBELPK@No?5supported?5authentication?5met@ 00470ebc     ssh1login.obj
 0002:00007eec       ??_C@_0N@OOHPIOHK@SSH?5password@ 00470eec     ssh1login.obj
 0002:00007efc       ??_C@_0BD@POAFHOBP@?$CFs?$EA?$CFs?8s?5password?3?5@ 00470efc     ssh1login.obj
 0002:00007f10       ??_C@_0CA@NPFHNKGM@User?5aborted?5at?5password?5prompt@ 00470f10     ssh1login.obj
 0002:00007f30       ??_C@_1EA@LDCCOPO@?$AAp?$AAw?$AAl?$AAe?$AAn?$AA?5?$AA?$DO?$AA?$DN?$AA?5?$AAb?$AAo?$AAt?$AAt?$AAo?$AAm@ 00470f30     ssh1login.obj
 0002:00007f70       ??_C@_0CJ@IMGIIIOC@Sending?5password?5with?5camouflag@ 00470f70     ssh1login.obj
 0002:00007f9c       ??_C@_0BP@LFCLHOKO@Sending?5length?9padded?5password@ 00470f9c     ssh1login.obj
 0002:00007fbc       ??_C@_0BK@CNMFNDPA@Sending?5unpadded?5password@ 00470fbc     ssh1login.obj
 0002:00007fd8       ??_C@_0O@GELAIDLK@Sent?5password@ 00470fd8     ssh1login.obj
 0002:00007fe8       ??_C@_0BA@CCGPKPCP@Access?5denied?$AN?6@ 00470fe8     ssh1login.obj
 0002:00007ff8       ??_C@_0BH@IOHDNACM@Authentication?5refused@ 00470ff8     ssh1login.obj
 0002:00008010       ??_C@_0FA@PHBIEDLI@Received?5unexpected?5packet?5in?5r@ 00471010     ssh1login.obj
 0002:00008060       ??_C@_0BH@PMIFFGCE@Requesting?5compression@ 00471060     ssh1login.obj
 0002:00008078       ??_C@_0CF@LBOAIGDJ@Server?5refused?5to?5enable?5compre@ 00471078     ssh1login.obj
 0002:000080a0       ??_C@_0BN@KMIOBKOG@Server?5refused?5to?5compress?$AN?6@ 004710a0     ssh1login.obj
 0002:000080c0       ??_C@_0EM@EJDIFJK@Received?5unexpected?5packet?5in?5r@ 004710c0     ssh1login.obj
 0002:00008124       ??_C@_1BK@GGKGFKFO@?$AA?4?$AA?4?$AA?2?$AAs?$AAs?$AAh?$AA2?$AAb?$AAp?$AAp?$AA?4?$AAc@ 00471124     ssh2bpp.obj
 0002:00008140       ??_C@_1DI@KOHCFFLH@?$AAb?$AAp?$AAp?$AA?9?$AA?$DO?$AAv?$AAt?$AA?5?$AA?$DN?$AA?$DN?$AA?5?$AA?$CG?$AAs?$AAs?$AAh@ 00471140     ssh2bpp.obj
 0002:00008178       ??_C@_0CD@LFFGPBIM@Initialised?5?$CFs?5outbound?5encrypt@ 00471178     ssh2bpp.obj
 0002:0000819c       ??_C@_0BG@GCEIBAMJ@?5?$CIrequired?5by?5cipher?$CJ@ 0047119c     ssh2bpp.obj
 0002:000081b4       ??_C@_0P@KLFDHMEN@?5?$CIin?5ETM?5mode?$CJ@ 004711b4     ssh2bpp.obj
 0002:000081c4       ??_C@_0CK@KPNDNIMF@Initialised?5?$CFs?5outbound?5MAC?5alg@ 004711c4     ssh2bpp.obj
 0002:000081f0       ??_C@_0DF@KOHDJCHF@Will?5enable?5?$CFs?5compression?5afte@ 004711f0     ssh2bpp.obj
 0002:00008228       ??_C@_0BL@CPEFOEDE@Initialised?5?$CFs?5compression@ 00471228     ssh2bpp.obj
 0002:00008244       ??_C@_0CC@KJKCEPCB@Initialised?5?$CFs?5inbound?5encrypti@ 00471244     ssh2bpp.obj
 0002:00008268       ??_C@_0CJ@OBEAGNE@Initialised?5?$CFs?5inbound?5MAC?5algo@ 00471268     ssh2bpp.obj
 0002:00008294       ??_C@_0DH@HOCDGNJB@Will?5enable?5?$CFs?5decompression?5af@ 00471294     ssh2bpp.obj
 0002:000082cc       ??_C@_0BN@ENMJAIOE@Initialised?5?$CFs?5decompression@ 004712cc     ssh2bpp.obj
 0002:000082ec       ??_C@_0CF@NDMNGDOI@Initialised?5delayed?5?$CFs?5decompre@ 004712ec     ssh2bpp.obj
 0002:00008314       ??_C@_0CD@GBGEDGKL@Initialised?5delayed?5?$CFs?5compress@ 00471314     ssh2bpp.obj
 0002:00008338       ??_C@_0BP@GHMPBFJJ@No?5valid?5incoming?5packet?5found@ 00471338     ssh2bpp.obj
 0002:00008358       ??_C@_0CJ@IFPLLMJE@Incoming?5packet?5length?5field?5wa@ 00471358     ssh2bpp.obj
 0002:00008384       ??_C@_0CB@KOAELHDC@Incorrect?5MAC?5received?5on?5packe@ 00471384     ssh2bpp.obj
 0002:000083a8       ??_C@_0CK@ECJKOKNK@Incoming?5packet?5was?5garbled?5on?5@ 004713a8     ssh2bpp.obj
 0002:000083d4       ??_C@_0CK@IGCLCJND@Invalid?5padding?5length?5on?5recei@ 004713d4     ssh2bpp.obj
 0002:00008400       ??_C@_1BO@CIHKCKJF@?$AAs?$AA?9?$AA?$DO?$AAl?$AAe?$AAn?$AAg?$AAt?$AAh?$AA?5?$AA?$DO?$AA?$DN?$AA?5?$AA0@ 00471400     ssh2bpp.obj
 0002:00008420       ??_C@_1BO@CHCCGLPN@?$AAp?$AAa?$AAd?$AAd?$AAi?$AAn?$AAg?$AA?5?$AA?$DM?$AA?$DN?$AA?5?$AA2?$AA5?$AA5@ 00471420     ssh2bpp.obj
 0002:00008458       ??_C@_0BP@IIBEAICC@Invalid?5packet?5length?5received@ 00471458     ssh2bpp-bare.obj
 0002:00008478       ??_C@_08NLHBPEGP@password@ 00471478     ssh2censor.obj
 0002:00008484       ??_C@_07KEAFBCID@x11?9req@ 00471484     ssh2censor.obj
 0002:0000857c       ??_C@_0P@GGBAGEAJ@ssh?9connection@ 0047157c     ssh2connection.obj
 0002:0000858c       ??_C@_0BM@MLKKDNH@Administratively?5prohibited@ 0047158c     ssh2connection.obj
 0002:000085a8       ??_C@_0P@NCGOJFHC@Connect?5failed@ 004715a8     ssh2connection.obj
 0002:000085b8       ??_C@_0BF@KCHANALO@Unknown?5channel?5type@ 004715b8     ssh2connection.obj
 0002:000085d0       ??_C@_0BC@MANFJOBN@Resource?5shortage@ 004715d0     ssh2connection.obj
 0002:000085e4       ??_C@_0BI@NCINFBKI@unknown?5reason?5code?5?$CF?$CDx@ 004715e4     ssh2connection.obj
 0002:000085fc       ??_C@_09BLDGMALM@?$CFs?5?$FL?$CF?4?$CKs?$FN@ 004715fc     ssh2connection.obj
 0002:00008608       ??_C@_0CP@FNAABCJD@Received?5?$CFs?5with?5no?5outstanding@ 00471608     ssh2connection.obj
 0002:00008638       ??_C@_02LFNMGJAP@en@       00471638     ssh2connection.obj
 0002:0000863c       ??_C@_0BK@JJHNBNPN@Rejected?5channel?5open?3?5?$CFs@ 0047163c     ssh2connection.obj
 0002:00008658       ??_C@_1CI@HFEEPIJF@?$AA?4?$AA?4?$AA?2?$AAs?$AAs?$AAh?$AA2?$AAc?$AAo?$AAn?$AAn?$AAe?$AAc?$AAt?$AAi@ 00471658     ssh2connection.obj
 0002:00008680       ??_C@_0M@MJOADHAD@exit?9status@ 00471680     ssh2connection.obj
 0002:0000868c       ??_C@_0M@BADJGBCP@exit?9signal@ 0047168c     ssh2connection.obj
 0002:00008698       ??_C@_05OOLEAMGB@shell@    00471698     ssh2connection.obj
 0002:000086a0       ??_C@_04MGEIEJAD@exec@     004716a0     ssh2connection.obj
 0002:000086a8       ??_C@_09BMDMKPAE@subsystem@ 004716a8     ssh2connection.obj
 0002:000086b4       ??_C@_0BL@ODIECNBN@auth?9agent?9req?$EAopenssh?4com@ 004716b4     ssh2connection.obj
 0002:000086d0       ??_C@_07ICNINLOJ@pty?9req@ 004716d0     ssh2connection.obj
 0002:000086d8       ??_C@_0CG@LJKNJJPH@Unable?5to?5decode?5terminal?5mode?5@ 004716d8     ssh2connection.obj
 0002:00008700       ??_C@_03OJGPBPII@env@      00471700     ssh2connection.obj
 0002:00008704       ??_C@_05ELPHFHOI@break@    00471704     ssh2connection.obj
 0002:0000870c       ??_C@_06OAFOBKHE@signal@   0047170c     ssh2connection.obj
 0002:00008714       ??_C@_0O@KLPDNEAE@window?9change@ 00471714     ssh2connection.obj
 0002:00008724       ??_C@_0DP@MJPEIBEG@Received?5?$CFs?5for?5channel?5?$CFd?5with@ 00471724     ssh2connection.obj
 0002:00008764       ??_C@_0CD@KMOOFNJC@winadj?$EAputty?4projects?4tartarus?4@ 00471764     ssh2connection.obj
 0002:00008788       ??_C@_0DK@FGNPJBKF@Received?5unexpected?5connection?9@ 00471788     ssh2connection.obj
 0002:000087c4       ??_C@_1DA@LLEBMJNH@?$AAc?$AA?9?$AA?$DO?$AAc?$AAh?$AAa?$AAn?$AAr?$AAe?$AAq?$AA_?$AAh?$AAe?$AAa?$AAd@ 004717c4     ssh2connection.obj
 0002:000087f4       ??_C@_0BE@HFPGNDHC@All?5channels?5closed@ 004717f4     ssh2connection.obj
 0002:00008808       ??_C@_1GO@JNONPFFN@?$AA?$CB?$AA?$CI?$AAc?$AA?9?$AA?$DO?$AAc?$AAl?$AAo?$AAs?$AAe?$AAs?$AA?5?$AA?$CG?$AA?5?$AA?$CI@ 00471808     ssh2connection.obj
 0002:00008878       ??_C@_1DO@PKFKMKNK@?$AA?$CB?$AA?$CI?$AAc?$AA?9?$AA?$DO?$AAc?$AAl?$AAo?$AAs?$AAe?$AAs?$AA?5?$AA?$CG?$AA?5?$AAC@ 00471878     ssh2connection.obj
 0002:000088b8       ??_C@_1EI@GEJFJEAE@?$AA?$CB?$AAc?$AA?9?$AA?$DO?$AAc?$AAh?$AAa?$AAn?$AA?9?$AA?$DO?$AAi?$AAn?$AAi?$AAt?$AAi@ 004718b8     ssh2connection.obj
 0002:00008900       ??_C@_0CD@GJILCFNH@simple?$EAputty?4projects?4tartarus?4@ 00471900     ssh2connection.obj
 0002:00008924       ??_C@_0P@BINBLDHK@IGNORE?5message@ 00471924     ssh2connection.obj
 0002:00008934       ??_C@_0CK@EIECHEC@Received?5X11?5connect?5request?5fr@ 00471934     ssh2connection-client.obj
 0002:00008960       ??_C@_0BO@FLPJMLBD@X11?5forwarding?5is?5not?5enabled@ 00471960     ssh2connection-client.obj
 0002:00008980       ??_C@_0DH@LGPAHGKE@Received?5remote?5port?5?$CF?4?$CKs?3?$CFd?5op@ 00471980     ssh2connection-client.obj
 0002:000089b8       ??_C@_0BO@LMGPEPNK@Remote?5port?5is?5not?5recognised@ 004719b8     ssh2connection-client.obj
 0002:000089d8       ??_C@_0CL@MKDBLGKK@Attempting?5to?5forward?5remote?5po@ 004719d8     ssh2connection-client.obj
 0002:00008a04       ??_C@_0BB@FKKHANPB@Port?5open?5failed@ 00471a04     ssh2connection-client.obj
 0002:00008a18       ??_C@_0CA@EEBEKEFK@Agent?5forwarding?5is?5not?5enabled@ 00471a18     ssh2connection-client.obj
 0002:00008a38       ??_C@_03JDMECAIF@x11@      00471a38     ssh2connection-client.obj
 0002:00008a3c       ??_C@_0BA@MPAJONKF@forwarded?9tcpip@ 00471a3c     ssh2connection-client.obj
 0002:00008a4c       ??_C@_0BH@JNENGLL@auth?9agent?$EAopenssh?4com@ 00471a4c     ssh2connection-client.obj
 0002:00008a64       ??_C@_0CD@NKNFOAC@Unsupported?5channel?5type?5reques@ 00471a64     ssh2connection-client.obj
 0002:00008a88       ??_C@_0N@LEADGKPC@direct?9tcpip@ 00471a88     ssh2connection-client.obj
 0002:00008a98       ??_C@_07OHKHACFK@0?40?40?40@ 00471a98     ssh2connection-client.obj
 0002:00008aa0       ??_C@_1DG@MNFOKKNF@?$AA?4?$AA?4?$AA?2?$AAs?$AAs?$AAh?$AA2?$AAc?$AAo?$AAn?$AAn?$AAe?$AAc?$AAt?$AAi@ 00471aa0     ssh2connection-client.obj
 0002:00008ad8       ??_C@_0O@FHIGECAN@tcpip?9forward@ 00471ad8     ssh2connection-client.obj
 0002:00008ae8       ??_C@_0BF@KDCOPBH@cancel?9tcpip?9forward@ 00471ae8     ssh2connection-client.obj
 0002:00008b00       ??_C@_1BK@KKDKINMD@?$AAs?$AA?9?$AA?$DO?$AAr?$AAp?$AAo?$AAr?$AAt?$AAf?$AAw?$AAd?$AAs@ 00471b00     ssh2connection-client.obj
 0002:00008b1c       ??_C@_0BN@PJPENDJH@Opening?5main?5session?5channel@ 00471b1c     ssh2connection-client.obj
 0002:00008b3c       ??_C@_07KMJDECGK@session@  00471b3c     ssh2connection-client.obj
 0002:00008b44       ??_C@_0CE@JHGGCMEI@Doing?5Diffie?9Hellman?5group?5exch@ 00471b44     ssh2kex-client.obj
 0002:00008b68       ??_C@_0EN@CFAEKNHM@Received?5unexpected?5packet?5when@ 00471b68     ssh2kex-client.obj
 0002:00008bb8       ??_C@_0CM@IDNGIIOM@Unable?5to?5parse?5Diffie?9Hellman?5@ 00471bb8     ssh2kex-client.obj
 0002:00008be8       ??_C@_0GA@KKNJFFGF@Doing?5Diffie?9Hellman?5key?5exchan@ 00471be8     ssh2kex-client.obj
 0002:00008c48       ??_C@_0FM@IKKLNGDM@Doing?5Diffie?9Hellman?5key?5exchan@ 00471c48     ssh2kex-client.obj
 0002:00008ca8       ??_C@_0EN@MEHEINAJ@Received?5unexpected?5packet?5when@ 00471ca8     ssh2kex-client.obj
 0002:00008cf8       ??_C@_0CM@BIGILFCC@Unable?5to?5parse?5Diffie?9Hellman?5@ 00471cf8     ssh2kex-client.obj
 0002:00008d24       ??_C@_0CL@PGFKNHMI@Diffie?9Hellman?5reply?5failed?5val@ 00471d24     ssh2kex-client.obj
 0002:00008d50       ??_C@_0DC@GHHMCGFD@Doing?5ECDH?5key?5exchange?5with?5cu@ 00471d50     ssh2kex-client.obj
 0002:00008d84       ??_C@_0CA@BBOAHPDC@Unable?5to?5generate?5key?5for?5ECDH@ 00471d84     ssh2kex-client.obj
 0002:00008da8       ??_C@_0ED@OCFLAGPM@Received?5unexpected?5packet?5when@ 00471da8     ssh2kex-client.obj
 0002:00008dec       ??_C@_0DE@KKILBAMK@Received?5invalid?5elliptic?5curve@ 00471dec     ssh2kex-client.obj
 0002:00008e20       ??_C@_0CC@LJINKOCI@Unable?5to?5parse?5ECDH?5reply?5pack@ 00471e20     ssh2kex-client.obj
 0002:00008e48       ??_C@_0FE@OLKGGEJA@Doing?5GSSAPI?5?$CIwith?5Kerberos?5V5?$CJ@ 00471e48     ssh2kex-client.obj
 0002:00008ea0       ??_C@_0EI@IMHOKKLG@Using?5GSSAPI?5?$CIwith?5Kerberos?5V5?$CJ@ 00471ea0     ssh2kex-client.obj
 0002:00008ee8       ??_C@_0EJ@JMJODMKK@Doing?5GSSAPI?5?$CIwith?5Kerberos?5V5?$CJ@ 00471ee8     ssh2kex-client.obj
 0002:00008f34       ??_C@_0CJ@HDNJKIMB@GSSAPI?5key?5exchange?5failed?5to?5i@ 00471f34     ssh2kex-client.obj
 0002:00008f60       ??_C@_1CI@DMGBEEFB@?$AA?4?$AA?4?$AA?2?$AAs?$AAs?$AAh?$AA2?$AAk?$AAe?$AAx?$AA?9?$AAc?$AAl?$AAi?$AAe@ 00471f60     ssh2kex-client.obj
 0002:00008f88       ??_C@_1CG@CGJFKGAP@?$AAs?$AA?9?$AA?$DO?$AAs?$AAh?$AAg?$AAs?$AAs?$AA?9?$AA?$DO?$AAs?$AAr?$AAv?$AA_?$AAn@ 00471f88     ssh2kex-client.obj
 0002:00008fb0       ??_C@_0DF@BGCHLGL@GSSAPI?5key?5exchange?5failed?5to?5i@ 00471fb0     ssh2kex-client.obj
 0002:00008fe8       ??_C@_1JM@MMFBMHEF@?$AAs?$AA?9?$AA?$DO?$AAg?$AAs?$AAs?$AA_?$AAs?$AAt?$AAa?$AAt?$AA?5?$AA?$DN?$AA?$DN?$AA?5@ 00471fe8     ssh2kex-client.obj
 0002:00009084       ??_C@_0DF@JIOIAGHB@GSSAPI?5key?5exchange?5failed?3?5no?5@ 00472084     ssh2kex-client.obj
 0002:000090bc       ??_C@_0CA@CDJDKHFK@GSSAPI?5key?5exchange?5initialised@ 004720bc     ssh2kex-client.obj
 0002:000090dc       ??_C@_0DD@ONLEJOBN@GSSAPI?5key?5exchange?5failed?$DL?5ser@ 004720dc     ssh2kex-client.obj
 0002:00009110       ??_C@_0EE@MPIFPNJI@Received?5unexpected?5packet?5duri@ 00472110     ssh2kex-client.obj
 0002:00009154       ??_C@_0CD@LIAKCOJL@GSSAPI?5reply?5failed?5validation?3@ 00472154     ssh2kex-client.obj
 0002:00009178       ??_C@_1EK@MHLIJBHB@?$AAs?$AA?9?$AA?$DO?$AAk?$AAe?$AAx?$AA_?$AAa?$AAl?$AAg?$AA?9?$AA?$DO?$AAm?$AAa?$AAi@ 00472178     ssh2kex-client.obj
 0002:000091c4       ??_C@_0CE@CLLBJDCD@Doing?5RSA?5key?5exchange?5with?5has@ 004721c4     ssh2kex-client.obj
 0002:000091e8       ??_C@_0EH@JGPMOKHE@Received?5unexpected?5packet?5when@ 004721e8     ssh2kex-client.obj
 0002:00009230       ??_C@_0CG@JOJGAGOE@Unable?5to?5parse?5RSA?5public?5key?5@ 00472230     ssh2kex-client.obj
 0002:00009258       ??_C@_0EO@BMBJAMEP@Server?5sent?5?$CFd?9bit?5RSA?5key?0?5les@ 00472258     ssh2kex-client.obj
 0002:000092a8       ??_C@_1BE@EIHJCPNA@?$AAn?$AAb?$AAi?$AAt?$AAs?$AA?5?$AA?$DO?$AA?5?$AA0@ 004722a8     ssh2kex-client.obj
 0002:000092c0       ??_C@_0EK@ILIDMOJ@Received?5unexpected?5packet?5when@ 004722c0     ssh2kex-client.obj
 0002:0000930c       ??_C@_0CC@PNCJCBFL@Unable?5to?5parse?5RSA?5kex?5signatu@ 0047230c     ssh2kex-client.obj
 0002:00009330       ??_C@_0CK@OIFNOCIN@GSSAPI?5key?5exchange?5MIC?5was?5not@ 00472330     ssh2kex-client.obj
 0002:0000935c       ??_C@_0CG@IBMMKNIP@GSSAPI?5key?5exchange?5MIC?5was?5not@ 0047235c     ssh2kex-client.obj
 0002:00009384       ??_C@_0BO@MHNCHJIJ@GSSAPI?5Key?5Exchange?5complete?$CB@ 00472384     ssh2kex-client.obj
 0002:000093a4       ??_C@_0BN@ECEIABFL@Server?8s?5host?5key?5is?5invalid@ 004723a4     ssh2kex-client.obj
 0002:000093c4       ??_C@_0CM@JJONMADG@Signature?5from?5server?8s?5host?5ke@ 004723c4     ssh2kex-client.obj
 0002:000093f0       ??_C@_0CE@GPDABDFI@GSS?5kex?5provided?5fallback?5host?5@ 004723f0     ssh2kex-client.obj
 0002:00009414       ??_C@_0BP@OJPAKHOH@No?5fallback?5host?5key?5available@ 00472414     ssh2kex-client.obj
 0002:00009434       ??_C@_1BA@GDNDNHEO@?$AAs?$AA?9?$AA?$DO?$AAh?$AAk?$AAe?$AAy@ 00472434     ssh2kex-client.obj
 0002:00009444       ??_C@_0CL@PBFDJALA@Post?9GSS?5rekey?5provided?5fallbac@ 00472444     ssh2kex-client.obj
 0002:00009470       ??_C@_0DD@BMGAFDLM@Non?9GSS?5rekey?5after?5initial?5GSS@ 00472470     ssh2kex-client.obj
 0002:000094a4       ??_C@_0DN@LLJDGIJC@Server?8s?5host?5key?5did?5not?5match@ 004724a4     ssh2kex-client.obj
 0002:000094e4       ??_C@_05GFOLEBJA@?$CFs?1?$CFs@ 004724e4     ssh2kex-client.obj
 0002:000094ec       ??_C@_0M@DHFMMDAE@any?5of?5them@ 004724ec     ssh2kex-client.obj
 0002:000094f8       ??_C@_02MOLGKLA@it@        004724f8     ssh2kex-client.obj
 0002:000094fc       ??_C@_0DE@MMOKKDHP@Server?5also?5has?5?$CFs?5host?5key?$CFs?0?5@ 004724fc     ssh2kex-client.obj
 0002:00009530       ??_C@_1FI@MKMCKDKJ@?$AAs?$AAs?$AAh?$AA_?$AAk?$AAe?$AAy?$AA_?$AAa?$AAl?$AAg?$AA?$CI?$AAs?$AA?9?$AA?$DO@ 00472530     ssh2kex-client.obj
 0002:00009588       ??_C@_0CL@FGHJPEBA@Storing?5additional?5host?5key?5for@ 00472588     ssh2kex-client.obj
 0002:000095b4       ??_C@_1BE@OFCEAGCO@?$AAs?$AA?9?$AA?$DO?$AAk?$AAe?$AAy?$AAs?$AAt?$AAr@ 004725b4     ssh2kex-client.obj
 0002:000095c8       ??_C@_0CO@LHCFPMAL@Host?5key?5was?5different?5in?5repea@ 004725c8     ssh2kex-client.obj
 0002:000095f8       ??_C@_1CC@CBGFALKA@?$AA?4?$AA?4?$AA?2?$AAs?$AAs?$AAh?$AA2?$AAt?$AAr?$AAa?$AAn?$AAs?$AAh?$AAk?$AA?4@ 004725f8     ssh2transhk.obj
 0002:0000961c       ??_C@_1BI@MGBAOHEH@?$AAr?$AAe?$AAt?$AAd?$AA?5?$AA?$DN?$AA?$DN?$AA?5?$AAe?$AAn?$AAt@ 0047261c     ssh2transhk.obj
 0002:00009638       _ssh2_hostkey_algs         00472638     ssh2transport.obj
 0002:00009730       ??_C@_0BH@OGLBOEBO@key?5exchange?5algorithm@ 00472730     ssh2transport.obj
 0002:00009748       ??_C@_0BD@IODEOJMC@host?5key?5algorithm@ 00472748     ssh2transport.obj
 0002:0000975c       ??_C@_0BI@IOBCEHEE@client?9to?9server?5cipher@ 0047275c     ssh2transport.obj
 0002:00009774       ??_C@_0BI@PMGIAPCP@server?9to?9client?5cipher@ 00472774     ssh2transport.obj
 0002:0000978c       ??_C@_0BF@IEDAFFHG@client?9to?9server?5MAC@ 0047278c     ssh2transport.obj
 0002:000097a4       ??_C@_0BF@PGPPEEEO@server?9to?9client?5MAC@ 004727a4     ssh2transport.obj
 0002:000097bc       ??_C@_0CE@DDKLKPNG@client?9to?9server?5compression?5me@ 004727bc     ssh2transport.obj
 0002:000097e0       ??_C@_0CE@DJNOGBHI@server?9to?9client?5compression?5me@ 004727e0     ssh2transport.obj
 0002:00009804       ??_C@_0BM@LFLPECGJ@host?5not?5allowed?5to?5connect@ 00472804     ssh2transport.obj
 0002:00009820       ??_C@_0P@FNPOCJBE@protocol?5error@ 00472820     ssh2transport.obj
 0002:00009830       ??_C@_0BE@GFGODIJH@key?5exchange?5failed@ 00472830     ssh2transport.obj
 0002:00009844       ??_C@_0BL@KLILJNNA@host?5authentication?5failed@ 00472844     ssh2transport.obj
 0002:00009860       ??_C@_09JCOICCHH@MAC?5error@ 00472860     ssh2transport.obj
 0002:0000986c       ??_C@_0BC@NKDLBFJI@compression?5error@ 0047286c     ssh2transport.obj
 0002:00009880       ??_C@_0BG@BMBMFNNB@service?5not?5available@ 00472880     ssh2transport.obj
 0002:00009898       ??_C@_0BP@GPJFNEKA@protocol?5version?5not?5supported@ 00472898     ssh2transport.obj
 0002:000098b8       ??_C@_0BI@IJIAGFPA@host?5key?5not?5verifiable@ 004728b8     ssh2transport.obj
 0002:000098d0       ??_C@_0P@HAMDIPID@by?5application@ 004728d0     ssh2transport.obj
 0002:000098e0       ??_C@_0BF@MIMMPJGN@too?5many?5connections@ 004728e0     ssh2transport.obj
 0002:000098f8       ??_C@_0BH@JBGDCBIP@auth?5cancelled?5by?5user@ 004728f8     ssh2transport.obj
 0002:00009910       ??_C@_0BP@IHKHAHIL@no?5more?5auth?5methods?5available@ 00472910     ssh2transport.obj
 0002:00009930       ??_C@_0BC@NPLJLHOH@illegal?5user?5name@ 00472930     ssh2transport.obj
 0002:00009944       ??_C@_1CG@ICFDACCC@?$AA?4?$AA?4?$AA?2?$AAs?$AAs?$AAh?$AA2?$AAt?$AAr?$AAa?$AAn?$AAs?$AAp?$AAo?$AAr@ 00472944     ssh2transport.obj
 0002:0000996c       ??_C@_1DI@CAGCOEOC@?$AA?$CB?$AA?$CC?$AAN?$AAo?$AA?5?$AAs?$AAp?$AAa?$AAc?$AAe?$AA?5?$AAi?$AAn?$AA?5?$AAK@ 0047296c     ssh2transport.obj
 0002:000099a4       ??_C@_0DJ@LEHBMHOG@Remote?5side?5sent?5disconnect?5mes@ 004729a4     ssh2transport.obj
 0002:000099e0       ??_C@_0BL@GDJDMKLI@Remote?5debug?5message?3?5?$CF?4?$CKs@ 004729e0     ssh2transport.obj
 0002:000099fc       ??_C@_0DF@EGDMCJHB@Received?5premature?5higher?9layer@ 004729fc     ssh2transport.obj
 0002:00009a34       ??_C@_1BA@NKENKFAH@?$AAh?$AAk?$AA_?$AAp?$AAr?$AAe?$AAv@ 00472a34     ssh2transport.obj
 0002:00009a44       ??_C@_04MLLLIHIP@null@     00472a44     ssh2transport.obj
 0002:00009a4c       ??_C@_0BO@LGGLBPFI@KEXINIT?5packet?5was?5incomplete@ 00472a4c     ssh2transport.obj
 0002:00009a70       ??_C@_0EC@EGLLCKEN@Selected?5?$CFs?5?$CC?$CF?4?$CKs?$CC?5does?5not?5cor@ 00472a70     ssh2transport.obj
 0002:00009ab4       ??_C@_0CG@HBEJJAAG@Couldn?8t?5agree?5a?5?$CFs?5?$CIavailable?3@ 00472ab4     ssh2transport.obj
 0002:00009ae0       ??_C@_1FG@HCKCPGP@?$AAf?$AAa?$AAl?$AAs?$AAe?$AA?5?$AA?$CG?$AA?$CG?$AA?5?$AA?$CC?$AAB?$AAa?$AAd?$AA?5?$AAl@ 00472ae0     ssh2transport.obj
 0002:00009b38       ??_C@_1HE@LGGCPFJC@?$AAs?$AAs?$AAh?$AA_?$AAh?$AAa?$AAs?$AAh?$AA_?$AAa?$AAl?$AAg?$AA?$CI?$AAs?$AA?9@ 00472b38     ssh2transport.obj
 0002:00009bb0       ??_C@_0EA@LMLAMPOB@Received?5unexpected?5packet?5when@ 00472bb0     ssh2transport.obj
 0002:00009bf0       ??_C@_0BH@FAOAOCLD@key?9exchange?5algorithm@ 00472bf0     ssh2transport.obj
 0002:00009c08       ??_C@_0BM@HINOKHAL@User?5aborted?5at?5kex?5warning@ 00472c08     ssh2transport.obj
 0002:00009c24       ??_C@_0O@IEEOBGCK@host?5key?5type@ 00472c24     ssh2transport.obj
 0002:00009c34       ??_C@_0CB@GALAAGGL@User?5aborted?5at?5host?5key?5warnin@ 00472c34     ssh2transport.obj
 0002:00009c58       ??_C@_1FG@HGIMPKCJ@?$AAs?$AA?9?$AA?$DO?$AAs?$AAe?$AAs?$AAs?$AAi?$AAo?$AAn?$AA_?$AAi?$AAd?$AA_?$AAl@ 00472c58     ssh2transport.obj
 0002:00009cb0       ??_C@_0EI@FCKJKFCL@Received?5unexpected?5packet?5when@ 00472cb0     ssh2transport.obj
 0002:00009cf8       ??_C@_0CO@BJNBMIJM@Server?5refused?5request?5to?5start@ 00472cf8     ssh2transport.obj
 0002:00009d28       ??_C@_0EI@NHPBODOF@Received?5unexpected?5packet?5when@ 00472d28     ssh2transport.obj
 0002:00009d70       ??_C@_0DK@EEFHAGAB@Client?5requested?5service?5?8?$CF?4?$CKs?8@ 00472d70     ssh2transport.obj
 0002:00009db0       ??_C@_0FA@KDMAGCJB@Received?5unexpected?5transport?9l@ 00472db0     ssh2transport.obj
 0002:00009e00       ??_C@_0CG@BLGNGAEL@Remote?5side?5initiated?5key?5re?9ex@ 00472e00     ssh2transport.obj
 0002:00009e28       ??_C@_0CE@EEJBMPOO@populating?5transient?5host?5key?5c@ 00472e28     ssh2transport.obj
 0002:00009e4c       ??_C@_0BH@DNJFBLLH@too?5much?5data?5received@ 00472e4c     ssh2transport.obj
 0002:00009e64       ??_C@_0BD@OGEJALLK@too?5much?5data?5sent@ 00472e64     ssh2transport.obj
 0002:00009e78       ??_C@_0CJ@HAEEHIFM@Remote?5bug?5prevents?5key?5re?9exch@ 00472e78     ssh2transport.obj
 0002:00009ea4       ??_C@_0CA@LLJFCKBB@Initiating?5key?5re?9exchange?5?$CI?$CFs?$CJ@ 00472ea4     ssh2transport.obj
 0002:00009ec4       ??_C@_07DDHNKDGP@timeout@  00472ec4     ssh2transport.obj
 0002:00009ecc       ??_C@_0BI@PNMMJKG@GSS?5credentials?5updated@ 00472ecc     ssh2transport.obj
 0002:00009ee8       ??_C@_0EJ@MBHMIKFH@GSSAPI?5import?5name?5failed?5?9?5Bad@ 00472ee8     ssh2transport.obj
 0002:00009f34       ??_C@_0DG@IMNKNPBD@GSSAPI?5import?5name?5failed?$DL?5won?8@ 00472f34     ssh2transport.obj
 0002:00009f6c       ??_C@_0CF@OGALJOJI@No?5GSSAPI?5security?5context?5avai@ 00472f6c     ssh2transport.obj
 0002:00009f98       ??_C@_1EE@GKDEMFLO@?$AAp?$AAp?$AAl?$AA?9?$AA?$DO?$AAv?$AAt?$AA?5?$AA?$DN?$AA?$DN?$AA?5?$AA?$CG?$AAs?$AAs?$AAh@ 00472f98     ssh2transport.obj
 0002:00009fdc       ??_C@_1CE@HJLEDGGI@?$AAs?$AA?9?$AA?$DO?$AAg?$AAo?$AAt?$AA_?$AAs?$AAe?$AAs?$AAs?$AAi?$AAo?$AAn?$AA_@ 00472fdc     ssh2transport.obj
 0002:0000a000       ??_C@_0BE@KMGKOCMI@Repeat?5key?5exchange@ 00473000     ssh2transport.obj
 0002:0000a014       ??_C@_0BI@NICFDGII@Cache?5new?5host?5key?5type@ 00473014     ssh2transport.obj
 0002:0000a02c       ??_C@_0BA@LHEDDHPK@at?5user?5request@ 0047302c     ssh2transport.obj
 0002:0000a03c       ??_C@_0BO@NMPKLJNA@cross?9certifying?5new?5host?5key@ 0047303c     ssh2transport.obj
 0002:0000a05c       ??_C@_0BC@IGLKLAN@timeout?5shortened@ 0047305c     ssh2transport.obj
 0002:0000a070       ??_C@_0BD@FLFHDLKA@data?5limit?5lowered@ 00473070     ssh2transport.obj
 0002:0000a084       ??_C@_0BM@GOPPIFO@compression?5setting?5changed@ 00473084     ssh2transport.obj
 0002:0000a0a0       ??_C@_0BI@PHNLEPIC@cipher?5settings?5changed@ 004730a0     ssh2transport.obj
 0002:0000a0b8       __real@0000000000000000    004730b8     ssh2transport.obj
 0002:0000a0e0       ??_C@_0N@PFDFPFDP@ssh?9userauth@ 004730e0     ssh2userauth.obj
 0002:0000a0f0       ??_C@_0DD@HJHDKIHP@Pageant?5response?5contained?5a?5ne@ 004730f0     ssh2userauth.obj
 0002:0000a124       ??_C@_0BK@HDIFEFBP@Pageant?5has?5?$CFd?5SSH?92?5keys@ 00473124     ssh2userauth.obj
 0002:0000a140       ??_C@_0BP@PJBKFBAF@Pageant?5response?5was?5truncated@ 00473140     ssh2userauth.obj
 0002:0000a160       ??_C@_0BH@IELFLDAD@Using?5username?5?$CC?$CFs?$CC?4?$AN?6@ 00473160     ssh2userauth.obj
 0002:0000a178       ??_C@_0CP@IJLEHPFP@Pre?9authentication?5banner?5messa@ 00473178     ssh2userauth.obj
 0002:0000a1a8       ??_C@_0CC@MDMCAJCA@End?5of?5banner?5message?5from?5serv@ 004731a8     ssh2userauth.obj
 0002:0000a1cc       ??_C@_0P@LPLEDOON@Access?5granted@ 004731cc     ssh2userauth.obj
 0002:0000a1e0       ??_C@_0EP@CKDEBFHO@Received?5unexpected?5packet?5in?5r@ 004731e0     ssh2userauth.obj
 0002:0000a230       ??_C@_0BJ@BPEHFHGE@Server?5refused?5our?5key?$AN?6@ 00473230     ssh2userauth.obj
 0002:0000a24c       ??_C@_0BH@HIMMAADC@Server?5refused?5our?5key@ 0047324c     ssh2userauth.obj
 0002:0000a264       ??_C@_0DN@BONOABCC@Server?5refused?5public?9key?5signa@ 00473264     ssh2userauth.obj
 0002:0000a2a4       ??_C@_0DL@ONBECNBL@Server?5refused?5public?9key?5signa@ 004732a4     ssh2userauth.obj
 0002:0000a2e0       ??_C@_0DD@BEEHJIGP@Server?5refused?5keyboard?9interac@ 004732e0     ssh2userauth.obj
 0002:0000a314       ??_C@_0CL@CDEOKJHD@Keyboard?9interactive?5authentica@ 00473314     ssh2userauth.obj
 0002:0000a340       ??_C@_1CE@LHFOGFFB@?$AA?4?$AA?4?$AA?2?$AAs?$AAs?$AAh?$AA2?$AAu?$AAs?$AAe?$AAr?$AAa?$AAu?$AAt?$AAh@ 00473340     ssh2userauth.obj
 0002:0000a364       ??_C@_1DM@EGLMOCOB@?$AAs?$AA?9?$AA?$DO?$AAt?$AAy?$AAp?$AAe?$AA?5?$AA?$DN?$AA?$DN?$AA?5?$AAA?$AAU?$AAT?$AAH@ 00473364     ssh2userauth.obj
 0002:0000a3a0       ??_C@_0BP@KJPEJJMM@Password?5authentication?5failed@ 004733a0     ssh2userauth.obj
 0002:0000a3c0       ??_C@_0CC@KLJPBIDO@Further?5authentication?5required@ 004733c0     ssh2userauth.obj
 0002:0000a3e4       ??_C@_0CA@FPFFAHFF@Further?5authentication?5required@ 004733e4     ssh2userauth.obj
 0002:0000a404       ??_C@_09CDHPPNKF@publickey@ 00473404     ssh2userauth.obj
 0002:0000a410       ??_C@_0BF@DPMEINNL@keyboard?9interactive@ 00473410     ssh2userauth.obj
 0002:0000a428       ??_C@_0BA@GOOLCFMC@gssapi?9with?9mic@ 00473428     ssh2userauth.obj
 0002:0000a438       ??_C@_0N@JEHLFPFN@gssapi?9keyex@ 00473438     ssh2userauth.obj
 0002:0000a448       ??_C@_0BH@CKMKBMAI@Trying?5gssapi?9keyex?4?4?4@ 00473448     ssh2userauth.obj
 0002:0000a460       ??_C@_0DD@BMPPLFFL@Authenticating?5with?5public?5key?5@ 00473460     ssh2userauth.obj
 0002:0000a494       ??_C@_0CA@JPFMBMOL@Pageant?5refused?5signing?5request@ 00473494     ssh2userauth.obj
 0002:0000a4b4       ??_C@_0CI@EHNEGANA@Pageant?5failed?5to?5provide?5a?5sig@ 004734b4     ssh2userauth.obj
 0002:0000a4dc       ??_C@_0BD@DDBLIJDE@Offered?5public?5key@ 004734dc     ssh2userauth.obj
 0002:0000a4f0       ??_C@_0BN@IOLDOLCO@Offer?5of?5public?5key?5accepted@ 004734f0     ssh2userauth.obj
 0002:0000a510       ??_C@_0CG@DBAMGOLK@Authenticating?5with?5public?5key?5@ 00473510     ssh2userauth.obj
 0002:0000a538       ??_C@_0BH@OFLEDBJL@Unable?5to?5authenticate@ 00473538     ssh2userauth.obj
 0002:0000a550       ??_C@_0BD@DNDCGNLP@Wrong?5passphrase?$AN?6@ 00473550     ssh2userauth.obj
 0002:0000a564       ??_C@_0CC@GIMGLGHH@Unable?5to?5load?5private?5key?5?$CI?$CFs?$CJ@ 00473564     ssh2userauth.obj
 0002:0000a588       ??_C@_0CD@DDIJAOL@Cannot?5use?5this?5private?5key?5?$CI?$CFs@ 00473588     ssh2userauth.obj
 0002:0000a5ac       ??_C@_0BK@NAHGMKKB@Sent?5public?5key?5signature@ 004735ac     ssh2userauth.obj
 0002:0000a5c8       ??_C@_0BK@DHEOPHJN@Trying?5gssapi?9with?9mic?4?4?4@ 004735c8     ssh2userauth.obj
 0002:0000a5e4       ??_C@_0CB@FPBMDJML@Attempting?5GSSAPI?5authenticatio@ 004735e4     ssh2userauth.obj
 0002:0000a608       ??_C@_0CG@MELLCDMH@GSSAPI?5authentication?5request?5r@ 00473608     ssh2userauth.obj
 0002:0000a630       ??_C@_0DD@FFIAANDK@GSSAPI?5authentication?5?9?5wrong?5r@ 00473630     ssh2userauth.obj
 0002:0000a664       ??_C@_0CN@NABGGJBN@GSSAPI?5import?5name?5failed?5?9?5Bad@ 00473664     ssh2userauth.obj
 0002:0000a694       ??_C@_0BK@LEKFMOIC@GSSAPI?5import?5name?5failed@ 00473694     ssh2userauth.obj
 0002:0000a6b0       ??_C@_0DA@OOMCFFDO@GSSAPI?5authentication?5failed?5to@ 004736b0     ssh2userauth.obj
 0002:0000a6e0       ??_C@_0CM@HHFHEEBL@GSSAPI?5authentication?5initialis@ 004736e0     ssh2userauth.obj
 0002:0000a70c       ??_C@_0CC@BOGFFJOM@GSSAPI?5authentication?5initialis@ 0047370c     ssh2userauth.obj
 0002:0000a730       ??_C@_0HC@MHCNFINO@Received?5unexpected?5packet?5afte@ 00473730     ssh2userauth.obj
 0002:0000a7a4       ??_C@_0BN@CHFFEJM@GSSAPI?5authentication?5failed@ 004737a4     ssh2userauth.obj
 0002:0000a7c4       ??_C@_0CM@OODDKJP@GSSAPI?5authentication?5?9?5bad?5ser@ 004737c4     ssh2userauth.obj
 0002:0000a7f0       ??_C@_0CH@MFIPJJLP@GSSAPI?5authentication?5loop?5fini@ 004737f0     ssh2userauth.obj
 0002:0000a818       ??_C@_0CP@HNFBPPPF@Attempting?5keyboard?9interactive@ 00473818     ssh2userauth.obj
 0002:0000a848       ??_C@_0DL@GPOIAODP@Server?5sent?5truncated?5SSH_MSG_U@ 00473848     ssh2userauth.obj
 0002:0000a884       ??_C@_0CB@MAHGMMPG@?$DMserver?5failed?5to?5send?5prompt?$DO?3@ 00473884     ssh2userauth.obj
 0002:0000a8a8       ??_C@_0DJ@CNKIOMGO@Keyboard?9interactive?5authentica@ 004738a8     ssh2userauth.obj
 0002:0000a8e4       ??_C@_0BK@FCMADENN@SSH?5server?5authentication@ 004738e4     ssh2userauth.obj
 0002:0000a900       ??_C@_0DI@CBBNFLKP@User?5aborted?5during?5keyboard?9in@ 00473900     ssh2userauth.obj
 0002:0000a938       ??_C@_0DA@BDFANHD@End?5of?5keyboard?9interactive?5pro@ 00473938     ssh2userauth.obj
 0002:0000a968       ??_C@_0CM@BCFGNOFB@User?5aborted?5during?5password?5au@ 00473968     ssh2userauth.obj
 0002:0000a994       ??_C@_0CB@IHLPLHJJ@Server?5requested?5password?5chang@ 00473994     ssh2userauth.obj
 0002:0000a9b8       ??_C@_0BN@NDNEHCCL@Server?5rejected?5new?5password@ 004739b8     ssh2userauth.obj
 0002:0000a9d8       ??_C@_0BB@CHKHFJNI@New?5SSH?5password@ 004739d8     ssh2userauth.obj
 0002:0000a9ec       ??_C@_0DL@HGODMPAK@Current?5password?5?$CIblank?5for?5pre@ 004739ec     ssh2userauth.obj
 0002:0000aa28       ??_C@_0BF@MMNFOGGN@Enter?5new?5password?3?5@ 00473a28     ssh2userauth.obj
 0002:0000aa40       ??_C@_0BH@HMNNKBPF@Confirm?5new?5password?3?5@ 00473a40     ssh2userauth.obj
 0002:0000aa58       ??_C@_0CG@KOIFBJDF@User?5aborted?5during?5password?5ch@ 00473a58     ssh2userauth.obj
 0002:0000aa80       ??_C@_0BJ@CGLIMECO@Passwords?5do?5not?5match?$AN?6@ 00473a80     ssh2userauth.obj
 0002:0000aa9c       ??_C@_0BC@CHKHFAHJ@Sent?5new?5password@ 00473a9c     ssh2userauth.obj
 0002:0000aab0       ??_C@_0EA@OHAHLOJC@No?5supported?5authentication?5met@ 00473ab0     ssh2userauth.obj
 0002:0000aaf0       ??_C@_07FDBDPOCJ@ssh?9rsa@ 00473af0     ssh2userauth.obj
 0002:0000aaf8       ??_C@_06OCNFOMJG@?9?9?5?$CFs?5@ 00473af8     ssh2userauth.obj
 0002:0000ab00       _ssh_aes256_sdctr          00473b00     sshaes.obj
 0002:0000ab40       _ssh_aes256_sdctr_hw       00473b40     sshaes.obj
 0002:0000ab80       _ssh_aes256_sdctr_sw       00473b80     sshaes.obj
 0002:0000abc0       _ssh_aes256_cbc            00473bc0     sshaes.obj
 0002:0000ac00       _ssh_aes256_cbc_hw         00473c00     sshaes.obj
 0002:0000ac40       _ssh_aes256_cbc_sw         00473c40     sshaes.obj
 0002:0000ac80       _ssh_aes192_sdctr          00473c80     sshaes.obj
 0002:0000acc0       _ssh_aes192_sdctr_hw       00473cc0     sshaes.obj
 0002:0000ad00       _ssh_aes192_sdctr_sw       00473d00     sshaes.obj
 0002:0000ad40       _ssh_aes192_cbc            00473d40     sshaes.obj
 0002:0000ad80       _ssh_aes192_cbc_hw         00473d80     sshaes.obj
 0002:0000adc0       _ssh_aes192_cbc_sw         00473dc0     sshaes.obj
 0002:0000ae00       _ssh_aes128_sdctr          00473e00     sshaes.obj
 0002:0000ae40       _ssh_aes128_sdctr_hw       00473e40     sshaes.obj
 0002:0000ae80       _ssh_aes128_sdctr_sw       00473e80     sshaes.obj
 0002:0000aec0       _ssh_aes128_cbc            00473ec0     sshaes.obj
 0002:0000af00       _ssh_aes128_cbc_hw         00473f00     sshaes.obj
 0002:0000af40       _ssh_aes128_cbc_sw         00473f40     sshaes.obj
 0002:0000af80       _ssh2_aes                  00473f80     sshaes.obj
 0002:0000af88       _extra_aes128_cbc          00473f88     sshaes.obj
 0002:0000af90       _extra_aes128_sdctr        00473f90     sshaes.obj
 0002:0000af98       _extra_aes192_cbc          00473f98     sshaes.obj
 0002:0000afa0       _extra_aes192_sdctr        00473fa0     sshaes.obj
 0002:0000afa8       _extra_aes256_cbc          00473fa8     sshaes.obj
 0002:0000afb0       _extra_aes256_sdctr        00473fb0     sshaes.obj
 0002:0000b020       ??_C@_0L@HADBMBOF@aes128?9cbc@ 00474020     sshaes.obj
 0002:0000b02c       ??_C@_0BM@CJAJGFLE@AES?9128?5CBC?5?$CIunaccelerated?$CJ@ 0047402c     sshaes.obj
 0002:0000b048       ??_C@_0CB@GJDNIMJ@AES?9128?5CBC?5?$CIAES?9NI?5accelerated@ 00474048     sshaes.obj
 0002:0000b06c       ??_C@_0CE@DLJJOMMO@AES?9128?5CBC?5?$CIdummy?5selector?5vta@ 0047406c     sshaes.obj
 0002:0000b090       ??_C@_0L@DLEDDNDH@aes128?9ctr@ 00474090     sshaes.obj
 0002:0000b09c       ??_C@_0BO@KMGIOINC@AES?9128?5SDCTR?5?$CIunaccelerated?$CJ@ 0047409c     sshaes.obj
 0002:0000b0bc       ??_C@_0CD@DDPJNL@AES?9128?5SDCTR?5?$CIAES?9NI?5accelerat@ 004740bc     sshaes.obj
 0002:0000b0e0       ??_C@_0CG@HOHCCNNN@AES?9128?5SDCTR?5?$CIdummy?5selector?5v@ 004740e0     sshaes.obj
 0002:0000b108       ??_C@_0L@NDKNLGHJ@aes192?9cbc@ 00474108     sshaes.obj
 0002:0000b114       ??_C@_0BM@MIEGPACP@AES?9192?5CBC?5?$CIunaccelerated?$CJ@ 00474114     sshaes.obj
 0002:0000b130       ??_C@_0CB@BGHINHAO@AES?9192?5CBC?5?$CIAES?9NI?5accelerated@ 00474130     sshaes.obj
 0002:0000b154       ??_C@_0CE@BPDJELCE@AES?9192?5CBC?5?$CIdummy?5selector?5vta@ 00474154     sshaes.obj
 0002:0000b178       ??_C@_0L@JINPEKKL@aes192?9ctr@ 00474178     sshaes.obj
 0002:0000b184       ??_C@_0BO@LOLIDNIH@AES?9192?5SDCTR?5?$CIunaccelerated?$CJ@ 00474184     sshaes.obj
 0002:0000b1a4       ??_C@_0CD@BEDHLFCI@AES?9192?5SDCTR?5?$CIAES?9NI?5accelerat@ 004741a4     sshaes.obj
 0002:0000b1c8       ??_C@_0CG@JCFBCEFA@AES?9192?5SDCTR?5?$CIdummy?5selector?5v@ 004741c8     sshaes.obj
 0002:0000b1f0       ??_C@_0L@BBDJJPI@aes256?9cbc@ 004741f0     sshaes.obj
 0002:0000b1fc       ??_C@_0BM@MMBMCILC@AES?9256?5CBC?5?$CIunaccelerated?$CJ@ 004741fc     sshaes.obj
 0002:0000b218       ??_C@_0CB@NJEJMLLL@AES?9256?5CBC?5?$CIAES?9NI?5accelerated@ 00474218     sshaes.obj
 0002:0000b23c       ??_C@_0CE@GLAFCKHH@AES?9256?5CBC?5?$CIdummy?5selector?5vta@ 0047423c     sshaes.obj
 0002:0000b260       ??_C@_0L@EKGBGFCK@aes256?9ctr@ 00474260     sshaes.obj
 0002:0000b26c       ??_C@_0BO@PCFPJHGM@AES?9256?5SDCTR?5?$CIunaccelerated?$CJ@ 0047426c     sshaes.obj
 0002:0000b28c       ??_C@_0CD@JJIEHMKL@AES?9256?5SDCTR?5?$CIAES?9NI?5accelerat@ 0047428c     sshaes.obj
 0002:0000b2b0       ??_C@_0CG@DJHCAPDF@AES?9256?5SDCTR?5?$CIdummy?5selector?5v@ 004742b0     sshaes.obj
 0002:0000b2d8       ??_C@_0BM@MGEJEKIP@rijndael?9cbc?$EAlysator?4liu?4se@ 004742d8     sshaes.obj
 0002:0000b2f4       ??_C@_1BI@FNOKOHIF@?$AA?4?$AA?4?$AA?2?$AAs?$AAs?$AAh?$AAa?$AAe?$AAs?$AA?4?$AAc@ 004742f4     sshaes.obj
 0002:0000b310       ??_C@_1FG@IEDDKBB@?$AAr?$AAc?$AAo?$AAn?$AAp?$AAo?$AAs?$AA?5?$AA?$DM?$AA?5?$AAl?$AAe?$AAn?$AAo?$AAf@ 00474310     sshaes.obj
 0002:0000b370       __xmm@00000000000000000000000000000001 00474370     sshaes.obj
 0002:0000b380       __xmm@000102030405060708090a0b0c0d0e0f 00474380     sshaes.obj
 0002:0000b390       __xmm@000f000f000f000f000f000f000f000f 00474390     sshaes.obj
 0002:0000b3a0       _ssh_arcfour256_ssh2       004743a0     ssharcf.obj
 0002:0000b3e0       _ssh_arcfour128_ssh2       004743e0     ssharcf.obj
 0002:0000b420       _ssh2_arcfour              00474420     ssharcf.obj
 0002:0000b430       ??_C@_0L@FJBAEHAD@arcfour128@ 00474430     ssharcf.obj
 0002:0000b43c       ??_C@_0M@CMMMHGEF@Arcfour?9128@ 0047443c     ssharcf.obj
 0002:0000b448       ??_C@_0L@NAGJNDOG@arcfour256@ 00474448     ssharcf.obj
 0002:0000b454       ??_C@_0M@KFLFOCKA@Arcfour?9256@ 00474454     ssharcf.obj
 0002:0000b460       ??_C@_1BK@EHJJFLKD@?$AA?4?$AA?4?$AA?2?$AAs?$AAs?$AAh?$AAa?$AAr?$AAc?$AAf?$AA?4?$AAc@ 00474460     ssharcf.obj
 0002:0000b47c       ??_C@_1CA@NEGFHBCJ@?$AAk?$AAe?$AAy?$AAb?$AAy?$AAt?$AAe?$AAs?$AA?5?$AA?$DM?$AA?$DN?$AA?5?$AA2?$AA5?$AA6@ 0047447c     ssharcf.obj
 0002:0000b4a0       _ssh_blowfish_ssh1         004744a0     sshblowf.obj
 0002:0000b4e0       _ssh_blowfish_ssh2_ctr     004744e0     sshblowf.obj
 0002:0000b520       _ssh_blowfish_ssh2         00474520     sshblowf.obj
 0002:0000b560       _ssh2_blowfish             00474560     sshblowf.obj
 0002:0000c5b8       ??_C@_0BB@HKAENLKH@Blowfish?9256?5CBC@ 004755b8     sshblowf.obj
 0002:0000c5cc       ??_C@_0N@KIHOJLLD@blowfish?9cbc@ 004755cc     sshblowf.obj
 0002:0000c5dc       ??_C@_0BB@LCGIDLK@Blowfish?9128?5CBC@ 004755dc     sshblowf.obj
 0002:0000c5f0       ??_C@_0N@ODAMGHGB@blowfish?9ctr@ 004755f0     sshblowf.obj
 0002:0000c600       ??_C@_0BD@JPOJBFPH@Blowfish?9256?5SDCTR@ 00475600     sshblowf.obj
 0002:0000c614       ??_C@_1BM@FADJMCIB@?$AA?4?$AA?4?$AA?2?$AAs?$AAs?$AAh?$AAb?$AAl?$AAo?$AAw?$AAf?$AA?4?$AAc@ 00475614     sshblowf.obj
 0002:0000c630       ??_C@_1BO@CPHGGKB@?$AA?$CI?$AAl?$AAe?$AAn?$AA?5?$AA?$CG?$AA?5?$AA7?$AA?$CJ?$AA?5?$AA?$DN?$AA?$DN?$AA?5?$AA0@ 00475630     sshblowf.obj
 0002:0000c650       _ssh2_chacha20_poly1305    00475650     sshccp.obj
 0002:0000c690       _ssh2_ccp                  00475690     sshccp.obj
 0002:0000c698       _ssh2_poly1305             00475698     sshccp.obj
 0002:0000c6d8       ??_C@_0BO@LOFLNEO@chacha20?9poly1305?$EAopenssh?4com@ 004756d8     sshccp.obj
 0002:0000c6f8       ??_C@_08ILJLPLOJ@ChaCha20@ 004756f8     sshccp.obj
 0002:0000c704       ??_C@_1BI@DCEAAOLO@?$AA?4?$AA?4?$AA?2?$AAs?$AAs?$AAh?$AAc?$AAc?$AAp?$AA?4?$AAc@ 00475704     sshccp.obj
 0002:0000c71c       ??_C@_1BM@HEJNGGC@?$AAk?$AAe?$AAy?$AA?4?$AAl?$AAe?$AAn?$AA?5?$AA?$DN?$AA?$DN?$AA?5?$AA3?$AA2@ 0047571c     sshccp.obj
 0002:0000c738       ??_C@_08PKNBIDPH@Poly1305@ 00475738     sshccp.obj
 0002:0000ca48       ??_C@_1BO@NJPEDBPE@?$AA?4?$AA?4?$AA?2?$AAs?$AAs?$AAh?$AAc?$AAo?$AAm?$AAm?$AAo?$AAn?$AA?4?$AAc@ 00475a48     sshcommon.obj
 0002:0000ca68       ??_C@_1BI@IFMBGDBP@?$AA?$CB?$AAn?$AAo?$AAd?$AAe?$AA?9?$AA?$DO?$AAn?$AAe?$AAx?$AAt@ 00475a68     sshcommon.obj
 0002:0000ca80       ??_C@_1BI@NPJJDDLI@?$AA?$CB?$AAn?$AAo?$AAd?$AAe?$AA?9?$AA?$DO?$AAp?$AAr?$AAe?$AAv@ 00475a80     sshcommon.obj
 0002:0000ca98       ??_C@_1DO@BJFGHKIG@?$AAq?$AAd?$AAe?$AAs?$AAt?$AA?9?$AA?$DO?$AAe?$AAn?$AAd?$AA?4?$AAn?$AAe?$AAx?$AAt@ 00475a98     sshcommon.obj
 0002:0000cad8       ??_C@_1DO@BEJEGKMK@?$AAq?$AAd?$AAe?$AAs?$AAt?$AA?9?$AA?$DO?$AAe?$AAn?$AAd?$AA?4?$AAp?$AAr?$AAe?$AAv@ 00475ad8     sshcommon.obj
 0002:0000cb18       ??_C@_1O@INPGIOMI@?$AA?$CB?$AAt?$AAa?$AAi?$AAl?$AA2@ 00475b18     sshcommon.obj
 0002:0000cb28       ??_C@_1M@HHPDKIMO@?$AAt?$AAa?$AAi?$AAl?$AA2@ 00475b28     sshcommon.obj
 0002:0000cb38       ??_C@_1EE@HFIPIKGH@?$AAc?$AAh?$AAa?$AAn?$AA?9?$AA?$DO?$AAv?$AAt?$AA?5?$AA?$DN?$AA?$DN?$AA?5?$AA?$CG?$AAz?$AAo@ 00475b38     sshcommon.obj
 0002:0000cb80       ??_C@_1II@HAPPBHPE@?$AAf?$AAa?$AAl?$AAs?$AAe?$AA?5?$AA?$CG?$AA?$CG?$AA?5?$AA?$CC?$AAt?$AAh?$AAi?$AAs?$AA?5@ 00475b80     sshcommon.obj
 0002:0000cc08       ??_C@_1HO@KEKOJCEB@?$AAf?$AAa?$AAl?$AAs?$AAe?$AA?5?$AA?$CG?$AA?$CG?$AA?5?$AA?$CC?$AAt?$AAh?$AAi?$AAs?$AA?5@ 00475c08     sshcommon.obj
 0002:0000cc88       ??_C@_1II@IGPBMCCJ@?$AAf?$AAa?$AAl?$AAs?$AAe?$AA?5?$AA?$CG?$AA?$CG?$AA?5?$AA?$CC?$AAt?$AAh?$AAi?$AAs?$AA?5@ 00475c88     sshcommon.obj
 0002:0000cd10       ??_C@_02LIELOMNJ@on@       00475d10     sshcommon.obj
 0002:0000cd14       ??_C@_04LOAJBDKD@true@     00475d14     sshcommon.obj
 0002:0000cd1c       ??_C@_01MIFGBAGJ@?$CL@     00475d1c     sshcommon.obj
 0002:0000cd20       ??_C@_03MCADLMAF@off@      00475d20     sshcommon.obj
 0002:0000cd24       ??_C@_05LAPONLG@false@     00475d24     sshcommon.obj
 0002:0000cd2c       ??_C@_01JOAMLHOP@?9@       00475d2c     sshcommon.obj
 0002:0000cd30       ??_C@_1DE@GDPKBGDI@?$AAf?$AAa?$AAl?$AAs?$AAe?$AA?5?$AA?$CG?$AA?$CG?$AA?5?$AA?$CC?$AAB?$AAa?$AAd?$AA?5?$AAm@ 00475d30     sshcommon.obj
 0002:0000cd64       ??_C@_05KOEELMFI@?$CFu?0?$CFu@ 00475d64     sshcommon.obj
 0002:0000cd6c       ??_C@_1DG@OAHFPKBJ@?$AAo?$AAu?$AAr?$AA_?$AAo?$AAp?$AAc?$AAo?$AAd?$AAe?$AA?5?$AA?$DM?$AA?5?$AAT?$AAT@ 00475d6c     sshcommon.obj
 0002:0000cda4       ??_C@_0BE@EJPEKCJH@SSH1_MSG_DISCONNECT@ 00475da4     sshcommon.obj
 0002:0000cdb8       ??_C@_0BF@EMBHAOBH@SSH1_SMSG_PUBLIC_KEY@ 00475db8     sshcommon.obj
 0002:0000cdd0       ??_C@_0BG@PCGDDLML@SSH1_CMSG_SESSION_KEY@ 00475dd0     sshcommon.obj
 0002:0000cde8       ??_C@_0P@EFPMEAFD@SSH1_CMSG_USER@ 00475de8     sshcommon.obj
 0002:0000cdf8       ??_C@_0BD@BPOFOLMB@SSH1_CMSG_AUTH_RSA@ 00475df8     sshcommon.obj
 0002:0000ce0c       ??_C@_0BN@PMFHDJLD@SSH1_SMSG_AUTH_RSA_CHALLENGE@ 00475e0c     sshcommon.obj
 0002:0000ce2c       ??_C@_0BM@PLPHFPJM@SSH1_CMSG_AUTH_RSA_RESPONSE@ 00475e2c     sshcommon.obj
 0002:0000ce48       ??_C@_0BI@GPCCNJIG@SSH1_CMSG_AUTH_PASSWORD@ 00475e48     sshcommon.obj
 0002:0000ce60       ??_C@_0BG@NBEJAFMC@SSH1_CMSG_REQUEST_PTY@ 00475e60     sshcommon.obj
 0002:0000ce78       ??_C@_0BG@CFKOCBBJ@SSH1_CMSG_WINDOW_SIZE@ 00475e78     sshcommon.obj
 0002:0000ce90       ??_C@_0BF@DAINOGIA@SSH1_CMSG_EXEC_SHELL@ 00475e90     sshcommon.obj
 0002:0000cea8       ??_C@_0BD@PBAIICGA@SSH1_CMSG_EXEC_CMD@ 00475ea8     sshcommon.obj
 0002:0000cebc       ??_C@_0BC@ODEPJAKH@SSH1_SMSG_SUCCESS@ 00475ebc     sshcommon.obj
 0002:0000ced0       ??_C@_0BC@CKANCLPN@SSH1_SMSG_FAILURE@ 00475ed0     sshcommon.obj
 0002:0000cee4       ??_C@_0BF@LBCLKBNP@SSH1_CMSG_STDIN_DATA@ 00475ee4     sshcommon.obj
 0002:0000cefc       ??_C@_0BG@GEPJLIMO@SSH1_SMSG_STDOUT_DATA@ 00475efc     sshcommon.obj
 0002:0000cf14       ??_C@_0BG@JIMCAOHD@SSH1_SMSG_STDERR_DATA@ 00475f14     sshcommon.obj
 0002:0000cf2c       ??_C@_0O@MIHBEILN@SSH1_CMSG_EOF@ 00475f2c     sshcommon.obj
 0002:0000cf3c       ??_C@_0BG@LOBMNFLF@SSH1_SMSG_EXIT_STATUS@ 00475f3c     sshcommon.obj
 0002:0000cf54       ??_C@_0CD@GGBBMHDM@SSH1_MSG_CHANNEL_OPEN_CONFIRMAT@ 00475f54     sshcommon.obj
 0002:0000cf78       ??_C@_0BO@KPDAIAKO@SSH1_MSG_CHANNEL_OPEN_FAILURE@ 00475f78     sshcommon.obj
 0002:0000cf98       ??_C@_0BG@MLJJJADE@SSH1_MSG_CHANNEL_DATA@ 00475f98     sshcommon.obj
 0002:0000cfb0       ??_C@_0BH@NBFOIFOM@SSH1_MSG_CHANNEL_CLOSE@ 00475fb0     sshcommon.obj
 0002:0000cfc8       ??_C@_0CE@MILAPJML@SSH1_MSG_CHANNEL_CLOSE_CONFIRMA@ 00475fc8     sshcommon.obj
 0002:0000cfec       ??_C@_0BD@LPBCEAKD@SSH1_SMSG_X11_OPEN@ 00475fec     sshcommon.obj
 0002:0000d000       ??_C@_0BP@GHDPAAHA@SSH1_CMSG_PORT_FORWARD_REQUEST@ 00476000     sshcommon.obj
 0002:0000d020       ??_C@_0BD@PJLBMAAH@SSH1_MSG_PORT_OPEN@ 00476020     sshcommon.obj
 0002:0000d034       ??_C@_0CD@EJJCHBAH@SSH1_CMSG_AGENT_REQUEST_FORWARD@ 00476034     sshcommon.obj
 0002:0000d058       ??_C@_0BF@LGBGNCBJ@SSH1_SMSG_AGENT_OPEN@ 00476058     sshcommon.obj
 0002:0000d070       ??_C@_0BA@PHJHFNMD@SSH1_MSG_IGNORE@ 00476070     sshcommon.obj
 0002:0000d080       ??_C@_0BM@PPHECPOE@SSH1_CMSG_EXIT_CONFIRMATION@ 00476080     sshcommon.obj
 0002:0000d09c       ??_C@_0CB@NEMJNOGE@SSH1_CMSG_X11_REQUEST_FORWARDIN@ 0047609c     sshcommon.obj
 0002:0000d0c0       ??_C@_0BK@DDNNODND@SSH1_CMSG_AUTH_RHOSTS_RSA@ 004760c0     sshcommon.obj
 0002:0000d0dc       ??_C@_0P@FJDABEDP@SSH1_MSG_DEBUG@ 004760dc     sshcommon.obj
 0002:0000d0ec       ??_C@_0BO@FLIGKACB@SSH1_CMSG_REQUEST_COMPRESSION@ 004760ec     sshcommon.obj
 0002:0000d10c       ??_C@_0BD@FDMLOCGI@SSH1_CMSG_AUTH_TIS@ 0047610c     sshcommon.obj
 0002:0000d120       ??_C@_0BN@GKOOMBJK@SSH1_SMSG_AUTH_TIS_CHALLENGE@ 00476120     sshcommon.obj
 0002:0000d140       ??_C@_0BM@ELKHPING@SSH1_CMSG_AUTH_TIS_RESPONSE@ 00476140     sshcommon.obj
 0002:0000d15c       ??_C@_0BF@LGHOPEHJ@SSH1_CMSG_AUTH_CCARD@ 0047615c     sshcommon.obj
 0002:0000d174       ??_C@_0BP@GHOPGFIB@SSH1_SMSG_AUTH_CCARD_CHALLENGE@ 00476174     sshcommon.obj
 0002:0000d194       ??_C@_0BO@HOAMHMHO@SSH1_CMSG_AUTH_CCARD_RESPONSE@ 00476194     sshcommon.obj
 0002:0000d1b4       ??_C@_0BE@BKGOPJBD@SSH2_MSG_DISCONNECT@ 004761b4     sshcommon.obj
 0002:0000d1c8       ??_C@_0BA@EKFNDBAN@SSH2_MSG_IGNORE@ 004761c8     sshcommon.obj
 0002:0000d1d8       ??_C@_0BH@IPHHGPHC@SSH2_MSG_UNIMPLEMENTED@ 004761d8     sshcommon.obj
 0002:0000d1f0       ??_C@_0P@COKOMGMP@SSH2_MSG_DEBUG@ 004761f0     sshcommon.obj
 0002:0000d200       ??_C@_0BJ@PLJPHFFB@SSH2_MSG_SERVICE_REQUEST@ 00476200     sshcommon.obj
 0002:0000d21c       ??_C@_0BI@LIMFKANN@SSH2_MSG_SERVICE_ACCEPT@ 0047621c     sshcommon.obj
 0002:0000d234       ??_C@_0BB@DMIMKKON@SSH2_MSG_KEXINIT@ 00476234     sshcommon.obj
 0002:0000d248       ??_C@_0BB@HLJMPHIK@SSH2_MSG_NEWKEYS@ 00476248     sshcommon.obj
 0002:0000d25c       ??_C@_0BE@HOKBELOI@SSH2_MSG_KEXDH_INIT@ 0047625c     sshcommon.obj
 0002:0000d270       ??_C@_0BF@OEDDAEII@SSH2_MSG_KEXDH_REPLY@ 00476270     sshcommon.obj
 0002:0000d288       ??_C@_0CA@HNKNBNJC@SSH2_MSG_KEX_DH_GEX_REQUEST_OLD@ 00476288     sshcommon.obj
 0002:0000d2a8       ??_C@_0BM@GGJNIDJL@SSH2_MSG_KEX_DH_GEX_REQUEST@ 004762a8     sshcommon.obj
 0002:0000d2c4       ??_C@_0BK@CIFJHENI@SSH2_MSG_KEX_DH_GEX_GROUP@ 004762c4     sshcommon.obj
 0002:0000d2e0       ??_C@_0BJ@IIMOAMHJ@SSH2_MSG_KEX_DH_GEX_INIT@ 004762e0     sshcommon.obj
 0002:0000d2fc       ??_C@_0BK@GDMNMIBN@SSH2_MSG_KEX_DH_GEX_REPLY@ 004762fc     sshcommon.obj
 0002:0000d318       ??_C@_0BF@EBACBNJB@SSH2_MSG_KEXGSS_INIT@ 00476318     sshcommon.obj
 0002:0000d330       ??_C@_0BJ@HHJNFDMF@SSH2_MSG_KEXGSS_CONTINUE@ 00476330     sshcommon.obj
 0002:0000d34c       ??_C@_0BJ@MDMHGJAI@SSH2_MSG_KEXGSS_COMPLETE@ 0047634c     sshcommon.obj
 0002:0000d368       ??_C@_0BI@HEBOIDGL@SSH2_MSG_KEXGSS_HOSTKEY@ 00476368     sshcommon.obj
 0002:0000d380       ??_C@_0BG@EKHNLIOO@SSH2_MSG_KEXGSS_ERROR@ 00476380     sshcommon.obj
 0002:0000d398       ??_C@_0BJ@OFFDJHND@SSH2_MSG_KEXGSS_GROUPREQ@ 00476398     sshcommon.obj
 0002:0000d3b4       ??_C@_0BG@IGEBNCID@SSH2_MSG_KEXGSS_GROUP@ 004763b4     sshcommon.obj
 0002:0000d3cc       ??_C@_0BH@KPBOGAFF@SSH2_MSG_KEXRSA_PUBKEY@ 004763cc     sshcommon.obj
 0002:0000d3e4       ??_C@_0BH@DIPPDHLL@SSH2_MSG_KEXRSA_SECRET@ 004763e4     sshcommon.obj
 0002:0000d3fc       ??_C@_0BF@EBKOABAJ@SSH2_MSG_KEXRSA_DONE@ 004763fc     sshcommon.obj
 0002:0000d414       ??_C@_0BH@EIANGOMD@SSH2_MSG_KEX_ECDH_INIT@ 00476414     sshcommon.obj
 0002:0000d42c       ??_C@_0BI@EILJFBON@SSH2_MSG_KEX_ECDH_REPLY@ 0047642c     sshcommon.obj
 0002:0000d444       ??_C@_0BK@JKMNCPHK@SSH2_MSG_USERAUTH_REQUEST@ 00476444     sshcommon.obj
 0002:0000d460       ??_C@_0BK@BGAEFPAF@SSH2_MSG_USERAUTH_FAILURE@ 00476460     sshcommon.obj
 0002:0000d47c       ??_C@_0BK@NPEGOEFP@SSH2_MSG_USERAUTH_SUCCESS@ 0047647c     sshcommon.obj
 0002:0000d498       ??_C@_0BJ@JOGGGGDI@SSH2_MSG_USERAUTH_BANNER@ 00476498     sshcommon.obj
 0002:0000d4b4       ??_C@_0BI@PENMGHKN@SSH2_MSG_USERAUTH_PK_OK@ 004764b4     sshcommon.obj
 0002:0000d4cc       ??_C@_0CD@FMCAJMAP@SSH2_MSG_USERAUTH_PASSWD_CHANGE@ 004764cc     sshcommon.obj
 0002:0000d4f0       ??_C@_0BP@NDNMDJMP@SSH2_MSG_USERAUTH_INFO_REQUEST@ 004764f0     sshcommon.obj
 0002:0000d510       ??_C@_0CA@KMNILJKE@SSH2_MSG_USERAUTH_INFO_RESPONSE@ 00476510     sshcommon.obj
 0002:0000d530       ??_C@_0CC@BMGHDOON@SSH2_MSG_USERAUTH_GSSAPI_RESPON@ 00476530     sshcommon.obj
 0002:0000d554       ??_C@_0BP@HFOHOMMB@SSH2_MSG_USERAUTH_GSSAPI_TOKEN@ 00476554     sshcommon.obj
 0002:0000d574       ??_C@_0CL@KDINBLFN@SSH2_MSG_USERAUTH_GSSAPI_EXCHAN@ 00476574     sshcommon.obj
 0002:0000d5a0       ??_C@_0BP@ODOMKOFC@SSH2_MSG_USERAUTH_GSSAPI_ERROR@ 004765a0     sshcommon.obj
 0002:0000d5c0       ??_C@_0CA@FONKKAF@SSH2_MSG_USERAUTH_GSSAPI_ERRTOK@ 004765c0     sshcommon.obj
 0002:0000d5e0       ??_C@_0BN@KAKDGMOB@SSH2_MSG_USERAUTH_GSSAPI_MIC@ 004765e0     sshcommon.obj
 0002:0000d600       ??_C@_0BI@JKCMIJJI@SSH2_MSG_GLOBAL_REQUEST@ 00476600     sshcommon.obj
 0002:0000d618       ??_C@_0BJ@LCEHAFGM@SSH2_MSG_REQUEST_SUCCESS@ 00476618     sshcommon.obj
 0002:0000d634       ??_C@_0BJ@HLAFLODG@SSH2_MSG_REQUEST_FAILURE@ 00476634     sshcommon.obj
 0002:0000d650       ??_C@_0BG@GNMGMCPO@SSH2_MSG_CHANNEL_OPEN@ 00476650     sshcommon.obj
 0002:0000d668       ??_C@_0CD@KPAOMPID@SSH2_MSG_CHANNEL_OPEN_CONFIRMAT@ 00476668     sshcommon.obj
 0002:0000d68c       ??_C@_0BO@BMKEKNGN@SSH2_MSG_CHANNEL_OPEN_FAILURE@ 0047668c     sshcommon.obj
 0002:0000d6ac       ??_C@_0BP@FFNIIMBL@SSH2_MSG_CHANNEL_WINDOW_ADJUST@ 004766ac     sshcommon.obj
 0002:0000d6cc       ??_C@_0BG@GIMPBGJN@SSH2_MSG_CHANNEL_DATA@ 004766cc     sshcommon.obj
 0002:0000d6e4       ??_C@_0BP@GCFILKHG@SSH2_MSG_CHANNEL_EXTENDED_DATA@ 004766e4     sshcommon.obj
 0002:0000d704       ??_C@_0BF@NJKICOGI@SSH2_MSG_CHANNEL_EOF@ 00476704     sshcommon.obj
 0002:0000d71c       ??_C@_0BH@HOPHMICG@SSH2_MSG_CHANNEL_CLOSE@ 0047671c     sshcommon.obj
 0002:0000d734       ??_C@_0BJ@HFFJFNMF@SSH2_MSG_CHANNEL_REQUEST@ 00476734     sshcommon.obj
 0002:0000d750       ??_C@_0BJ@DANCJGOA@SSH2_MSG_CHANNEL_SUCCESS@ 00476750     sshcommon.obj
 0002:0000d76c       ??_C@_0BJ@PJJACNLK@SSH2_MSG_CHANNEL_FAILURE@ 0047676c     sshcommon.obj
 0002:0000d788       ??_C@_1EA@GKJNLPLN@?$AAs?$AAt?$AAr?$AAl?$AAe?$AAn?$AA?$CI?$AAf?$AAi?$AAn?$AAg?$AAe?$AAr?$AAp?$AAr@ 00476788     sshcommon.obj
 0002:0000d7c8       ??_C@_1CM@NEFCJCEE@?$AAf?$AAi?$AAn?$AAg?$AAe?$AAr?$AAp?$AAr?$AAi?$AAn?$AAt?$AA?$FL?$AA2?$AA?$FN?$AA?5@ 004767c8     sshcommon.obj
 0002:0000d7f4       ??_C@_0BC@NCFJMMJB@0123456789abcdef?3@ 004767f4     sshcommon.obj
 0002:0000d808       ??_C@_1HG@GEMEIDGB@?$AAf?$AAi?$AAn?$AAg?$AAe?$AAr?$AAp?$AAr?$AAi?$AAn?$AAt?$AA?$FL?$AAs?$AAt?$AAr@ 00476808     sshcommon.obj
 0002:0000d880       ??_C@_0CM@ONGHIGOC@Remote?5side?5sent?5disconnect?5mes@ 00476880     sshcommon.obj
 0002:0000d8ac       ??_C@_1BM@JACOEEIP@?$AA?4?$AA?4?$AA?2?$AAs?$AAs?$AAh?$AAc?$AAr?$AAc?$AAd?$AAa?$AA?4?$AAc@ 004768ac     sshcrcda.obj
 0002:0000d8c8       ??_C@_1IK@KCKLAJE@?$AA?$CB?$AA?$CI?$AAl?$AAe?$AAn?$AA?5?$AA?$DO?$AA?5?$AA?$CI?$AAS?$AAS?$AAH?$AA_?$AAM?$AAA@ 004768c8     sshcrcda.obj
 0002:0000d954       ??_C@_15IIAMFFIG@?$AAI?$AAV@ 00476954     sshcrcda.obj
 0002:0000d960       _ssh_3des_ssh1             00476960     sshdes.obj
 0002:0000d9a0       _ssh_3des_ssh2_ctr         004769a0     sshdes.obj
 0002:0000d9e0       _ssh_3des_ssh2             004769e0     sshdes.obj
 0002:0000da20       _ssh_des                   00476a20     sshdes.obj
 0002:0000da60       _ssh_des_sshcom_ssh2       00476a60     sshdes.obj
 0002:0000daa0       _ssh2_3des                 00476aa0     sshdes.obj
 0002:0000daa8       _ssh2_des                  00476aa8     sshdes.obj
 0002:0000dd80       ??_C@_07IPAFAGII@des?9cbc@ 00476d80     sshdes.obj
 0002:0000dd88       ??_C@_0P@HKDDLANN@single?9DES?5CBC@ 00476d88     sshdes.obj
 0002:0000dd98       ??_C@_0BA@IBKFJPCP@des?9cbc?$EAssh?4com@ 00476d98     sshdes.obj
 0002:0000dda8       ??_C@_08BLJCDBFI@3des?9cbc@ 00476da8     sshdes.obj
 0002:0000ddb4       ??_C@_0P@MNELLKGN@triple?9DES?5CBC@ 00476db4     sshdes.obj
 0002:0000ddc4       ??_C@_08FAOAMNIK@3des?9ctr@ 00476dc4     sshdes.obj
 0002:0000ddd0       ??_C@_0BB@JEEJMMLC@triple?9DES?5SDCTR@ 00476dd0     sshdes.obj
 0002:0000dde4       ??_C@_0BF@OCGINFLB@triple?9DES?5inner?9CBC@ 00476de4     sshdes.obj
 0002:0000ddfc       _ssh_diffiehellman_group1  00476dfc     sshdh.obj
 0002:0000de04       _ssh_diffiehellman_group14 00476e04     sshdh.obj
 0002:0000de0c       _ssh_diffiehellman_gex     00476e0c     sshdh.obj
 0002:0000de14       _ssh_gssk5_sha1_kex        00476e14     sshdh.obj
 0002:0000def4       ??_C@_0BL@PFLALLMH@diffie?9hellman?9group1?9sha1@ 00476ef4     sshdh.obj
 0002:0000df10       ??_C@_06LPEHCBPA@group1@   00476f10     sshdh.obj
 0002:0000df18       ??_C@_0BO@JDCEIBAC@diffie?9hellman?9group14?9sha256@ 00476f18     sshdh.obj
 0002:0000df38       ??_C@_07GCIEGMK@group14@   00476f38     sshdh.obj
 0002:0000df40       ??_C@_0BM@BOOJHCJ@diffie?9hellman?9group14?9sha1@ 00476f40     sshdh.obj
 0002:0000df5c       ??_C@_0CF@GMBBFDCM@diffie?9hellman?9group?9exchange?9s@ 00476f5c     sshdh.obj
 0002:0000df84       ??_C@_0CD@MOBIAEI@diffie?9hellman?9group?9exchange?9s@ 00476f84     sshdh.obj
 0002:0000dfa8       ??_C@_0CG@LMDLIGID@gss?9gex?9sha1?9toWM5Slw5Ew8Mqkay?$CL@ 00476fa8     sshdh.obj
 0002:0000dfd0       ??_C@_0CK@DJCCEFEA@gss?9group14?9sha1?9toWM5Slw5Ew8Mq@ 00476fd0     sshdh.obj
 0002:0000dffc       ??_C@_0CJ@LAJENDFA@gss?9group1?9sha1?9toWM5Slw5Ew8Mqk@ 00476ffc     sshdh.obj
 0002:0000e028       ??_C@_0BAD@OHPAAHDM@0xFFFFFFFFFFFFFFFFC90FDAA22168C@ 00477028     sshdh.obj
 0002:0000e130       ??_C@_0CAD@BEBEAHDJ@0xFFFFFFFFFFFFFFFFC90FDAA22168C@ 00477130     sshdh.obj
 0002:0000e334       ??_C@_1BG@BOOBEGGO@?$AA?4?$AA?4?$AA?2?$AAs?$AAs?$AAh?$AAd?$AAh?$AA?4?$AAc@ 00477334     sshdh.obj
 0002:0000e34c       ??_C@_1BI@CPGAAJAC@?$AA?$CB?$AAe?$AAx?$AAt?$AAr?$AAa?$AA?9?$AA?$DO?$AAg?$AAe?$AAx@ 0047734c     sshdh.obj
 0002:0000e364       ??_C@_0BO@CHDADGJ@f?5value?5received?5is?5too?5small@ 00477364     sshdh.obj
 0002:0000e384       ??_C@_0BO@KKDIPCPP@f?5value?5received?5is?5too?5large@ 00477384     sshdh.obj
 0002:0000e3a8       _ssh_dss                   004773a8     sshdss.obj
 0002:0000e3e8       ??_C@_07FOJFIGLJ@ssh?9dss@ 004773e8     sshdss.obj
 0002:0000e3f0       ??_C@_03DIFKLMIL@dss@      004773f0     sshdss.obj
 0002:0000e3f4       ??_C@_02MDDDDAID@0x@       004773f4     sshdss.obj
 0002:0000e3f8       ??_C@_0BO@DJMBCJHK@DSA?5deterministic?5k?5generator@ 004773f8     sshdss.obj
 0002:0000e418       _ec_nist_curve_lengths     00477418     sshecc.obj
 0002:0000e424       _n_ec_nist_curve_lengths   00477424     sshecc.obj
 0002:0000e428       _ssh_ec_kex_curve25519     00477428     sshecc.obj
 0002:0000e43c       _ssh_ec_kex_nistp256       0047743c     sshecc.obj
 0002:0000e450       _ssh_ec_kex_nistp384       00477450     sshecc.obj
 0002:0000e464       _ssh_ec_kex_nistp521       00477464     sshecc.obj
 0002:0000e478       _ssh_ecdh_kex              00477478     sshecc.obj
 0002:0000e480       _ssh_ecdsa_ed25519         00477480     sshecc.obj
 0002:0000e4c0       _ssh_ecdsa_nistp256        004774c0     sshecc.obj
 0002:0000e500       _ssh_ecdsa_nistp384        00477500     sshecc.obj
 0002:0000e540       _ssh_ecdsa_nistp521        00477540     sshecc.obj
 0002:0000e580       _sign_extra_ed25519        00477580     sshecc.obj
 0002:0000e598       _sign_extra_nistp256       00477598     sshecc.obj
 0002:0000e5b0       _sign_extra_nistp384       004775b0     sshecc.obj
 0002:0000e5c8       _sign_extra_nistp521       004775c8     sshecc.obj
 0002:0000e5ec       _kex_extra_nistp256        004775ec     sshecc.obj
 0002:0000e600       _kex_extra_nistp384        00477600     sshecc.obj
 0002:0000e614       _kex_extra_nistp521        00477614     sshecc.obj
 0002:0000e638       ??_C@_0M@CKOJCCOB@ssh?9ed25519@ 00477638     sshecc.obj
 0002:0000e644       ??_C@_0BE@KBAHEFJL@ecdsa?9sha2?9nistp256@ 00477644     sshecc.obj
 0002:0000e658       ??_C@_0BE@CDFFNDCP@ecdsa?9sha2?9nistp384@ 00477658     sshecc.obj
 0002:0000e66c       ??_C@_0BE@HGNOPNGA@ecdsa?9sha2?9nistp521@ 0047766c     sshecc.obj
 0002:0000e680       ??_C@_0BN@NJCKAAJN@curve25519?9sha256?$EAlibssh?4org@ 00477680     sshecc.obj
 0002:0000e6a0       ??_C@_0BD@OGBONNOE@ecdh?9sha2?9nistp256@ 004776a0     sshecc.obj
 0002:0000e6b4       ??_C@_0BD@GEEMELFA@ecdh?9sha2?9nistp384@ 004776b4     sshecc.obj
 0002:0000e6c8       ??_C@_0BD@DBMHGFBP@ecdh?9sha2?9nistp521@ 004776c8     sshecc.obj
 0002:0000e6e0       ??_C@_0ED@BLEJKNFH@0xffffffff000000010000000000000@ 004776e0     sshecc.obj
 0002:0000e728       ??_C@_0ED@GGDOFJBC@0xffffffff000000010000000000000@ 00477728     sshecc.obj
 0002:0000e770       ??_C@_0ED@ELEHELBK@0x5ac635d8aa3a93e7b3ebbd5576988@ 00477770     sshecc.obj
 0002:0000e7b8       ??_C@_0ED@JMNGKDIH@0x6b17d1f2e12c4247f8bce6e563a44@ 004777b8     sshecc.obj
 0002:0000e800       ??_C@_0ED@FAPGEAEA@0x4fe342e2fe1a7f9b8ee7eb4a7c0f9@ 00477800     sshecc.obj
 0002:0000e848       ??_C@_0ED@MKOGGFDP@0xffffffff00000000fffffffffffff@ 00477848     sshecc.obj
 0002:0000e88c       ??_C@_08HIMOJHN@nistp256@  0047788c     sshecc.obj
 0002:0000e898       ??_C@_0GD@DPOIOGLL@0xfffffffffffffffffffffffffffff@ 00477898     sshecc.obj
 0002:0000e900       ??_C@_0GD@ECJPBCPO@0xfffffffffffffffffffffffffffff@ 00477900     sshecc.obj
 0002:0000e968       ??_C@_0GD@LBIDCCF@0xb3312fa7e23ee7e4988e056be3f82@ 00477968     sshecc.obj
 0002:0000e9d0       ??_C@_0GD@KIKBNJKE@0xaa87ca22be8b05378eb1c71ef320a@ 004779d0     sshecc.obj
 0002:0000ea38       ??_C@_0GD@KMMGIBKM@0x3617de4a96262c6f5d9e98bf9292d@ 00477a38     sshecc.obj
 0002:0000eaa0       ??_C@_0GD@MBEDEGHC@0xfffffffffffffffffffffffffffff@ 00477aa0     sshecc.obj
 0002:0000eb04       ??_C@_08IFNOHPMJ@nistp384@ 00477b04     sshecc.obj
 0002:0000eb10       ??_C@_0IH@NCDENOOI@0x01fffffffffffffffffffffffffff@ 00477b10     sshecc.obj
 0002:0000eb98       ??_C@_0IH@KPEDCKKN@0x01fffffffffffffffffffffffffff@ 00477b98     sshecc.obj
 0002:0000ec20       ??_C@_0IH@IHMDBAAE@0x0051953eb9618e1c9a1f929a21a0b@ 00477c20     sshecc.obj
 0002:0000eca8       ??_C@_0IH@JHNALAOJ@0x00c6858e06b70404e9cd9e3ecb662@ 00477ca8     sshecc.obj
 0002:0000ed30       ??_C@_0IH@DOBIDCAF@0x011839296a789a3bc0045c8a5fb42@ 00477d30     sshecc.obj
 0002:0000edb8       ??_C@_0IH@LBEBMOHG@0x01fffffffffffffffffffffffffff@ 00477db8     sshecc.obj
 0002:0000ee40       ??_C@_08NAFFFBIG@nistp521@ 00477e40     sshecc.obj
 0002:0000ee50       ??_C@_0ED@JEPIGPHB@0x7ffffffffffffffffffffffffffff@ 00477e50     sshecc.obj
 0002:0000ee98       ??_C@_0ED@IPDBLGCA@0x00000000000000000000000000000@ 00477e98     sshecc.obj
 0002:0000eee0       ??_C@_0ED@BGFKHNAK@0x00000000000000000000000000000@ 00477ee0     sshecc.obj
 0002:0000ef28       ??_C@_0ED@NOIDPHAC@0x00000000000000000000000000000@ 00477f28     sshecc.obj
 0002:0000ef6c       ??_C@_0L@GKPNPEPJ@Curve25519@ 00477f6c     sshecc.obj
 0002:0000ef78       ??_C@_0ED@OHFNPGAC@0x52036cee2b6ffe738cc740797779e@ 00477f78     sshecc.obj
 0002:0000efc0       ??_C@_0ED@NLLJPJLG@0x7ffffffffffffffffffffffffffff@ 00477fc0     sshecc.obj
 0002:0000f008       ??_C@_0ED@ILOIKJEI@0x216936d3cd6e53fec0a4e231fdd6d@ 00478008     sshecc.obj
 0002:0000f050       ??_C@_0ED@BAIJKLGI@0x66666666666666666666666666666@ 00478050     sshecc.obj
 0002:0000f098       ??_C@_0ED@PLMKLCAL@0x10000000000000000000000000000@ 00478098     sshecc.obj
 0002:0000f0dc       ??_C@_07EIPCBPDH@Ed25519@  004780dc     sshecc.obj
 0002:0000f0e4       ??_C@_1BI@CPEJJNJG@?$AA?4?$AA?4?$AA?2?$AAs?$AAs?$AAh?$AAe?$AAc?$AAc?$AA?4?$AAc@ 004780e4     sshecc.obj
 0002:0000f0fc       ??_C@_1DM@NDELGDGI@?$AAc?$AAu?$AAr?$AAv?$AAe?$AA?9?$AA?$DO?$AAt?$AAy?$AAp?$AAe?$AA?5?$AA?$DN?$AA?$DN?$AA?5@ 004780fc     sshecc.obj
 0002:0000f138       ??_C@_1DM@ENMBENHJ@?$AAh?$AAa?$AAs?$AAh?$AA?4?$AAl?$AAe?$AAn?$AA?5?$AA?$DO?$AA?$DN?$AA?5?$AAc?$AAu?$AAr@ 00478138     sshecc.obj
 0002:0000f174       ??_C@_1DE@NBKLAKDH@?$AAc?$AAu?$AAr?$AAv?$AAe?$AA?9?$AA?$DO?$AAt?$AAy?$AAp?$AAe?$AA?5?$AA?$DN?$AA?$DN?$AA?5@ 00478174     sshecc.obj
 0002:0000f1a8       ??_C@_1DE@JALDAAJ@?$AAc?$AAu?$AAr?$AAv?$AAe?$AA?9?$AA?$DO?$AAf?$AAi?$AAe?$AAl?$AAd?$AAB?$AAi?$AAt@ 004781a8     sshecc.obj
 0002:0000f1dc       ??_C@_1CO@KBIANCHI@?$AAc?$AAu?$AAr?$AAv?$AAe?$AA?9?$AA?$DO?$AAf?$AAi?$AAe?$AAl?$AAd?$AAB?$AAy?$AAt@ 004781dc     sshecc.obj
 0002:0000f20c       ??_C@_03CGNBMCEI@?$CFs?0@  0047820c     sshecc.obj
 0002:0000f210       ??_C@_09BGLLIJHO@0x?$CFs?00x?$CFs@ 00478210     sshecc.obj
 0002:0000f21c       ??_C@_1BO@CNPEABPI@?$AAe?$AAk?$AA?9?$AA?$DO?$AAp?$AAr?$AAi?$AAv?$AAa?$AAt?$AAe?$AAK?$AAe?$AAy@ 0047821c     sshecc.obj
 0002:0000f23c       ??_C@_1DM@LNHGHOMK@?$AAe?$AAk?$AA?9?$AA?$DO?$AAc?$AAu?$AAr?$AAv?$AAe?$AA?9?$AA?$DO?$AAt?$AAy?$AAp?$AAe@ 0047823c     sshecc.obj
 0002:0000f278       ??_C@_0CA@MJMKOHPH@ECDSA?5deterministic?5k?5generator@ 00478278     sshecc.obj
 0002:0000f298       ??_C@_05GLPDLDAM@host?$EA@ 00478298     sshgssc.obj
 0002:0000f2a0       _ssh_hmac_md5              004782a0     sshhmac.obj
 0002:0000f2cc       _ssh_hmac_sha1             004782cc     sshhmac.obj
 0002:0000f2f8       _ssh_hmac_sha1_buggy       004782f8     sshhmac.obj
 0002:0000f324       _ssh_hmac_sha1_96          00478324     sshhmac.obj
 0002:0000f350       _ssh_hmac_sha1_96_buggy    00478350     sshhmac.obj
 0002:0000f37c       _ssh_hmac_sha256           0047837c     sshhmac.obj
 0002:0000f3a8       _ssh_hmac_sha256_extra     004783a8     sshhmac.obj
 0002:0000f3b4       _ssh_hmac_md5_extra        004783b4     sshhmac.obj
 0002:0000f3c0       _ssh_hmac_sha1_extra       004783c0     sshhmac.obj
 0002:0000f3cc       _ssh_hmac_sha1_96_extra    004783cc     sshhmac.obj
 0002:0000f3d8       _ssh_hmac_sha1_buggy_extra 004783d8     sshhmac.obj
 0002:0000f3e4       _ssh_hmac_sha1_96_buggy_extra 004783e4     sshhmac.obj
 0002:0000f3f0       ??_C@_0O@HOOBDNEB@hmac?9sha2?9256@ 004783f0     sshhmac.obj
 0002:0000f400       ??_C@_0BO@MPEKOAFF@hmac?9sha2?9256?9etm?$EAopenssh?4com@ 00478400     sshhmac.obj
 0002:0000f420       ??_C@_08LPACCAD@hmac?9md5@ 00478420     sshhmac.obj
 0002:0000f42c       ??_C@_0BJ@CKBIHNJD@hmac?9md5?9etm?$EAopenssh?4com@ 0047842c     sshhmac.obj
 0002:0000f448       ??_C@_09KBOMLGBN@hmac?9sha1@ 00478448     sshhmac.obj
 0002:0000f454       ??_C@_0BK@JCIBKLE@hmac?9sha1?9etm?$EAopenssh?4com@ 00478454     sshhmac.obj
 0002:0000f470       ??_C@_03COEFBIGK@?996@     00478470     sshhmac.obj
 0002:0000f474       ??_C@_0N@PPCDKPGG@hmac?9sha1?996@ 00478474     sshhmac.obj
 0002:0000f484       ??_C@_0BN@NJLHJNBE@hmac?9sha1?996?9etm?$EAopenssh?4com@ 00478484     sshhmac.obj
 0002:0000f4a4       ??_C@_0BC@GAPGFHGN@?5?$CIbug?9compatible?$CJ@ 004784a4     sshhmac.obj
 0002:0000f4b8       ??_C@_0BF@NDGMKGPH@?996?5?$CIbug?9compatible?$CJ@ 004784b8     sshhmac.obj
 0002:0000f4d0       ??_C@_1BK@NLFGAIDH@?$AA?4?$AA?4?$AA?2?$AAs?$AAs?$AAh?$AAh?$AAm?$AAa?$AAc?$AA?4?$AAc@ 004784d0     sshhmac.obj
 0002:0000f4ec       ??_C@_1CO@FIPHLDOL@?$AAc?$AAt?$AAx?$AA?9?$AA?$DO?$AAh?$AAa?$AAs?$AAh?$AAa?$AAl?$AAg?$AA?9?$AA?$DO?$AAb@ 004784ec     sshhmac.obj
 0002:0000f51c       ??_C@_07PGOCMPPK@HMAC?9?$CFs@ 0047851c     sshhmac.obj
 0002:0000f524       ??_C@_02KEGNLNML@?0?5@     00478524     sshhmac.obj
 0002:0000f528       ??_C@_1BI@CNLADLFF@?$AA?4?$AA?4?$AA?2?$AAs?$AAs?$AAh?$AAm?$AAa?$AAc?$AA?4?$AAc@ 00478528     sshmac.obj
 0002:0000f540       ??_C@_1EA@BMFKJACD@?$AAm?$AAa?$AAc?$AA?9?$AA?$DO?$AAv?$AAt?$AA?9?$AA?$DO?$AAl?$AAe?$AAn?$AA?5?$AA?$DM?$AA?$DN@ 00478540     sshmac.obj
 0002:0000f580       _ssh_md5                   00478580     sshmd5.obj
 0002:0000f5a4       ??_C@_03GCGHEHKJ@MD5@      004785a4     sshmd5.obj
 0002:0000f5a8       ??_C@_1BK@IFHAANJH@?$AA?4?$AA?4?$AA?2?$AAs?$AAs?$AAh?$AAp?$AAr?$AAn?$AAg?$AA?4?$AAc@ 004785a8     sshprng.obj
 0002:0000f5c4       ??_C@_1BM@DKAGBLEM@?$AA?$CB?$AAp?$AAi?$AA?9?$AA?$DO?$AAk?$AAe?$AAy?$AAm?$AAa?$AAk?$AAe?$AAr@ 004785c4     sshprng.obj
 0002:0000f5e0       ??_C@_1BK@CCJAIMCK@?$AAp?$AAi?$AA?9?$AA?$DO?$AAk?$AAe?$AAy?$AAm?$AAa?$AAk?$AAe?$AAr@ 004785e0     sshprng.obj
 0002:0000f5fc       ??_C@_1BO@IPNDPBPH@?$AA?$CB?$AAp?$AAi?$AA?9?$AA?$DO?$AAg?$AAe?$AAn?$AAe?$AAr?$AAa?$AAt?$AAo?$AAr@ 004785fc     sshprng.obj
 0002:0000f61c       ??_C@_1DM@LOAMELAH@?$AAs?$AAo?$AAu?$AAr?$AAc?$AAe?$AA_?$AAi?$AAd?$AA?5?$AA?$DM?$AA?5?$AAN?$AAO?$AAI@ 0047861c     sshprng.obj
 0002:0000f658       ??_C@_0BC@NPBJDJGK@file?5format?5error@ 00478658     sshpubk.obj
 0002:0000f66c       ??_C@_0BB@HNDNBCMJ@wrong?5passphrase@ 0047866c     sshpubk.obj
 0002:0000f680       ??_C@_0BC@DEMJHLHP@rsa_verify?5failed@ 00478680     sshpubk.obj
 0002:0000f694       ??_C@_02JDPG@rb@           00478694     sshpubk.obj
 0002:0000f698       ??_C@_0BA@ENOJCGDH@can?8t?5open?5file@ 00478698     sshpubk.obj
 0002:0000f6a8       ??_C@_0CB@KLPNCBJK@SSH?5PRIVATE?5KEY?5FILE?5FORMAT?51?41@ 004786a8     sshpubk.obj
 0002:0000f6cc       ??_C@_0BG@BDKEBGIA@not?5an?5SSH?91?5RSA?5file@ 004786cc     sshpubk.obj
 0002:0000f6e4       ??_C@_0L@FPFMPDDA@0123456789@ 004786e4     sshpubk.obj
 0002:0000f6f0       ??_C@_0DG@HPNFDAHM@key?5bit?5count?5does?5not?5match?5in@ 004786f0     sshpubk.obj
 0002:0000f728       ??_C@_1BK@LMHLBBNJ@?$AA?4?$AA?4?$AA?2?$AAs?$AAs?$AAh?$AAp?$AAu?$AAb?$AAk?$AA?4?$AAc@ 00478728     sshpubk.obj
 0002:0000f744       ??_C@_1DI@FMBAJDD@?$AAn?$AAl?$AAi?$AAn?$AAe?$AAs?$AA?5?$AA?$DM?$AA?5?$AAM?$AAA?$AAX?$AA_?$AAK?$AAE@ 00478744     sshpubk.obj
 0002:0000f77c       ??_C@_0CB@POPODCHG@no?5header?5line?5found?5in?5key?5fil@ 0047877c     sshpubk.obj
 0002:0000f7a0       ??_C@_0BG@GFACEDGM@PuTTY?9User?9Key?9File?92@ 004787a0     sshpubk.obj
 0002:0000f7b8       ??_C@_0BG@EOCPBAKP@PuTTY?9User?9Key?9File?91@ 004787b8     sshpubk.obj
 0002:0000f7d0       ??_C@_0BF@HKENPLNI@PuTTY?9User?9Key?9File?9@ 004787d0     sshpubk.obj
 0002:0000f7e8       ??_C@_0BJ@OMNPKCPH@PuTTY?5key?5format?5too?5new@ 004787e8     sshpubk.obj
 0002:0000f804       ??_C@_0BO@KKNFCICD@not?5a?5PuTTY?5SSH?92?5private?5key@ 00478804     sshpubk.obj
 0002:0000f824       ??_C@_0L@PHIJEIHK@Encryption@ 00478824     sshpubk.obj
 0002:0000f830       ??_C@_07JABLCLAF@Comment@  00478830     sshpubk.obj
 0002:0000f838       ??_C@_0N@PLAKAHPB@Public?9Lines@ 00478838     sshpubk.obj
 0002:0000f848       ??_C@_0O@KIMPDNLC@Private?9Lines@ 00478848     sshpubk.obj
 0002:0000f858       ??_C@_0M@BGCIEHNL@Private?9MAC@ 00478858     sshpubk.obj
 0002:0000f864       ??_C@_0N@PAIKAHGK@Private?9Hash@ 00478864     sshpubk.obj
 0002:0000f874       ??_C@_0BP@FBPHIKLM@putty?9private?9key?9file?9mac?9key@ 00478874     sshpubk.obj
 0002:0000f894       ??_C@_0L@GHCEHEDO@MAC?5failed@ 00478894     sshpubk.obj
 0002:0000f8a0       ??_C@_0BB@IEKCJKNA@createkey?5failed@ 004788a0     sshpubk.obj
 0002:0000f8b4       ??_C@_0CA@IIOIHFOI@?9?9?9?9?5BEGIN?5SSH2?5PUBLIC?5KEY?5?9?9?9?9@ 004788b4     sshpubk.obj
 0002:0000f8d4       ??_C@_0CM@DGEOCFKD@invalid?5begin?5line?5in?5SSH?92?5pub@ 004788d4     sshpubk.obj
 0002:0000f900       ??_C@_0CA@IPIKHEMA@truncated?5SSH?92?5public?5key?5file@ 00478900     sshpubk.obj
 0002:0000f920       ??_C@_07GEKACEDI@Subject@  00478920     sshpubk.obj
 0002:0000f928       ??_C@_02HKHGEFOK@x?9@      00478928     sshpubk.obj
 0002:0000f92c       ??_C@_0CN@GKDGGHHE@unrecognised?5header?5in?5SSH?92?5pu@ 0047892c     sshpubk.obj
 0002:0000f95c       ??_C@_0BO@EDNMBDIG@?9?9?9?9?5END?5SSH2?5PUBLIC?5KEY?5?9?9?9?9@ 0047895c     sshpubk.obj
 0002:0000f97c       ??_C@_0CK@KJHHIPPJ@invalid?5end?5line?5in?5SSH?92?5publi@ 0047897c     sshpubk.obj
 0002:0000f9a8       ??_C@_0CJ@BKKPNHGH@not?5enough?5data?5in?5SSH?92?5public@ 004789a8     sshpubk.obj
 0002:0000f9d4       ??_C@_0DC@FOCDFHBA@invalid?5algorithm?5prefix?5in?5SSH@ 004789d4     sshpubk.obj
 0002:0000fa08       ??_C@_0CH@MPHIHDKF@no?5key?5blob?5in?5OpenSSH?5public?5k@ 00478a08     sshpubk.obj
 0002:0000fa30       ??_C@_1DM@MIMAGJFO@?$AAp?$AAu?$AAb?$AAb?$AAl?$AAo?$AAb?$AAl?$AAe?$AAn?$AA?5?$AA?$CL?$AA?5?$AA3?$AA?5@ 00478a30     sshpubk.obj
 0002:0000fa6c       ??_C@_0DK@KIGPJDEF@invalid?5length?5for?5base64?5data?5@ 00478a6c     sshpubk.obj
 0002:0000faa8       ??_C@_0DH@LDEBOOLE@key?5algorithms?5do?5not?5match?5in?5@ 00478aa8     sshpubk.obj
 0002:0000fae0       ??_C@_06LEJCPMLM@?$CF02x?$CFs@ 00478ae0     sshpubk.obj
 0002:0000fae8       ??_C@_0L@GJOPLNDP@?$CF?4?$CKs?5?$CFd?5?$CFs@ 00478ae8     sshpubk.obj
 0002:0000faf4       ??_C@_07DGCKLDCK@?$CF?4?$CKs?5?$CFs@ 00478af4     sshpubk.obj
 0002:0000fafc       ??_C@_0BL@MCIHCAIN@?9?9?9?9?5BEGIN?5SSH2?5PUBLIC?5KEY@ 00478afc     sshpubk.obj
 0002:0000fb18       ??_C@_0CB@IHNFHFDO@?9?9?9?9?5BEGIN?5SSH2?5ENCRYPTED?5PRIVA@ 00478b18     sshpubk.obj
 0002:0000fb3c       ??_C@_0BP@IFNDMNLO@?9?9?9?9?9BEGIN?5OPENSSH?5PRIVATE?5KEY@ 00478b3c     sshpubk.obj
 0002:0000fb5c       ??_C@_0M@ILJMFDEM@?9?9?9?9?9BEGIN?5@ 00478b5c     sshpubk.obj
 0002:0000fb68       ??_C@_1DC@NKDFADPG@?$AAi?$AA?5?$AA?$DO?$AA?5?$AA0?$AA?5?$AA?$CG?$AA?$CG?$AA?5?$AAi?$AA?5?$AA?$DM?$AA?5?$AAs?$AAi@ 00478b68     sshpubk.obj
 0002:0000fb9c       ??_C@_0BE@FNAAPKHP@unable?5to?5open?5file@ 00478b9c     sshpubk.obj
 0002:0000fbb0       ??_C@_0CB@IHGNBGJK@not?5a?5recognised?5key?5file?5forma@ 00478bb0     sshpubk.obj
 0002:0000fbd4       ??_C@_0BB@GFOEGFLL@SSH?91?5public?5key@ 00478bd4     sshpubk.obj
 0002:0000fbe8       ??_C@_0CD@JMCECHDL@SSH?92?5public?5key?5?$CIRFC?54716?5form@ 00478be8     sshpubk.obj
 0002:0000fc0c       ??_C@_0CC@NJDDKDI@SSH?92?5public?5key?5?$CIOpenSSH?5forma@ 00478c0c     sshpubk.obj
 0002:0000fc30       ??_C@_0BC@LONHAMBA@SSH?91?5private?5key@ 00478c30     sshpubk.obj
 0002:0000fc44       ??_C@_0BI@FLELEAHO@PuTTY?5SSH?92?5private?5key@ 00478c44     sshpubk.obj
 0002:0000fc5c       ??_C@_0CL@NMDCELHH@OpenSSH?5SSH?92?5private?5key?5?$CIold?5@ 00478c5c     sshpubk.obj
 0002:0000fc88       ??_C@_0CH@BPGMNNCC@OpenSSH?5SSH?92?5private?5key?5?$CInew?5@ 00478c88     sshpubk.obj
 0002:0000fcb0       ??_C@_0BK@HBGHADOM@ssh?4com?5SSH?92?5private?5key@ 00478cb0     sshpubk.obj
 0002:0000fccc       ??_C@_0BO@FPPBDIJB@INTERNAL?5ERROR?5?$CIOPENSSH_AUTO?$CJ@ 00478ccc     sshpubk.obj
 0002:0000fcec       ??_C@_0P@CILKDAIG@INTERNAL?5ERROR@ 00478cec     sshpubk.obj
 0002:0000fcfc       ??_C@_1BK@JBBHPBNF@?$AA?4?$AA?4?$AA?2?$AAs?$AAs?$AAh?$AAr?$AAa?$AAn?$AAd?$AA?4?$AAc@ 00478cfc     sshrand.obj
 0002:0000fd18       ??_C@_1BK@DEKDDGDC@?$AA?$CB?$AAg?$AAl?$AAo?$AAb?$AAa?$AAl?$AA_?$AAp?$AAr?$AAn?$AAg@ 00478d18     sshrand.obj
 0002:0000fd34       ??_C@_1CE@PJKIMLAA@?$AAr?$AAa?$AAn?$AAd?$AAo?$AAm?$AA_?$AAa?$AAc?$AAt?$AAi?$AAv?$AAe?$AA?5?$AA?$DO@ 00478d34     sshrand.obj
 0002:0000fd58       _ssh_rsa_kex               00478d58     sshrsa.obj
 0002:0000fd60       _ssh_rsa                   00478d60     sshrsa.obj
 0002:0000fe10       ??_C@_04GHCAEBFJ@rsa2@     00478e10     sshrsa.obj
 0002:0000fe18       ??_C@_0N@KOPDGDGF@rsa1024?9sha1@ 00478e18     sshrsa.obj
 0002:0000fe28       ??_C@_0P@OJIMEJLA@rsa2048?9sha256@ 00478e28     sshrsa.obj
 0002:0000fe38       ??_C@_1BI@DCECBPHA@?$AA?4?$AA?4?$AA?2?$AAs?$AAs?$AAh?$AAr?$AAs?$AAa?$AA?4?$AAc@ 00478e38     sshrsa.obj
 0002:0000fe50       ??_C@_1BI@EMHJEBCI@?$AAb?$AAy?$AAt?$AAe?$AA?5?$AA?$CB?$AA?$DN?$AA?5?$AA2?$AA5?$AA5@ 00478e50     sshrsa.obj
 0002:0000fe68       ??_C@_03JDANDILB@?$CFd?5@  00478e68     sshrsa.obj
 0002:0000fe6c       ??_C@_06ELKDNDAA@?$CFs?$CF02x@ 00478e6c     sshrsa.obj
 0002:0000fe74       ??_C@_03EEBNCBOD@?5?$CFs@  00478e74     sshrsa.obj
 0002:0000fe78       ??_C@_0N@DEJCCKFG@rsa?9sha2?9256@ 00478e78     sshrsa.obj
 0002:0000fe88       ??_C@_0N@MKCAHPDH@rsa?9sha2?9512@ 00478e88     sshrsa.obj
 0002:0000fe98       ??_C@_1FK@HGBNENJN@?$AAf?$AAa?$AAl?$AAs?$AAe?$AA?5?$AA?$CG?$AA?$CG?$AA?5?$AA?$CC?$AAb?$AAa?$AAd?$AA?5?$AAh@ 00478e98     sshrsa.obj
 0002:0000fef4       ??_C@_1CM@FBJADDKF@?$AAn?$AAb?$AAy?$AAt?$AAe?$AAs?$AA?5?$AA?$DO?$AA?$DN?$AA?5?$AAf?$AAi?$AAx?$AAe?$AAd@ 00478ef4     sshrsa.obj
 0002:0000ff20       ??_C@_0DH@JDBBJPFC@?$CFzu?9bit?5RSA?5key?5is?5too?5short?5to@ 00478f20     sshrsa.obj
 0002:0000ff58       ??_C@_1DA@DMPGGLNP@?$AAh?$AA?9?$AA?$DO?$AAh?$AAl?$AAe?$AAn?$AA?5?$AA?$DM?$AA?$DN?$AA?5?$AAM?$AAA?$AAX?$AA_@ 00478f58     sshrsa.obj
 0002:0000ff88       ??_C@_1EO@CAPKDNBP@?$AAi?$AAn?$AA?4?$AAl?$AAe?$AAn?$AA?5?$AA?$DO?$AA?5?$AA0?$AA?5?$AA?$CG?$AA?$CG?$AA?5?$AAi@ 00478f88     sshrsa.obj
 0002:0000ffd8       ??_C@_0BD@ILPMBBEM@SHA?9NI?5accelerated@ 00478fd8     sshsh256.obj
 0002:0000ffec       ??_C@_0BN@BEOECJPP@SHA?9256?5?$CISHA?9NI?5accelerated?$CJ@ 00478fec     sshsh256.obj
 0002:00010010       _ssh_sha256                00479010     sshsh256.obj
 0002:00010034       _ssh_sha256_hw             00479034     sshsh256.obj
 0002:00010058       _ssh_sha256_sw             00479058     sshsh256.obj
 0002:000101a0       ??_C@_07DKFLFLPF@SHA?9256@ 004791a0     sshsh256.obj
 0002:000101a8       ??_C@_0BG@GBFIHHLJ@dummy?5selector?5vtable@ 004791a8     sshsh256.obj
 0002:000101c0       ??_C@_0CA@GJLHNGGJ@SHA?9256?5?$CIdummy?5selector?5vtable?$CJ@ 004791c0     sshsh256.obj
 0002:000101e0       ??_C@_0O@PFNKJCBK@unaccelerated@ 004791e0     sshsh256.obj
 0002:000101f0       ??_C@_0BI@CHMICMJN@SHA?9256?5?$CIunaccelerated?$CJ@ 004791f0     sshsh256.obj
 0002:00010208       ??_C@_1BM@GMGHJNCM@?$AA?4?$AA?4?$AA?2?$AAs?$AAs?$AAh?$AAs?$AAh?$AA2?$AA5?$AA6?$AA?4?$AAc@ 00479208     sshsh256.obj
 0002:00010228       ??_C@_1HK@HPJBMGCP@?$AAb?$AAl?$AAk?$AA?9?$AA?$DO?$AAu?$AAs?$AAe?$AAd?$AA?5?$AA?$DN?$AA?$DN?$AA?5?$AA0?$AA?5@ 00479228     sshsh256.obj
 0002:000102b0       __xmm@0c0d0e0f08090a0b0405060700010203 004792b0     sshsh256.obj
 0002:000102c0       __xmm@106aa070f40e3585d6990624d192e819 004792c0     sshsh256.obj
 0002:000102d0       __xmm@1429296706ca6351d5a79147c6e00bf3 004792d0     sshsh256.obj
 0002:000102e0       __xmm@240ca1cc0fc19dc6efbe4786e49b69c1 004792e0     sshsh256.obj
 0002:000102f0       __xmm@34b0bcb52748774c1e376c0819a4c116 004792f0     sshsh256.obj
 0002:00010300       __xmm@3c6ef372a54ff53a1f83d9ab5be0cd19 00479300     sshsh256.obj
 0002:00010310       __xmm@53380d134d2c6dfc2e1b213827b70a85 00479310     sshsh256.obj
 0002:00010320       __xmm@550c7dc3243185be12835b01d807aa98 00479320     sshsh256.obj
 0002:00010330       __xmm@682e6ff35b9cca4f4ed8aa4a391c0cb3 00479330     sshsh256.obj
 0002:00010340       __xmm@6a09e667bb67ae85510e527f9b05688c 00479340     sshsh256.obj
 0002:00010350       __xmm@76f988da5cb0a9dc4a7484aa2de92c6f 00479350     sshsh256.obj
 0002:00010360       __xmm@8cc7020884c8781478a5636f748f82ee 00479360     sshsh256.obj
 0002:00010370       __xmm@92722c8581c2c92e766a0abb650a7354 00479370     sshsh256.obj
 0002:00010380       __xmm@ab1c5ed5923f82a459f111f13956c25b 00479380     sshsh256.obj
 0002:00010390       __xmm@bf597fc7b00327c8a831c66d983e5152 00479390     sshsh256.obj
 0002:000103a0       __xmm@c19bf1749bdc06a780deb1fe72be5d74 004793a0     sshsh256.obj
 0002:000103b0       __xmm@c67178f2bef9a3f7a4506ceb90befffa 004793b0     sshsh256.obj
 0002:000103c0       __xmm@c76c51a3c24b8b70a81a664ba2bfe8a1 004793c0     sshsh256.obj
 0002:000103d0       __xmm@e9b5dba5b5c0fbcf71374491428a2f98 004793d0     sshsh256.obj
 0002:000103e0       _ssh_sha384                004793e0     sshsh512.obj
 0002:00010404       _ssh_sha512                00479404     sshsh512.obj
 0002:00010728       ??_C@_07MEOJAOJE@SHA?9512@ 00479728     sshsh512.obj
 0002:00010730       ??_C@_07LIAJMNEB@SHA?9384@ 00479730     sshsh512.obj
 0002:00010738       ??_C@_0BL@IIKHCMEF@SHA?91?5?$CISHA?9NI?5accelerated?$CJ@ 00479738     sshsha.obj
 0002:00010754       _ssh_sha1                  00479754     sshsha.obj
 0002:00010778       _ssh_sha1_hw               00479778     sshsha.obj
 0002:0001079c       _ssh_sha1_sw               0047979c     sshsha.obj
 0002:000107d4       ??_C@_05HJMENKNE@SHA?91@   004797d4     sshsha.obj
 0002:000107dc       ??_C@_0BO@DDNMEJFM@SHA?91?5?$CIdummy?5selector?5vtable?$CJ@ 004797dc     sshsha.obj
 0002:000107fc       ??_C@_0BG@NKPBHHDP@SHA?91?5?$CIunaccelerated?$CJ@ 004797fc     sshsha.obj
 0002:00010814       ??_C@_1BI@HGKJCJAA@?$AA?4?$AA?4?$AA?2?$AAs?$AAs?$AAh?$AAs?$AAh?$AAa?$AA?4?$AAc@ 00479814     sshsha.obj
 0002:00010830       __xmm@67452301efcdab8998badcfe10325476 00479830     sshsha.obj
 0002:00010840       __xmm@c3d2e1f0000000000000000000000000 00479840     sshsha.obj
 0002:000108d4       ??_C@_1BM@IAENPNCM@?$AA?4?$AA?4?$AA?2?$AAs?$AAs?$AAh?$AAs?$AAh?$AAa?$AAr?$AAe?$AA?4?$AAc@ 004798d4     sshshare.obj
 0002:000108f0       ??_C@_1GO@DFOLKLAH@?$AAN?$AAU?$AAL?$AAL?$AA?5?$AA?$DN?$AA?$DN?$AA?5?$AAf?$AAi?$AAn?$AAd?$AA2?$AA3?$AA4@ 004798f0     sshshare.obj
 0002:00010960       ??_C@_0CG@IJPFPCJP@Connection?5sharing?5downstream?5?$CD@ 00479960     sshshare.obj
 0002:00010988       ??_C@_0BH@IGDKEAOL@Connection?5sharing?3?5?$CFs@ 00479988     sshshare.obj
 0002:000109a0       ??_C@_0CD@ECPDNMP@cleanup?5after?5downstream?5went?5a@ 004799a0     sshshare.obj
 0002:000109c4       ??_C@_0N@GGGDBMDO@disconnected@ 004799c4     sshshare.obj
 0002:000109d4       ??_C@_0BB@PHFBAHNG@Socket?5error?3?5?$CFs@ 004799d4     sshshare.obj
 0002:000109e8       ??_C@_0CC@EDBEMPNA@downstream?5refused?5X?5channel?5op@ 004799e8     sshshare.obj
 0002:00010a0c       ??_C@_0DG@BOOBJFEA@window?5adjustment?5after?5downstr@ 00479a0c     sshshare.obj
 0002:00010a44       ??_C@_1BA@JLMPDHJF@?$AAg?$AAl?$AAo?$AAb?$AAr?$AAe?$AAq@ 00479a44     sshshare.obj
 0002:00010a54       ??_C@_1BM@BLNMEGOK@?$AA?$CB?$AAg?$AAe?$AAt?$AA_?$AAe?$AAr?$AAr?$AA?$CI?$AAs?$AAr?$AAc?$AA?$CJ@ 00479a54     sshshare.obj
 0002:00010a70       ??_C@_1GM@ENBNMPLP@?$AA?$CB?$AA?$CC?$AAT?$AAh?$AAi?$AAs?$AA?5?$AAp?$AAa?$AAc?$AAk?$AAe?$AAt?$AA?5?$AAt@ 00479a70     sshshare.obj
 0002:00010adc       ??_C@_0CA@LEMKEDHB@Truncated?5GLOBAL_REQUEST?5packet@ 00479adc     sshshare.obj
 0002:00010afc       ??_C@_0BP@LIAJBLMP@upstream?5added?5want_reply?5flag@ 00479afc     sshshare.obj
 0002:00010b1c       ??_C@_0BO@PNBFFCNJ@Truncated?5CHANNEL_OPEN?5packet@ 00479b1c     sshshare.obj
 0002:00010b3c       ??_C@_0CL@FDMLJPNL@Truncated?5CHANNEL_OPEN_CONFIRMA@ 00479b3c     sshshare.obj
 0002:00010b68       ??_C@_0DK@BEMBIPD@CHANNEL_OPEN_CONFIRMATION?5packe@ 00479b68     sshshare.obj
 0002:00010ba8       ??_C@_0EC@KECFPEHJ@Initial?5window?5size?5for?5x11?5cha@ 00479ba8     sshshare.obj
 0002:00010bec       ??_C@_0CG@MGPKIMPG@Truncated?5CHANNEL_OPEN_FAILURE?5@ 00479bec     sshshare.obj
 0002:00010c14       ??_C@_0DF@CKEBFAFK@CHANNEL_OPEN_FAILURE?5packet?5cit@ 00479c14     sshshare.obj
 0002:00010c4c       ??_C@_0DF@GMFPNGA@Agent?5forwarding?5request?5for?5un@ 00479c4c     sshshare.obj
 0002:00010c84       ??_C@_0DD@FPNJAGG@X11?5forwarding?5request?5for?5unre@ 00479c84     sshshare.obj
 0002:00010cb8       ??_C@_0CM@POICOHAK@Truncated?5CHANNEL_REQUEST?$CI?$CCx11?9@ 00479cb8     sshshare.obj
 0002:00010ce4       ??_C@_0BL@NDIKHBNA@Unexpected?5packet?5type?5?$CFd?6@ 00479ce4     sshshare.obj
 0002:00010d00       ??_C@_1BI@HIIMIPPB@?$AAe?$AAr?$AAr?$AA?5?$AA?$CB?$AA?$DN?$AA?5?$AAN?$AAU?$AAL?$AAL@ 00479d00     sshshare.obj
 0002:00010d18       ??_C@_0BN@HINDCMED@Version?5string?5far?5too?5long?6@ 00479d18     sshshare.obj
 0002:00010d38       ??_C@_0CN@FJADHAPD@Version?5string?5did?5not?5have?5exp@ 00479d38     sshshare.obj
 0002:00010d68       ??_C@_0CA@DNOJKIFO@Downstream?5version?5string?3?5?$CF?4?$CKs@ 00479d68     sshshare.obj
 0002:00010d88       ??_C@_0BG@PCMLKPBF@Bad?5packet?5length?5?$CFu?6@ 00479d88     sshshare.obj
 0002:00010da0       ??_C@_0BF@DFEDIOOM@listening?5socket?3?5?$CFs@ 00479da0     sshshare.obj
 0002:00010db8       ??_C@_0CP@MILJHMFH@SSHCONNECTION?$EAputty?4projects?4ta@ 00479db8     sshshare.obj
 0002:00010de8       ??_C@_1CI@CEMEECCF@?$AA?$CB?$AAc?$AAs?$AA?9?$AA?$DO?$AAs?$AAe?$AAn?$AAt?$AA_?$AAv?$AAe?$AAr?$AAs?$AAt@ 00479de8     sshshare.obj
 0002:00010e10       ??_C@_06EGFPNNHB@?5from?5@ 00479e10     sshshare.obj
 0002:00010e18       ??_C@_0O@EOFEODIA@connected?$CFs?$CFs@ 00479e18     sshshare.obj
 0002:00010e28       ??_C@_05GKOKGMF@?$CFs?$EA?$CFs@ 00479e28     sshshare.obj
 0002:00010e30       ??_C@_08PONGPDEA@?$CFs?$EA?$CFs?3?$CFd@ 00479e30     sshshare.obj
 0002:00010e3c       ??_C@_05HKPGCKL@?$CFs?3?$CFd@ 00479e3c     sshshare.obj
 0002:00010e44       ??_C@_1BK@ILDNOPEG@?$AAs?$AAo?$AAc?$AAk?$AA?5?$AA?$DN?$AA?$DN?$AA?5?$AAN?$AAU?$AAL?$AAL@ 00479e44     sshshare.obj
 0002:00010e60       ??_C@_1DG@HMAJNNLF@?$AAr?$AAe?$AAs?$AAu?$AAl?$AAt?$AA?5?$AA?$DN?$AA?$DN?$AA?5?$AAS?$AAH?$AAA?$AAR?$AAE@ 00479e60     sshshare.obj
 0002:00010e98       ??_C@_0CI@LIBAHJMP@Could?5not?5set?5up?5connection?5sha@ 00479e98     sshshare.obj
 0002:00010ec0       ??_C@_0DG@FFBKAJKA@Could?5not?5set?5up?5connection?5sha@ 00479ec0     sshshare.obj
 0002:00010ef8       ??_C@_0DE@JEBONHLO@Could?5not?5set?5up?5connection?5sha@ 00479ef8     sshshare.obj
 0002:00010f2c       ??_C@_0CH@LPFMMCJJ@Using?5existing?5shared?5connectio@ 00479f2c     sshshare.obj
 0002:00010f54       ??_C@_0BO@GIBAJEKF@Sharing?5this?5connection?5at?5?$CFs@ 00479f54     sshshare.obj
 0002:00010f8c       ??_C@_04MBHFJLCC@SSH?9@    00479f8c     sshverstring.obj
 0002:00010f94       ??_C@_0CL@BOLBMBJJ@SSHCONNECTION?$EAputty?4projects?4ta@ 00479f94     sshverstring.obj
 0002:00010fc0       ??_C@_1CE@LNDHEDIC@?$AA?4?$AA?4?$AA?2?$AAs?$AAs?$AAh?$AAv?$AAe?$AAr?$AAs?$AAt?$AAr?$AAi?$AAn?$AAg@ 00479fc0     sshverstring.obj
 0002:00010fe8       ??_C@_1EM@ONIAJAEP@?$AAs?$AA?9?$AA?$DO?$AAp?$AAr?$AAe?$AAf?$AAi?$AAx?$AA_?$AAw?$AAa?$AAn?$AAt?$AAe@ 00479fe8     sshverstring.obj
 0002:00011034       ??_C@_04MAEPBCHM@1?499@    0047a034     sshverstring.obj
 0002:0001103c       ??_C@_0M@NMBIOMPE@?$CF?4?$CKs?$CFs?9?$CFs?$CFs@ 0047a03c     sshverstring.obj
 0002:00011048       ??_C@_01LIIJDEN@?$AN@      0047a048     sshverstring.obj
 0002:0001104c       ??_C@_0BF@KKGKJJBN@We?5claim?5version?3?5?$CFs@ 0047a04c     sshverstring.obj
 0002:00011064       ??_C@_0BD@MNBNLJGB@Remote?5version?3?5?$CFs@ 0047a064     sshverstring.obj
 0002:00011078       ??_C@_1DG@DBHAJJOG@?$AA?$CK?$AAs?$AA?9?$AA?$DO?$AAs?$AAo?$AAf?$AAt?$AAw?$AAa?$AAr?$AAe?$AAv?$AAe?$AAr@ 0047a078     sshverstring.obj
 0002:000110b0       ??_C@_0FA@IBBMAMKG@SSH?5protocol?5version?51?5required@ 0047a0b0     sshverstring.obj
 0002:00011100       ??_C@_0GE@CGLHPNDI@SSH?5protocol?5version?52?5required@ 0047a100     sshverstring.obj
 0002:00011164       ??_C@_0BO@KOCNICNE@Using?5SSH?5protocol?5version?5?$CFd@ 0047a164     sshverstring.obj
 0002:00011188       ??_C@_1KE@MJLCEIFI@?$AAf?$AAa?$AAl?$AAs?$AAe?$AA?5?$AA?$CG?$AA?$CG?$AA?5?$AA?$CC?$AAS?$AAh?$AAo?$AAu?$AAl@ 0047a188     sshverstring.obj
 0002:0001122c       ??_C@_06PIBLOKJG@1?42?418@ 0047a22c     sshverstring.obj
 0002:00011234       ??_C@_06OBAANLNH@1?42?419@ 0047a234     sshverstring.obj
 0002:0001123c       ??_C@_06DCIENOMH@1?42?420@ 0047a23c     sshverstring.obj
 0002:00011244       ??_C@_06CLJPOPIG@1?42?421@ 0047a244     sshverstring.obj
 0002:0001124c       ??_C@_06LCLMEF@1?42?422@   0047a24c     sshverstring.obj
 0002:00011254       ??_C@_0L@PONENGJI@Cisco?91?425@ 0047a254     sshverstring.obj
 0002:00011260       ??_C@_0O@OGPLAELK@OSU_1?44alpha3@ 0047a260     sshverstring.obj
 0002:00011270       ??_C@_0O@GFBAJCOD@OSU_1?45alpha4@ 0047a270     sshverstring.obj
 0002:00011280       ??_C@_0CP@IIGJGMPJ@We?5believe?5remote?5version?5has?5S@ 0047a280     sshverstring.obj
 0002:000112b0       ??_C@_0DH@CMIOCIAN@We?5believe?5remote?5version?5needs@ 0047a2b0     sshverstring.obj
 0002:000112e8       ??_C@_0EA@EJBFMCDE@We?5believe?5remote?5version?5can?8t@ 0047a2e8     sshverstring.obj
 0002:00011328       ??_C@_08BAHPAKLM@?$CK?5VShell@ 0047a328     sshverstring.obj
 0002:00011334       ??_C@_06PHGFJADP@2?41?40?$CK@ 0047a334     sshverstring.obj
 0002:0001133c       ??_C@_05NEONDGPM@2?40?4?$CK@ 0047a33c     sshverstring.obj
 0002:00011344       ??_C@_06LAMFOKOP@2?42?40?$CK@ 0047a344     sshverstring.obj
 0002:0001134c       ??_C@_06INKFMDFP@2?43?40?$CK@ 0047a34c     sshverstring.obj
 0002:00011354       ??_C@_05GGMPHMJD@2?41?5?$CK@ 0047a354     sshverstring.obj
 0002:0001135c       ??_C@_0CN@JIMODAEB@We?5believe?5remote?5version?5has?5S@ 0047a35c     sshverstring.obj
 0002:0001138c       ??_C@_06MKAFLJIP@2?40?40?$CK@ 0047a38c     sshverstring.obj
 0002:00011394       ??_C@_07LLKLBGOD@2?40?410?$CK@ 0047a394     sshverstring.obj
 0002:0001139c       ??_C@_0DH@HJJPBCPI@We?5believe?5remote?5version?5has?5S@ 0047a39c     sshverstring.obj
 0002:000113d4       ??_C@_0BB@LJFPKCKB@OpenSSH_2?4?$FL5?99?$FN?$CK@ 0047a3d4     sshverstring.obj
 0002:000113e8       ??_C@_0BB@CJOIKAFA@OpenSSH_3?4?$FL0?92?$FN?$CK@ 0047a3e8     sshverstring.obj
 0002:000113fc       ??_C@_0BC@LBAGNGCD@mod_sftp?10?4?$FL0?98?$FN?$CK@ 0047a3fc     sshverstring.obj
 0002:00011410       ??_C@_0BD@JBHKGGHH@mod_sftp?10?49?4?$FL0?98?$FN@ 0047a410     sshverstring.obj
 0002:00011424       ??_C@_0DE@LNKHENAK@We?5believe?5remote?5version?5has?5S@ 0047a424     sshverstring.obj
 0002:00011458       ??_C@_0BB@DOJDLEBD@OpenSSH_2?4?$FL0?92?$FN?$CK@ 0047a458     sshverstring.obj
 0002:0001146c       ??_C@_0DO@GCGLALIG@We?5believe?5remote?5version?5has?5S@ 0047a46c     sshverstring.obj
 0002:000114ac       ??_C@_0M@HIEGIPHD@DigiSSH_2?40@ 0047a4ac     sshverstring.obj
 0002:000114b8       ??_C@_0BB@BLPIOLMP@OpenSSH_2?4?$FL0?94?$FN?$CK@ 0047a4b8     sshverstring.obj
 0002:000114cc       ??_C@_0BD@ENMPLMLA@OpenSSH_2?45?4?$FL0?93?$FN?$CK@ 0047a4cc     sshverstring.obj
 0002:000114e0       ??_C@_0M@BHKBOAHA@Sun_SSH_1?40@ 0047a4e0     sshverstring.obj
 0002:000114ec       ??_C@_0O@HLLLOAHH@Sun_SSH_1?40?41@ 0047a4ec     sshverstring.obj
 0002:000114fc       ??_C@_0L@MHIKENAA@WeOnlyDo?9?$CK@ 0047a4fc     sshverstring.obj
 0002:00011508       ??_C@_0CO@HCACEIAK@We?5believe?5remote?5version?5has?5S@ 0047a508     sshverstring.obj
 0002:00011538       ??_C@_0BI@HKLJHCEN@1?436_sshlib?5GlobalSCAPE@ 0047a538     sshverstring.obj
 0002:00011550       ??_C@_0BJ@JILMHMAP@1?436?5sshlib?3?5GlobalScape@ 0047a550     sshverstring.obj
 0002:0001156c       ??_C@_0DM@GNJJCIDH@We?5believe?5remote?5version?5ignor@ 0047a56c     sshverstring.obj
 0002:000115a8       ??_C@_0CP@DFKDAADH@We?5believe?5remote?5version?5has?5S@ 0047a5a8     sshverstring.obj
 0002:000115d8       ??_C@_0BB@DBFMAEEC@OpenSSH_2?4?$FL235?$FN?$CK@ 0047a5d8     sshverstring.obj
 0002:000115ec       ??_C@_0DB@DNBJPJJC@We?5believe?5remote?5version?5has?5o@ 0047a5ec     sshverstring.obj
 0002:00011620       ??_C@_0CJ@IAPGOFOG@We?5believe?5remote?5version?5has?5w@ 0047a620     sshverstring.obj
 0002:0001164c       ??_C@_0BA@ECEEDIAO@OpenSSH_?$FL2?95?$FN?4?$CK@ 0047a64c     sshverstring.obj
 0002:0001165c       ??_C@_0BB@OMBNHCEI@OpenSSH_6?4?$FL0?96?$FN?$CK@ 0047a65c     sshverstring.obj
 0002:00011670       ??_C@_0BH@IHBAJOKK@dropbear_0?4?$FL2?94?$FN?$FL0?99?$FN?$CK@ 0047a670     sshverstring.obj
 0002:00011688       ??_C@_0BC@OKFHOBOG@dropbear_0?45?$FL01?$FN?$CK@ 0047a688     sshverstring.obj
 0002:0001169c       ??_C@_0DI@IIHEFANM@We?5believe?5remote?5version?5has?5S@ 0047a69c     sshverstring.obj
 0002:000116d8       _ssh_zlib                  0047a6d8     sshzlib.obj
 0002:00011ad8       ??_C@_04OLICEBLN@zlib@     0047aad8     sshzlib.obj
 0002:00011ae0       ??_C@_0BB@MCFAHMIB@zlib?$EAopenssh?4com@ 0047aae0     sshzlib.obj
 0002:00011af4       ??_C@_0P@HKDEBKBN@zlib?5?$CIRFC1950?$CJ@ 0047aaf4     sshzlib.obj
 0002:00011b04       ??_C@_1BK@BIFCPMPD@?$AA?4?$AA?4?$AA?2?$AAs?$AAs?$AAh?$AAz?$AAl?$AAi?$AAb?$AA?4?$AAc@ 0047ab04     sshzlib.obj
 0002:00011b20       ??_C@_1DE@MAEIDFKE@?$AAs?$AAt?$AA?9?$AA?$DO?$AAn?$AAp?$AAe?$AAn?$AAd?$AAi?$AAn?$AAg?$AA?5?$AA?$DM?$AA?$DN@ 0047ab20     sshzlib.obj
 0002:00011b54       ??_C@_1DC@FILANFPJ@?$AAs?$AAt?$AA?9?$AA?$DO?$AAn?$AAp?$AAe?$AAn?$AAd?$AAi?$AAn?$AAg?$AA?5?$AA?$DM?$AA?5@ 0047ab54     sshzlib.obj
 0002:00011b88       ??_C@_1DI@EBPDFNOF@?$AAo?$AAu?$AAt?$AA?9?$AA?$DO?$AAn?$AAo?$AAu?$AAt?$AAb?$AAi?$AAt?$AAs?$AA?5?$AA?$CL@ 0047ab88     sshzlib.obj
 0002:00011bc0       ??_C@_1BG@COPMCGJM@?$AAj?$AA?5?$AA?9?$AA?5?$AAi?$AA?5?$AA?$DO?$AA?$DN?$AA?5?$AA2@ 0047abc0     sshzlib.obj
 0002:00011bd8       ??_C@_1BK@BDFNFLCI@?$AA?$CB?$AAo?$AAu?$AAt?$AA?9?$AA?$DO?$AAo?$AAu?$AAt?$AAb?$AAu?$AAf@ 0047abd8     sshzlib.obj
 0002:00011bf4       ??_C@_1BM@KLDOOLGA@?$AA?$CB?$AAd?$AAc?$AAt?$AAx?$AA?9?$AA?$DO?$AAo?$AAu?$AAt?$AAb?$AAl?$AAk@ 0047abf4     sshzlib.obj
 0002:00011c10       ??_C@_02MINBJDHL@?$HM?5@   0047ac10     stripctrl.obj
 0002:00011c14       ??_C@_04BFIBMAAP@?$AN?6?$DO?5@ 0047ac14     stripctrl.obj
 0002:00011c1c       ??_C@_1BO@LLOJBHEM@?$AA?4?$AA?4?$AA?2?$AAs?$AAt?$AAr?$AAi?$AAp?$AAc?$AAt?$AAr?$AAl?$AA?4?$AAc@ 0047ac1c     stripctrl.obj
 0002:00011c40       ??_C@_1EG@IHMCJKLH@?$AAw?$AAi?$AAd?$AAt?$AAh?$AA?5?$AA?$DM?$AA?$DN?$AA?5?$AAs?$AAc?$AAc?$AA?9?$AA?$DO?$AAl@ 0047ac40     stripctrl.obj
 0002:00011c88       ??_C@_1BG@NBGFDFGM@?$AAw?$AAi?$AAd?$AAt?$AAh?$AA?5?$AA?$DO?$AA?$DN?$AA?5?$AA0@ 0047ac88     stripctrl.obj
 0002:00011ca0       ??_C@_1EC@NJALBGFH@?$AAc?$AAo?$AAn?$AAs?$AAu?$AAm?$AAe?$AAd?$AA_?$AAf?$AAr?$AAo?$AAm?$AA_?$AAm@ 0047aca0     stripctrl.obj
 0002:00011ce4       ??_C@_1BO@BMDDGJAE@?$AAt?$AAo?$AA_?$AAc?$AAo?$AAp?$AAy?$AA?5?$AA?$DN?$AA?$DN?$AA?5?$AAl?$AAe?$AAn@ 0047ace4     stripctrl.obj
 0002:00011d04       ??_C@_1CA@BEFOHAFC@?$AAc?$AAo?$AAn?$AAs?$AAu?$AAm?$AAe?$AAd?$AA?5?$AA?$DM?$AA?$DN?$AA?5?$AAl?$AAe?$AAn@ 0047ad04     stripctrl.obj
 0002:00011d24       ??_C@_1CG@IOGHFPMP@?$AAl?$AAe?$AAn?$AA?5?$AA?$DM?$AA?$DN?$AA?5?$AAS?$AAC?$AAC?$AA_?$AAB?$AAU?$AAF?$AAS@ 0047ad24     stripctrl.obj
 0002:00011d4c       ??_C@_1BK@MHBNEDJA@?$AA?4?$AA?4?$AA?2?$AAt?$AAr?$AAe?$AAe?$AA2?$AA3?$AA4?$AA?4?$AAc@ 0047ad4c     tree234.obj
 0002:00011d68       ??_C@_1DC@HAJCHCAO@?$AA?$CB?$AA?$CI?$AAe?$AAq?$AAu?$AAa?$AAl?$AA_?$AAp?$AAe?$AAr?$AAm?$AAi?$AAt?$AAt@ 0047ad68     tree234.obj
 0002:00011d9c       ??_C@_1BE@JDCCMFIA@?$AAd?$AAi?$AAr?$AAe?$AAc?$AAt?$AAi?$AAo?$AAn@ 0047ad9c     tree234.obj
 0002:00011df4       ??_C@_01LBDDMOBJ@?$FN@     0047adf4     utils.obj
 0002:00011df8       ??_C@_1BG@IBBOKEKM@?$AA?4?$AA?4?$AA?2?$AAu?$AAt?$AAi?$AAl?$AAs?$AA?4?$AAc@ 0047adf8     utils.obj
 0002:00011e10       ??_C@_1CM@NIOFDAEB@?$AAb?$AAu?$AAf?$AA?9?$AA?$DO?$AAv?$AAi?$AAs?$AAi?$AAb?$AAl?$AAe?$AA?4?$AAl?$AAe@ 0047ae10     utils.obj
 0002:00011e40       ??_C@_1GM@EAHHBGHL@?$AAf?$AAa?$AAl?$AAs?$AAe?$AA?5?$AA?$CG?$AA?$CG?$AA?5?$AA?$CC?$AAb?$AAu?$AAf?$AAc?$AAh@ 0047ae40     utils.obj
 0002:00011eac       ??_C@_1CM@MFBGKCEF@?$AAc?$AAh?$AA?9?$AA?$DO?$AAb?$AAu?$AAf?$AAf?$AAe?$AAr?$AAs?$AAi?$AAz?$AAe?$AA?5@ 0047aeac     utils.obj
 0002:00011ed8       ??_C@_1CC@FNDPGLGN@?$AAc?$AAh?$AA?9?$AA?$DO?$AAh?$AAe?$AAa?$AAd?$AA?5?$AA?$CB?$AA?$DN?$AA?5?$AAN?$AAU?$AAL@ 0047aed8     utils.obj
 0002:00011efc       ??_C@_1BI@DJGBLBGG@?$AAt?$AAm?$AAp?$AA?5?$AA?$CB?$AA?$DN?$AA?5?$AAN?$AAU?$AAL?$AAL@ 0047aefc     utils.obj
 0002:00011f14       _ver                       0047af14     version.obj
 0002:00011f24       _sshver                    0047af24     version.obj
 0002:00011f34       _commitid                  0047af34     version.obj
 0002:00012cb8       ??_C@_1BM@PINLEPKJ@?$AA?4?$AA?4?$AA?2?$AAw?$AAi?$AAl?$AAd?$AAc?$AAa?$AAr?$AAd?$AA?4?$AAc@ 0047bcb8     wildcard.obj
 0002:00012cd4       ??_C@_1CC@PPJJLGIB@?$AA?$CK?$AAw?$AAi?$AAl?$AAd?$AAc?$AAa?$AAr?$AAd?$AA?5?$AA?$DN?$AA?$DN?$AA?5?$AA?8?$AA?$CK@ 0047bcd4     wildcard.obj
 0002:00012cf8       ??_C@_0M@DNEEGAAA@crypt32?4dll@ 0047bcf8     wincapi.obj
 0002:00012d04       ??_C@_0BD@BEHPHILP@CryptProtectMemory@ 0047bd04     wincapi.obj
 0002:000139c4       ??_C@_0M@LCCAHJB@FATAL?5ERROR@ 0047c9c4     wincons.obj
 0002:000139d0       ??_C@_05MBDEGLCK@ERROR@    0047c9d0     wincons.obj
 0002:000139d8       ??_C@_0BKL@FLNCJOGO@These?5are?5the?5fingerprints?5of?5t@ 0047c9d8     wincons.obj
 0002:00013b84       ??_C@_0CC@LOBNMDGO@Cannot?5get?5standard?5input?5handl@ 0047cb84     wincons.obj
 0002:00013ba8       ??_C@_0CD@FBGFOPPM@Cannot?5get?5standard?5output?5hand@ 0047cba8     wincons.obj
 0002:00013bcc       ??_C@_0M@KGGAJAJ@Courier?5New@ 0047cbcc     windefs.obj
 0002:00013bd8       ??_C@_09CKCOALHD@putty?4log@ 0047cbd8     windefs.obj
 0002:00013be4       ??_C@_04FLOGHLDB@COM1@     0047cbe4     windefs.obj
 0002:00013bec       _ngsslibs                  0047cbec     wingss.obj
 0002:00013bf0       _gsslibnames               0047cbf0     wingss.obj
 0002:00013bfc       _gsslibkeywords            0047cbfc     wingss.obj
 0002:00013c2c       _gss_mech_krb5             0047cc2c     wingss.obj
 0002:00013c34       ??_C@_0BK@KMMBPEJK@MIT?5Kerberos?5GSSAPI32?4DLL@ 0047cc34     wingss.obj
 0002:00013c50       ??_C@_0BL@NLDLBALN@Microsoft?5SSPI?5SECUR32?4DLL@ 0047cc50     wingss.obj
 0002:00013c6c       ??_C@_0BK@JKANBDKL@User?9specified?5GSSAPI?5DLL@ 0047cc6c     wingss.obj
 0002:00013c88       ??_C@_08GJKCNAPI@gssapi32@ 0047cc88     wingss.obj
 0002:00013c94       ??_C@_04BOOLCFDB@sspi@     0047cc94     wingss.obj
 0002:00013c9c       ??_C@_06EKNFNOKI@custom@   0047cc9c     wingss.obj
 0002:00013ca4       ??_C@_0N@MDJJJHMB@kernel32?4dll@ 0047cca4     wingss.obj
 0002:00013cb4       ??_C@_0BA@NMFGOKJN@AddDllDirectory@ 0047ccb4     wingss.obj
 0002:00013cc4       ??_C@_0BG@LGNPILGP@SOFTWARE?2MIT?2Kerberos@ 0047ccc4     wingss.obj
 0002:00013cdc       ??_C@_0L@FHCLALEN@InstallDir@ 0047ccdc     wingss.obj
 0002:00013ce8       ??_C@_04OJGJKDCG@?2bin@    0047cce8     wingss.obj
 0002:00013cf0       ??_C@_0O@PHAFIOME@?2gssapi32?4dll@ 0047ccf0     wingss.obj
 0002:00013d00       ??_C@_0BP@CAAICPPD@Using?5GSSAPI?5from?5GSSAPI32?4DLL@ 0047cd00     wingss.obj
 0002:00013d20       ??_C@_0BH@LPGCAHBE@gss_delete_sec_context@ 0047cd20     wingss.obj
 0002:00013d38       ??_C@_0BD@HAHCAGLP@gss_display_status@ 0047cd38     wingss.obj
 0002:00013d4c       ??_C@_0M@OGHPACOB@gss_get_mic@ 0047cd4c     wingss.obj
 0002:00013d58       ??_C@_0P@KAPGGING@gss_verify_mic@ 0047cd58     wingss.obj
 0002:00013d68       ??_C@_0BA@NFJGAFDA@gss_import_name@ 0047cd68     wingss.obj
 0002:00013d78       ??_C@_0BF@GKGBCAOB@gss_init_sec_context@ 0047cd78     wingss.obj
 0002:00013d90       ??_C@_0BD@NOBAANHB@gss_release_buffer@ 0047cd90     wingss.obj
 0002:00013da4       ??_C@_0BB@OPJGOMFI@gss_release_cred@ 0047cda4     wingss.obj
 0002:00013db8       ??_C@_0BB@ECKCLAGB@gss_release_name@ 0047cdb8     wingss.obj
 0002:00013dcc       ??_C@_0BB@DMNICJAO@gss_acquire_cred@ 0047cdcc     wingss.obj
 0002:00013de0       ??_C@_0BJ@HHFCIMMD@gss_inquire_cred_by_mech@ 0047cde0     wingss.obj
 0002:00013dfc       ??_C@_0M@KOFABFN@secur32?4dll@ 0047cdfc     wingss.obj
 0002:00013e08       ??_C@_0BM@BNCKPIJL@Using?5SSPI?5from?5SECUR32?4DLL@ 0047ce08     wingss.obj
 0002:00013e24       ??_C@_0BK@KPHFEPAJ@AcquireCredentialsHandleA@ 0047ce24     wingss.obj
 0002:00013e40       ??_C@_0BL@GGJLPDDN@InitializeSecurityContextA@ 0047ce40     wingss.obj
 0002:00013e5c       ??_C@_0BC@LCABLLAA@FreeContextBuffer@ 0047ce5c     wingss.obj
 0002:00013e70       ??_C@_0BG@DAGPLFON@FreeCredentialsHandle@ 0047ce70     wingss.obj
 0002:00013e88       ??_C@_0BG@LNIAGFEF@DeleteSecurityContext@ 0047ce88     wingss.obj
 0002:00013ea0       ??_C@_0BI@MJIBHNH@QueryContextAttributesA@ 0047cea0     wingss.obj
 0002:00013eb8       ??_C@_0O@MIBINBJ@MakeSignature@ 0047ceb8     wingss.obj
 0002:00013ec8       ??_C@_0BA@EGPCJBKO@VerifySignature@ 0047cec8     wingss.obj
 0002:00013ed8       ??_C@_0CO@KKKGLNAB@Using?5GSSAPI?5from?5user?9specifie@ 0047ced8     wingss.obj
 0002:00013f08       ??_C@_05IJJGMEGE@host?1@   0047cf08     wingss.obj
 0002:00013f10       ??_C@_08DEIMIBAF@Kerberos@ 0047cf10     wingss.obj
 0002:00013f1c       ??_C@_0P@FHMNKEON@SSPI?5status?5OK@ 0047cf1c     wingss.obj
 0002:00013f2c       ??_C@_0CO@MFICPPLA@The?5handle?5passed?5to?5the?5functi@ 0047cf2c     wingss.obj
 0002:00013f5c       ??_C@_0BP@GBCPMANM@The?5target?5was?5not?5recognized?4@ 0047cf5c     wingss.obj
 0002:00013f7c       ??_C@_0BC@EIFLKHH@The?5logon?5failed?4@ 0047cf7c     wingss.obj
 0002:00013f90       ??_C@_0DC@FMMLCEMD@The?5Local?5Security?5Authority?5ca@ 0047cf90     wingss.obj
 0002:00013fc4       ??_C@_0DG@GKAFKGBA@No?5credentials?5are?5available?5in@ 0047cfc4     wingss.obj
 0002:00014000       ??_C@_0MH@NCDMEMJK@No?5authority?5could?5be?5contacted@ 0047d000     wingss.obj
 0002:000140c8       ??_C@_0GH@FPFDJCGO@One?5or?5more?5of?5the?5SecBufferDes@ 0047d0c8     wingss.obj
 0002:00014130       ??_C@_0BBF@KLMJLMFM@The?5error?5is?5due?5to?5a?5malformed@ 0047d130     wingss.obj
 0002:00014248       ??_C@_0BE@JBOILFGC@Internal?5SSPI?5error@ 0047d248     wingss.obj
 0002:0001425c       ??_C@_1CM@DMBHPOBD@?$AA?4?$AA?4?$AA?2?$AAw?$AAi?$AAn?$AAd?$AAo?$AAw?$AAs?$AA?2?$AAw?$AAi?$AAn?$AAh@ 0047d25c     winhandl.obj
 0002:00014288       ??_C@_1CK@FHLADDDD@?$AAh?$AA?9?$AA?$DO?$AAt?$AAy?$AAp?$AAe?$AA?5?$AA?$DN?$AA?$DN?$AA?5?$AAH?$AAT?$AA_?$AAO@ 0047d288     winhandl.obj
 0002:000142b4       ??_C@_1DK@HEEPBBDK@?$AAh?$AA?9?$AA?$DO?$AAu?$AA?4?$AAo?$AA?4?$AAo?$AAu?$AAt?$AAg?$AAo?$AAi?$AAn?$AAg@ 0047d2b4     winhandl.obj
 0002:000142f0       ??_C@_1CM@IGACHAOA@?$AAh?$AA?5?$AA?$CG?$AA?$CG?$AA?5?$AA?$CB?$AAh?$AA?9?$AA?$DO?$AAu?$AA?4?$AAg?$AA?4?$AAm?$AAo@ 0047d2f0     winhandl.obj
 0002:0001431c       ??_C@_1CI@COHIDNHF@?$AAh?$AAa?$AAn?$AAd?$AAl?$AAe?$AAs?$AA_?$AAb?$AAy?$AA_?$AAe?$AAv?$AAt?$AAo@ 0047d31c     winhandl.obj
 0002:00014344       ??_C@_1CI@JKCBBCL@?$AAh?$AA?9?$AA?$DO?$AAt?$AAy?$AAp?$AAe?$AA?5?$AA?$DN?$AA?$DN?$AA?5?$AAH?$AAT?$AA_?$AAI@ 0047d344     winhandl.obj
 0002:00014390       ??_C@_0BH@DGGGCPDG@Read?5error?5from?5handle@ 0047d390     winhsock.obj
 0002:000143a8       ??_C@_1CM@MIHHFINN@?$AA?4?$AA?4?$AA?2?$AAw?$AAi?$AAn?$AAd?$AAo?$AAw?$AAs?$AA?2?$AAw?$AAi?$AAn?$AAh@ 0047d3a8     winhsock.obj
 0002:000143d8       ??_C@_1FM@JHHNGKHL@?$AAh?$AAs?$AA?9?$AA?$DO?$AAf?$AAr?$AAo?$AAz?$AAe?$AAn?$AA?5?$AA?$CB?$AA?$DN?$AA?5?$AAF@ 0047d3d8     winhsock.obj
 0002:00014434       ??_C@_1BK@KOMLNHNL@?$AAd?$AAa?$AAt?$AAa?$AA?4?$AAl?$AAe?$AAn?$AA?5?$AA?$DO?$AA?5?$AA0@ 0047d434     winhsock.obj
 0002:00014450       ??_C@_1EG@MNJHKAEK@?$AAb?$AAu?$AAf?$AAc?$AAh?$AAa?$AAi?$AAn?$AA_?$AAs?$AAi?$AAz?$AAe?$AA?$CI?$AA?$CG@ 0047d450     winhsock.obj
 0002:00014498       ??_C@_0BM@CIPLAJFN@GetNamedPipeClientProcessId@ 0047d498     winhsock.obj
 0002:000144b4       ??_C@_0P@JHHIPCON@process?5id?5?$CFlu@ 0047d4b4     winhsock.obj
 0002:000144d4       ??_C@_07JPHDIPNG@DISPLAY@  0047d4d4     winmisc.obj
 0002:000144dc       ??_C@_09KOMKGNPH@?$DM?$DO?3?$CC?1?2?$HM?$DP?$CK@ 0047d4dc     winmisc.obj
 0002:000144e8       ??_C@_0M@MJAONEIE@sspicli?4dll@ 0047d4e8     winmisc.obj
 0002:000144f4       ??_C@_0P@MKECNODE@GetUserNameExA@ 0047d4f4     winmisc.obj
 0002:00014504       ??_C@_0BJ@OHNKDLIJ@SetDefaultDllDirectories@ 0047d504     winmisc.obj
 0002:00014520       ??_C@_01KICIPPFI@?2@       0047d520     winmisc.obj
 0002:00014524       ??_C@_0CO@PFNCIHEG@?$CIunable?5to?5format?3?5FormatMessag@ 0047d524     winmisc.obj
 0002:00014554       ??_C@_0N@EGAOEDDE@Error?5?$CFd?3?5?$CFs@ 0047d554     winmisc.obj
 0002:00014564       _in6addr_any               0047d564     winnet.obj
 0002:00014574       _in6addr_loopback          0047d574     winnet.obj
 0002:000145a8       ??_C@_0L@EANHMAHB@ws2_32?4dll@ 0047d5a8     winnet.obj
 0002:000145b4       ??_C@_0M@OJLCMFNP@wsock32?4dll@ 0047d5b4     winnet.obj
 0002:000145c0       ??_C@_0CD@JNHCILKG@Unable?5to?5load?5any?5WinSock?5libr@ 0047d5c0     winnet.obj
 0002:000145e4       ??_C@_0M@MBIPAJOD@getaddrinfo@ 0047d5e4     winnet.obj
 0002:000145f0       ??_C@_0N@EHOPPMLH@freeaddrinfo@ 0047d5f0     winnet.obj
 0002:00014600       ??_C@_0M@NNJNLPKG@getnameinfo@ 0047d600     winnet.obj
 0002:0001460c       ??_C@_0N@INCGEDCE@gai_strerror@ 0047d60c     winnet.obj
 0002:0001461c       ??_C@_0L@KHLHMJB@wship6?4dll@ 0047d61c     winnet.obj
 0002:00014628       ??_C@_0BE@OCOIJKMB@WSAAddressToStringA@ 0047d628     winnet.obj
 0002:0001463c       ??_C@_0P@BBKGBEDM@WSAAsyncSelect@ 0047d63c     winnet.obj
 0002:0001464c       ??_C@_0P@CIBLNKFF@WSAEventSelect@ 0047d64c     winnet.obj
 0002:0001465c       ??_C@_06LGNCCACI@select@   0047d65c     winnet.obj
 0002:00014664       ??_C@_0BA@ONBHHGGB@WSAGetLastError@ 0047d664     winnet.obj
 0002:00014674       ??_C@_0BF@PDMHDGHF@WSAEnumNetworkEvents@ 0047d674     winnet.obj
 0002:0001468c       ??_C@_0L@EEFLCHHA@WSAStartup@ 0047d68c     winnet.obj
 0002:00014698       ??_C@_0L@OPKENMEN@WSACleanup@ 0047d698     winnet.obj
 0002:000146a4       ??_C@_0M@ODDJDCDK@closesocket@ 0047d6a4     winnet.obj
 0002:000146b0       ??_C@_05JMFICPBP@ntohl@    0047d6b0     winnet.obj
 0002:000146b8       ??_C@_05EOIMLALA@htonl@    0047d6b8     winnet.obj
 0002:000146c0       ??_C@_05IDNGLOCO@htons@    0047d6c0     winnet.obj
 0002:000146c8       ??_C@_05FBACCBIB@ntohs@    0047d6c8     winnet.obj
 0002:000146d0       ??_C@_0M@FIJPCJJO@gethostname@ 0047d6d0     winnet.obj
 0002:000146dc       ??_C@_0O@BFBCKHPD@gethostbyname@ 0047d6dc     winnet.obj
 0002:000146ec       ??_C@_0O@NKLJGHIL@getservbyname@ 0047d6ec     winnet.obj
 0002:000146fc       ??_C@_09JKBDEEOB@inet_addr@ 0047d6fc     winnet.obj
 0002:00014708       ??_C@_09CFOACKNM@inet_ntoa@ 0047d708     winnet.obj
 0002:00014714       ??_C@_09HGDJAJMM@inet_ntop@ 0047d714     winnet.obj
 0002:00014720       ??_C@_07KAIBNCHO@connect@  0047d720     winnet.obj
 0002:00014728       ??_C@_04NPNJNMMP@bind@     0047d728     winnet.obj
 0002:00014730       ??_C@_0L@CKHNIFCM@setsockopt@ 0047d730     winnet.obj
 0002:0001473c       ??_C@_06HBELJPBO@socket@   0047d73c     winnet.obj
 0002:00014744       ??_C@_06OODDLKLE@listen@   0047d744     winnet.obj
 0002:0001474c       ??_C@_04MIIPNNEF@send@     0047d74c     winnet.obj
 0002:00014754       ??_C@_08FIACBBDA@shutdown@ 0047d754     winnet.obj
 0002:00014760       ??_C@_0M@PBPOCKDG@ioctlsocket@ 0047d760     winnet.obj
 0002:0001476c       ??_C@_06MPKMECK@accept@    0047d76c     winnet.obj
 0002:00014774       ??_C@_0M@MBAJPNG@getpeername@ 0047d774     winnet.obj
 0002:00014780       ??_C@_04IFMDBHHF@recv@     0047d780     winnet.obj
 0002:00014788       ??_C@_08LGAGEKPE@WSAIoctl@ 0047d788     winnet.obj
 0002:00014794       ??_C@_0BN@GHGODND@Unable?5to?5initialise?5WinSock@ 0047d794     winnet.obj
 0002:000147b4       ??_C@_0CB@LEIDGBB@Network?5error?3?5Permission?5denie@ 0047d7b4     winnet.obj
 0002:000147d8       ??_C@_0CG@LOMEHGFM@Network?5error?3?5Address?5already?5@ 0047d7d8     winnet.obj
 0002:00014800       ??_C@_0CP@HDJDEAEC@Network?5error?3?5Cannot?5assign?5re@ 0047d800     winnet.obj
 0002:00014830       ??_C@_0DP@JGJJHDKC@Network?5error?3?5Address?5family?5n@ 0047d830     winnet.obj
 0002:00014870       ??_C@_0CN@KMKLCFOC@Network?5error?3?5Operation?5alread@ 0047d870     winnet.obj
 0002:000148a0       ??_C@_0DA@IKOBCIKC@Network?5error?3?5Software?5caused?5@ 0047d8a0     winnet.obj
 0002:000148d0       ??_C@_0CC@LLCJMKHD@Network?5error?3?5Connection?5refus@ 0047d8d0     winnet.obj
 0002:000148f4       ??_C@_0CI@GILKBBEO@Network?5error?3?5Connection?5reset@ 0047d8f4     winnet.obj
 0002:0001491c       ??_C@_0CM@PENHJLO@Network?5error?3?5Destination?5addr@ 0047d91c     winnet.obj
 0002:00014948       ??_C@_0BL@NCHKLIAI@Network?5error?3?5Bad?5address@ 0047d948     winnet.obj
 0002:00014964       ??_C@_0BM@IAFOJGID@Network?5error?3?5Host?5is?5down@ 0047d964     winnet.obj
 0002:00014980       ??_C@_0CA@NJIIBGPN@Network?5error?3?5No?5route?5to?5host@ 0047d980     winnet.obj
 0002:000149a0       ??_C@_0CJ@PBCDILHG@Network?5error?3?5Operation?5now?5in@ 0047d9a0     winnet.obj
 0002:000149cc       ??_C@_0CJ@BJPALIGK@Network?5error?3?5Interrupted?5func@ 0047d9cc     winnet.obj
 0002:000149f8       ??_C@_0CA@FAPGIABL@Network?5error?3?5Invalid?5argument@ 0047d9f8     winnet.obj
 0002:00014a18       ??_C@_0CL@CNIGAACP@Network?5error?3?5Socket?5is?5alread@ 0047da18     winnet.obj
 0002:00014a44       ??_C@_0CD@LPKFLDLA@Network?5error?3?5Too?5many?5open?5fi@ 0047da44     winnet.obj
 0002:00014a68       ??_C@_0CA@PPJKNKCC@Network?5error?3?5Message?5too?5long@ 0047da68     winnet.obj
 0002:00014a88       ??_C@_0BP@PGLOJAPE@Network?5error?3?5Network?5is?5down@ 0047da88     winnet.obj
 0002:00014aa8       ??_C@_0DD@NLBNMNIN@Network?5error?3?5Network?5dropped?5@ 0047daa8     winnet.obj
 0002:00014adc       ??_C@_0CG@JNGAGLPE@Network?5error?3?5Network?5is?5unrea@ 0047dadc     winnet.obj
 0002:00014b04       ??_C@_0CJ@KCOJNBBA@Network?5error?3?5No?5buffer?5space?5@ 0047db04     winnet.obj
 0002:00014b30       ??_C@_0CD@OGNOEADL@Network?5error?3?5Bad?5protocol?5opt@ 0047db30     winnet.obj
 0002:00014b54       ??_C@_0CH@FDLGGEDH@Network?5error?3?5Socket?5is?5not?5co@ 0047db54     winnet.obj
 0002:00014b7c       ??_C@_0CO@EGCFOHNE@Network?5error?3?5Socket?5operation@ 0047db7c     winnet.obj
 0002:00014bac       ??_C@_0CH@JLCIHOGJ@Network?5error?3?5Operation?5not?5su@ 0047dbac     winnet.obj
 0002:00014bd4       ??_C@_0CN@PBIIOGDK@Network?5error?3?5Protocol?5family?5@ 0047dbd4     winnet.obj
 0002:00014c04       ??_C@_0CC@GPOCLDNA@Network?5error?3?5Too?5many?5process@ 0047dc04     winnet.obj
 0002:00014c28       ??_C@_0CG@CIDEMPKB@Network?5error?3?5Protocol?5not?5sup@ 0047dc28     winnet.obj
 0002:00014c50       ??_C@_0CO@HHKHFFCH@Network?5error?3?5Protocol?5wrong?5t@ 0047dc50     winnet.obj
 0002:00014c80       ??_C@_0DB@FALABHLP@Network?5error?3?5Cannot?5send?5afte@ 0047dc80     winnet.obj
 0002:00014cb4       ??_C@_0CJ@ELCODKEL@Network?5error?3?5Socket?5type?5not?5@ 0047dcb4     winnet.obj
 0002:00014ce0       ??_C@_0CE@OOJFMNCL@Network?5error?3?5Connection?5timed@ 0047dce0     winnet.obj
 0002:00014d04       ??_C@_0DA@MGCLKFJF@Network?5error?3?5Resource?5tempora@ 0047dd04     winnet.obj
 0002:00014d34       ??_C@_0CN@DLPPJFKK@Network?5error?3?5Graceful?5shutdow@ 0047dd34     winnet.obj
 0002:00014d64       ??_C@_0BA@LPIEBGEK@Network?5is?5down@ 0047dd64     winnet.obj
 0002:00014d74       ??_C@_0BE@OGOKFANL@Host?5does?5not?5exist@ 0047dd74     winnet.obj
 0002:00014d88       ??_C@_0P@CAFMJNJH@Host?5not?5found@ 0047dd88     winnet.obj
 0002:00014d98       ??_C@_0BN@IECEODIK@gethostbyname?3?5unknown?5error@ 0047dd98     winnet.obj
 0002:00014db8       ??_C@_09EEKGDCPH@?$DMunknown?$DO@ 0047ddb8     winnet.obj
 0002:00014dc4       ??_C@_1CI@IHIJOICM@?$AA?4?$AA?4?$AA?2?$AAw?$AAi?$AAn?$AAd?$AAo?$AAw?$AAs?$AA?2?$AAw?$AAi?$AAn?$AAn@ 0047ddc4     winnet.obj
 0002:00014df0       ??_C@_1GI@PFKEGLFL@?$AAa?$AAd?$AAd?$AAr?$AA?9?$AA?$DO?$AAa?$AAd?$AAd?$AAr?$AAe?$AAs?$AAs?$AAe?$AAs@ 0047ddf0     winnet.obj
 0002:00014e58       ??_C@_03KOIMFPNC@?3?31@    0047de58     winnet.obj
 0002:00014e5c       ??_C@_04NFJNFDMH@127?4@    0047de5c     winnet.obj
 0002:00014e64       ??_C@_1CI@ICIGJHFJ@?$AAf?$AAa?$AAm?$AAi?$AAl?$AAy?$AA?5?$AA?$DN?$AA?$DN?$AA?5?$AAA?$AAF?$AA_?$AAU?$AAN@ 0047de64     winnet.obj
 0002:00014e8c       ??_C@_1CI@FHGJHHED@?$AAf?$AAa?$AAm?$AAi?$AAl?$AAy?$AA?5?$AA?$CB?$AA?$DN?$AA?5?$AAA?$AAF?$AA_?$AAU?$AAN@ 0047de8c     winnet.obj
 0002:00014eb8       ??_C@_1FK@GDFPDNKP@?$AAf?$AAa?$AAl?$AAs?$AAe?$AA?5?$AA?$CG?$AA?$CG?$AA?5?$AA?$CC?$AAb?$AAa?$AAd?$AA?5?$AAa@ 0047deb8     winnet.obj
 0002:00014f18       ??_C@_1IM@GJHBFPNE@?$AAs?$AAo?$AAc?$AAk?$AA?9?$AA?$DO?$AAa?$AAd?$AAd?$AAr?$AA?9?$AA?$DO?$AAa?$AAd?$AAd@ 0047df18     winnet.obj
 0002:00014fa4       ??_C@_1DC@KAMAOOE@?$AAs?$AA?9?$AA?$DO?$AAo?$AAu?$AAt?$AAg?$AAo?$AAi?$AAn?$AAg?$AAe?$AAo?$AAf?$AA?5@ 0047dfa4     winnet.obj
 0002:00014fd8       ??_C@_1DE@IPMJEMIB@?$AAl?$AAe?$AAn?$AA?5?$AA?$DM?$AA?$DN?$AA?5?$AAs?$AAi?$AAz?$AAe?$AAo?$AAf?$AA?$CI?$AAs@ 0047dfd8     winnet.obj
 0002:0001500c       ??_C@_07OCKAJPEF@?$FL?$CFs?$FN?3?$CFd@ 0047e00c     winnet.obj
 0002:00015014       ??_C@_0CM@FPGHHHHA@unix?5sockets?5not?5supported?5on?5t@ 0047e014     winnet.obj
 0002:00015040       ??_C@_0N@INAGJMNN@advapi32?4dll@ 0047e040     winnoise.obj
 0002:00015050       ??_C@_0BF@ILOJAFDL@CryptAcquireContextA@ 0047e050     winnoise.obj
 0002:00015068       ??_C@_0P@HGPEDCEI@CryptGenRandom@ 0047e068     winnoise.obj
 0002:00015078       ??_C@_0BE@FBIJLPPP@CryptReleaseContext@ 0047e078     winnoise.obj
 0002:0001508c       ??_C@_02KHDDNBB@?2?$CK@    0047e08c     winnoise.obj
 0002:00015090       ??_C@_09IPJPBDHI@?2?2?4?2pipe?2@ 0047e090     winnpc.obj
 0002:0001509c       ??_C@_1CI@DAHAJKLC@?$AA?4?$AA?4?$AA?2?$AAw?$AAi?$AAn?$AAd?$AAo?$AAw?$AAs?$AA?2?$AAw?$AAi?$AAn?$AAn@ 0047e09c     winnpc.obj
 0002:000150c8       ??_C@_1FG@PECGFDCI@?$AAs?$AAt?$AAr?$AAn?$AAc?$AAm?$AAp?$AA?$CI?$AAp?$AAi?$AAp?$AAe?$AAn?$AAa?$AAm@ 0047e0c8     winnpc.obj
 0002:00015120       ??_C@_1EG@FEJFELMP@?$AAs?$AAt?$AAr?$AAc?$AAh?$AAr?$AA?$CI?$AAp?$AAi?$AAp?$AAe?$AAn?$AAa?$AAm?$AAe@ 0047e120     winnpc.obj
 0002:00015168       ??_C@_0CD@CMHMINL@Unable?5to?5open?5named?5pipe?5?8?$CFs?8?3@ 0047e168     winnpc.obj
 0002:0001518c       ??_C@_0CG@PPGBEKMM@Error?5waiting?5for?5named?5pipe?5?8?$CF@ 0047e18c     winnpc.obj
 0002:000151b4       ??_C@_0BL@OONAAHCA@Unable?5to?5get?5user?5SID?3?5?$CFs@ 0047e1b4     winnpc.obj
 0002:000151d0       ??_C@_0DC@JHPCCLDP@Unable?5to?5get?5named?5pipe?5securi@ 0047e1d0     winnpc.obj
 0002:00015204       ??_C@_0CD@FNMFGIEH@Owner?5of?5named?5pipe?5?8?$CFs?8?5is?5not@ 0047e204     winnpc.obj
 0002:0001524c       ??_C@_0CI@MDKELIDF@Error?5while?5listening?5to?5named?5@ 0047e24c     winnps.obj
 0002:00015274       ??_C@_1CI@EMMLKLJJ@?$AA?4?$AA?4?$AA?2?$AAw?$AAi?$AAn?$AAd?$AAo?$AAw?$AAs?$AA?2?$AAw?$AAi?$AAn?$AAn@ 0047e274     winnps.obj
 0002:0001529c       ??_C@_0CF@HOJLDFFN@unable?5to?5create?5named?5pipe?5?8?$CFs@ 0047e29c     winnps.obj
 0002:000152c4       ??_C@_07CMJJJJGA@Pageant@  0047e2c4     winpgntc.obj
 0002:000152cc       ??_C@_1CM@KPGPIHDA@?$AA?4?$AA?4?$AA?2?$AAw?$AAi?$AAn?$AAd?$AAo?$AAw?$AAs?$AA?2?$AAw?$AAi?$AAn?$AAp@ 0047e2cc     winpgntc.obj
 0002:000152f8       ??_C@_1HC@MPDDHACH@?$AAf?$AAa?$AAl?$AAs?$AAe?$AA?5?$AA?$CG?$AA?$CG?$AA?5?$AA?$CC?$AAW?$AAi?$AAn?$AAd?$AAo@ 0047e2f8     winpgntc.obj
 0002:0001536c       ??_C@_0BD@BGFFBEAP@PageantRequest?$CF08x@ 0047e36c     winpgntc.obj
 0002:00015380       ??_C@_0CB@OINICMIG@Starting?5local?5proxy?5command?3?5?$CF@ 0047e380     winproxy.obj
 0002:000153a4       ??_C@_0CN@MBDHHPPD@Unable?5to?5create?5pipes?5for?5prox@ 0047e3a4     winproxy.obj
 0002:000153d8       ??_C@_0BA@JKIAABFB@GetSecurityInfo@ 0047e3d8     winsecur.obj
 0002:000153e8       ??_C@_0BA@KIJGHDEI@SetSecurityInfo@ 0047e3e8     winsecur.obj
 0002:000153f8       ??_C@_0BB@EANJDCJP@OpenProcessToken@ 0047e3f8     winsecur.obj
 0002:0001540c       ??_C@_0BE@JIDLIKOL@GetTokenInformation@ 0047e40c     winsecur.obj
 0002:00015420       ??_C@_0BN@FNLANPJJ@InitializeSecurityDescriptor@ 0047e420     winsecur.obj
 0002:00015440       ??_C@_0BL@OJAFMLIK@SetSecurityDescriptorOwner@ 0047e440     winsecur.obj
 0002:0001545c       ??_C@_0BB@EOLDBOGM@SetEntriesInAclA@ 0047e45c     winsecur.obj
 0002:00015470       ??_C@_0CN@EBHMOPCB@unable?5to?5construct?5SID?5for?5cur@ 0047e470     winsecur.obj
 0002:000154a0       ??_C@_0CG@PPMBMHK@unable?5to?5construct?5SID?5for?5wor@ 0047e4a0     winsecur.obj
 0002:000154c8       ??_C@_0DM@MHEDGFFC@unable?5to?5construct?5SID?5for?5loc@ 0047e4c8     winsecur.obj
 0002:00015504       ??_C@_0BM@FJHHIKCO@unable?5to?5construct?5ACL?3?5?$CFs@ 0047e504     winsecur.obj
 0002:00015520       ??_C@_0CL@HPBFGMCA@unable?5to?5allocate?5security?5des@ 0047e520     winsecur.obj
 0002:0001554c       ??_C@_0CN@FPIOFEA@unable?5to?5initialise?5security?5d@ 0047e54c     winsecur.obj
 0002:0001557c       ??_C@_0CP@KOMIEDBP@unable?5to?5set?5owner?5in?5security@ 0047e57c     winsecur.obj
 0002:000155ac       ??_C@_0CO@GJDNLLCE@unable?5to?5set?5DACL?5in?5security?5@ 0047e5ac     winsecur.obj
 0002:000155dc       ??_C@_0BO@NMCINCCB@Unable?5to?5set?5process?5ACL?3?5?$CFs@ 0047e5dc     winsecur.obj
 0002:000155fc       ??_C@_0CD@GHBDCPLN@Could?5not?5restrict?5process?5ACL?3@ 0047e5fc     winsecur.obj
 0002:00015620       _platform_uses_x11_unix_by_default 0047e620     winsftp.obj
 0002:00015654       ??_C@_02FMMEOLBI@?1?$CK@   0047e654     winsftp.obj
 0002:00015658       ??_C@_1CK@OLMPLIAB@?$AA?4?$AA?4?$AA?2?$AAw?$AAi?$AAn?$AAd?$AAo?$AAw?$AAs?$AA?2?$AAw?$AAi?$AAn?$AAs@ 0047e658     winsftp.obj
 0002:00015684       ??_C@_1BE@DKLGFLDL@?$AAd?$AAi?$AAr?$AA?9?$AA?$DO?$AAn?$AAa?$AAm?$AAe@ 0047e684     winsftp.obj
 0002:00015698       ??_C@_0CA@JLPGHJO@WSAEventSelect?$CI?$CJ?3?5unknown?5error@ 0047e698     winsftp.obj
 0002:000156b8       ??_C@_0CH@HHJCNODJ@Unable?5to?5create?5command?5input?5@ 0047e6b8     winsftp.obj
 0002:000156e0       ??_C@_1BC@GDMHHBPO@?$AAr?$AAe?$AAt?$AA?5?$AA?$DO?$AA?$DN?$AA?5?$AA0@ 0047e6e0     winsftp.obj
 0002:000156f4       ??_C@_0CE@LJCJKEEJ@Running?5with?5restricted?5process@ 0047e6f4     winsftp.obj
 0002:00015718       ??_C@_08PPKHIAKG@?$CFs?4?$CFs?4?$CFs@ 0047e718     winshare.obj
 0002:00015724       ??_C@_0CG@PEHOALF@Unable?5to?5call?5CryptProtectMemo@ 0047e724     winshare.obj
 0002:0001574c       ??_C@_0BM@CGGPEGOM@Local?2putty?9connshare?9mutex@ 0047e74c     winshare.obj
 0002:00015768       ??_C@_0BN@DANGFOPC@CreateMutex?$CI?$CC?$CFs?$CC?$CJ?5failed?3?5?$CFs@ 0047e768     winshare.obj
 0002:00015788       ??_C@_0BJ@CKODKJFM@?2?2?4?2pipe?2putty?9connshare@ 0047e788     winshare.obj
 0002:000157a4       ??_C@_06DJHOIPC@?$CFs?3?5?$CFs@ 0047e7a4     winshare.obj
 0002:000157ac       ??_C@_1CM@GJNGGBIF@?$AA?4?$AA?4?$AA?2?$AAw?$AAi?$AAn?$AAd?$AAo?$AAw?$AAs?$AA?2?$AAw?$AAi?$AAn?$AAs@ 0047e7ac     winshare.obj
 0002:000157d8       ??_C@_1DO@MAMHAGHB@?$AA?$CK?$AAl?$AAo?$AAg?$AAt?$AAe?$AAx?$AAt?$AA?5?$AA?$HM?$AA?$HM?$AA?5?$AA?$CK?$AAd?$AAs@ 0047e7d8     winshare.obj
 0002:00015824       ??_C@_0CE@BPBAEMAL@Software?2SimonTatham?2PuTTY?2Jump@ 0047e824     winstore.obj
 0002:00015848       ??_C@_0BA@LOIOCGKN@Recent?5sessions@ 0047e848     winstore.obj
 0002:00015858       ??_C@_0CE@GEIJGKHP@Software?2SimonTatham?2PuTTY?2Sess@ 0047e858     winstore.obj
 0002:0001587c       ??_C@_1CM@MMKABPNK@?$AA?4?$AA?4?$AA?2?$AAw?$AAi?$AAn?$AAd?$AAo?$AAw?$AAs?$AA?2?$AAw?$AAi?$AAn?$AAs@ 0047e87c     winstore.obj
 0002:000158a8       ??_C@_1CC@CDPAJJ@?$AAs?$AAi?$AAz?$AAe?$AA?5?$AA?$DM?$AA?5?$AAa?$AAl?$AAl?$AAo?$AAc?$AAs?$AAi?$AAz@ 0047e8a8     winstore.obj
 0002:000158cc       ??_C@_06DPJMBPNP@IsBold@   0047e8cc     winstore.obj
 0002:000158d4       ??_C@_07BJNLJNDP@CharSet@  0047e8d4     winstore.obj
 0002:000158dc       ??_C@_06HCAKHJJK@Height@   0047e8dc     winstore.obj
 0002:000158e4       ??_C@_06NHMIPDBF@?$CFs?$EA?$CFd?3@ 0047e8e4     winstore.obj
 0002:000158ec       ??_C@_0CH@GHHFOOGE@Software?2SimonTatham?2PuTTY?2SshH@ 0047e8ec     winstore.obj
 0002:00015914       ??_C@_0BK@HAJEJKBA@Unable?5to?5delete?5?8?$CFs?8?3?5?$CFs@ 0047e914     winstore.obj
 0002:00015930       ??_C@_0BL@PHBGIKKP@Software?2SimonTatham?2PuTTY@ 0047e930     winstore.obj
 0002:0001594c       ??_C@_0N@KBOBEHLA@RandSeedFile@ 0047e94c     winstore.obj
 0002:0001595c       ??_C@_0M@KFDNOLCO@shell32?4dll@ 0047e95c     winstore.obj
 0002:00015968       ??_C@_0BB@IHMEONLD@SHGetFolderPathA@ 0047e968     winstore.obj
 0002:0001597c       ??_C@_0L@LLJOJGKB@?2PUTTY?4RND@ 0047e97c     winstore.obj
 0002:00015988       ??_C@_09OBKBLLMN@HOMEDRIVE@ 0047e988     winstore.obj
 0002:00015994       ??_C@_08LOOGKGJL@HOMEPATH@ 0047e994     winstore.obj
 0002:00017404       ??_C@_05EGJIMALK@UTF?98@   00480404     winucs.obj
 0002:0001740c       ??_C@_0CH@GCLBIFGI@ISO?98859?91?31998?5?$CILatin?91?0?5West?5@ 0048040c     winucs.obj
 0002:00017434       ??_C@_0CH@HNAOKMGC@ISO?98859?92?31999?5?$CILatin?92?0?5East?5@ 00480434     winucs.obj
 0002:0001745c       ??_C@_0CI@HNCBEAHI@ISO?98859?93?31999?5?$CILatin?93?0?5South@ 0048045c     winucs.obj
 0002:00017484       ??_C@_0CI@DHMJKFCL@ISO?98859?94?31998?5?$CILatin?94?0?5North@ 00480484     winucs.obj
 0002:000174ac       ??_C@_0CB@EIJLGCOC@ISO?98859?95?31999?5?$CILatin?1Cyrillic@ 004804ac     winucs.obj
 0002:000174d0       ??_C@_0BP@BOOIEIFL@ISO?98859?96?31999?5?$CILatin?1Arabic?$CJ@ 004804d0     winucs.obj
 0002:000174f0       ??_C@_0BO@JBGDMNCK@ISO?98859?97?31987?5?$CILatin?1Greek?$CJ@ 004804f0     winucs.obj
 0002:00017510       ??_C@_0BP@NPOBNMII@ISO?98859?98?31999?5?$CILatin?1Hebrew?$CJ@ 00480510     winucs.obj
 0002:00017530       ??_C@_0CD@IFELGNKG@ISO?98859?99?31999?5?$CILatin?95?0?5Turki@ 00480530     winucs.obj
 0002:00017554       ??_C@_0CD@MDNHJMEF@ISO?98859?910?31998?5?$CILatin?96?0?5Nord@ 00480554     winucs.obj
 0002:00017578       ??_C@_0BO@OIMJCDI@ISO?98859?911?32001?5?$CILatin?1Thai?$CJ@ 00480578     winucs.obj
 0002:00017598       ??_C@_0CD@GJBIGPKN@ISO?98859?913?31998?5?$CILatin?97?0?5Balt@ 00480598     winucs.obj
 0002:000175bc       ??_C@_0CD@MFFEDEO@ISO?98859?914?31998?5?$CILatin?98?0?5Celt@ 004805bc     winucs.obj
 0002:000175e0       ??_C@_0CD@OONMIJDL@ISO?98859?915?31999?5?$CILatin?99?0?5?$CCeur@ 004805e0     winucs.obj
 0002:00017604       ??_C@_0CE@IJJJJOAH@ISO?98859?916?32001?5?$CILatin?910?0?5Bal@ 00480604     winucs.obj
 0002:00017628       ??_C@_06ENLECPGP@KOI8?9U@  00480628     winucs.obj
 0002:00017630       ??_C@_06CPFLJKI@KOI8?9R@   00480630     winucs.obj
 0002:00017638       ??_C@_09CFCNBJJK@HP?9ROMAN8@ 00480638     winucs.obj
 0002:00017644       ??_C@_05DMAILFHN@VSCII@    00480644     winucs.obj
 0002:0001764c       ??_C@_07BLJAJIMG@DEC?9MCS@ 0048064c     winucs.obj
 0002:00017654       ??_C@_0BL@KMKIPHHM@Win1250?5?$CICentral?5European?$CJ@ 00480654     winucs.obj
 0002:00017670       ??_C@_0BD@EEPECLHH@Win1251?5?$CICyrillic?$CJ@ 00480670     winucs.obj
 0002:00017684       ??_C@_0BC@LECCJAMP@Win1252?5?$CIWestern?$CJ@ 00480684     winucs.obj
 0002:00017698       ??_C@_0BA@JPCABGJB@Win1253?5?$CIGreek?$CJ@ 00480698     winucs.obj
 0002:000176a8       ??_C@_0BC@DDBPHFON@Win1254?5?$CITurkish?$CJ@ 004806a8     winucs.obj
 0002:000176bc       ??_C@_0BB@BJAFGJCD@Win1255?5?$CIHebrew?$CJ@ 004806bc     winucs.obj
 0002:000176d0       ??_C@_0BB@IKFMOHHB@Win1256?5?$CIArabic?$CJ@ 004806d0     winucs.obj
 0002:000176e4       ??_C@_0BB@MAFFMIPN@Win1257?5?$CIBaltic?$CJ@ 004806e4     winucs.obj
 0002:000176f8       ??_C@_0BF@IBMJIMJH@Win1258?5?$CIVietnamese?$CJ@ 004806f8     winucs.obj
 0002:00017710       ??_C@_05DGIBHNFO@CP437@    00480710     winucs.obj
 0002:00017718       ??_C@_0BA@NPKMFKIE@CP620?5?$CIMazovia?$CJ@ 00480718     winucs.obj
 0002:00017728       ??_C@_05OBFADLAG@CP819@    00480728     winucs.obj
 0002:00017730       ??_C@_05FKNEKBB@CP852@     00480730     winucs.obj
 0002:00017738       ??_C@_05PMMGHGPF@CP878@    00480738     winucs.obj
 0002:00017740       ??_C@_0BC@FLJKDPEN@Use?5font?5encoding@ 00480740     winucs.obj
 0002:00017758       _x11_authnames             00480758     x11fwd.obj
 0002:000177d0       ??_C@_0BD@IHNBGCAI@MIT?9MAGIC?9COOKIE?91@ 004807d0     x11fwd.obj
 0002:000177e4       ??_C@_0BE@CHBJIAMK@XDM?9AUTHORIZATION?91@ 004807e4     x11fwd.obj
 0002:000177f8       ??_C@_1BI@KBADPDMH@?$AA?4?$AA?4?$AA?2?$AAx?$AA1?$AA1?$AAf?$AAw?$AAd?$AA?4?$AAc@ 004807f8     x11fwd.obj
 0002:00017810       ??_C@_1CI@DCFBGJCA@?$AAa?$AAu?$AAt?$AAh?$AAt?$AAy?$AAp?$AAe?$AA?5?$AA?$DN?$AA?$DN?$AA?5?$AAX?$AA1?$AA1@ 00480810     x11fwd.obj
 0002:00017838       ??_C@_1CI@BFINFJOD@?$AAa?$AA?9?$AA?$DO?$AAp?$AAr?$AAo?$AAt?$AAo?$AA?5?$AA?$DN?$AA?$DN?$AA?5?$AAX?$AA1?$AA1@ 00480838     x11fwd.obj
 0002:00017860       ??_C@_02PGAEHAFI@?30@      00480860     x11fwd.obj
 0002:00017864       ??_C@_0CK@LINIAGGK@display?5name?5?8?$CFs?8?5has?5no?5?8?3numb@ 00480864     x11fwd.obj
 0002:00017890       ??_C@_04HDPGOEDM@unix@     00480890     x11fwd.obj
 0002:00017898       ??_C@_0DB@JHLJDNPL@unable?5to?5resolve?5host?5name?5?8?$CFs@ 00480898     x11fwd.obj
 0002:000178cc       ??_C@_07ODDMEPCL@unix?3?$CFd@ 004808cc     x11fwd.obj
 0002:000178d4       ??_C@_0CD@BKLLCBAA@Unsupported?5authorisation?5proto@ 004808d4     x11fwd.obj
 0002:000178f8       ??_C@_0BN@IIEOAEDE@Authorisation?5not?5recognised@ 004808f8     x11fwd.obj
 0002:00017918       ??_C@_0CK@HFGIDIOE@XDM?9AUTHORIZATION?91?5data?5was?5wr@ 00480918     x11fwd.obj
 0002:00017944       ??_C@_0DK@FKIJBPCP@cannot?5do?5XDM?9AUTHORIZATION?91?5w@ 00480944     x11fwd.obj
 0002:00017980       ??_C@_0CG@CMMOMN@XDM?9AUTHORIZATION?91?5data?5failed@ 00480980     x11fwd.obj
 0002:000179a8       ??_C@_0CP@KPOKENFM@XDM?9AUTHORIZATION?91?5time?5stamp?5@ 004809a8     x11fwd.obj
 0002:000179d8       ??_C@_1CM@MJOKCDEK@?$AAa?$AAu?$AAt?$AAh?$AA?9?$AA?$DO?$AAx?$AAd?$AAm?$AAs?$AAe?$AAe?$AAn?$AA?5?$AA?$CB@ 004809d8     x11fwd.obj
 0002:00017a04       ??_C@_0CC@JBPDCLHH@XDM?9AUTHORIZATION?91?5data?5replay@ 00480a04     x11fwd.obj
 0002:00017a28       ??_C@_1BK@JIHFHIDO@?$AAs?$AAe?$AAe?$AAn?$AA?5?$AA?$CB?$AA?$DN?$AA?5?$AAN?$AAU?$AAL?$AAL@ 00480a28     x11fwd.obj
 0002:00017a44       ??_C@_0CM@ILADKGBF@unable?5to?5connect?5to?5forwarded?5@ 00480a44     x11fwd.obj
 0002:00017a70       ??_C@_1EK@KMPCGPME@?$AAc?$AAh?$AAa?$AAn?$AA?9?$AA?$DO?$AAv?$AAt?$AA?5?$AA?$DN?$AA?$DN?$AA?5?$AA?$CG?$AAX?$AA1@ 00480a70     x11fwd.obj
 0002:00017abc       ??_C@_0BC@GCMLFJHE@?$CFs?5X11?5proxy?3?5?$CFs?6@ 00480abc     x11fwd.obj
 0002:00017ad0       ??_C@_0M@PCENNPGA@?$CFd?4?$CFd?4?$CFd?4?$CFd@ 00480ad0     x11fwd.obj
 0002:00017adc       ??_C@_1BE@LAIMKCCM@?$AA?$CB?$AAx?$AAc?$AAo?$AAn?$AAn?$AA?9?$AA?$DO?$AAs@ 00480adc     x11fwd.obj
 0002:00017af0       ??_C@_1BK@HHMJHHC@?$AAa?$AAu?$AAt?$AAh?$AA_?$AAm?$AAa?$AAt?$AAc?$AAh?$AAe?$AAd@ 00480af0     x11fwd.obj
 0002:00017b0c       ??_C@_0CE@LIFBFNHP@Forwarded?5X11?5connection?5termin@ 00480b0c     x11fwd.obj
 0002:00017b30       ??_C@_02NJNOFBBI@?$CFx@    00480b30     x11fwd.obj
 0002:00017ce0       ??_C@_08EHJDFFNH@__based?$CI@ 00480ce0     libvcruntime:undname.obj
 0002:00017cec       ??_C@_07KOLFKCDI@__cdecl@  00480cec     libvcruntime:undname.obj
 0002:00017cf4       ??_C@_08GHMPAG@__pascal@   00480cf4     libvcruntime:undname.obj
 0002:00017d00       ??_C@_09IFJBGAPI@__stdcall@ 00480d00     libvcruntime:undname.obj
 0002:00017d0c       ??_C@_0L@NPHFGOKO@__thiscall@ 00480d0c     libvcruntime:undname.obj
 0002:00017d18       ??_C@_0L@JMKHOMEK@__fastcall@ 00480d18     libvcruntime:undname.obj
 0002:00017d24       ??_C@_0N@BCKKPABJ@__vectorcall@ 00480d24     libvcruntime:undname.obj
 0002:00017d34       ??_C@_09HIJEGCPM@__clrcall@ 00480d34     libvcruntime:undname.obj
 0002:00017d40       ??_C@_06GHPCKEAG@__eabi@   00480d40     libvcruntime:undname.obj
 0002:00017d48       ??_C@_09IOPIDJLG@__swift_1@ 00480d48     libvcruntime:undname.obj
 0002:00017d54       ??_C@_09KFNFGKHF@__swift_2@ 00480d54     libvcruntime:undname.obj
 0002:00017d60       ??_C@_07JOMMBBKO@__ptr64@  00480d60     libvcruntime:undname.obj
 0002:00017d68       ??_C@_0L@PILCLIHE@__restrict@ 00480d68     libvcruntime:undname.obj
 0002:00017d74       ??_C@_0M@GFIIJFMG@__unaligned@ 00480d74     libvcruntime:undname.obj
 0002:00017d80       ??_C@_09DHDLOLLB@restrict?$CI@ 00480d80     libvcruntime:undname.obj
 0002:00017d8c       ??_C@_04NIHEBCM@?5new@     00480d8c     libvcruntime:undname.obj
 0002:00017d94       ??_C@_07FPCDHGMM@?5delete@ 00480d94     libvcruntime:undname.obj
 0002:00017d9c       ??_C@_01NEMOKFLO@?$DN@     00480d9c     libvcruntime:undname.obj
 0002:00017da0       ??_C@_02GPIOPFAK@?$DO?$DO@ 00480da0     libvcruntime:undname.obj
 0002:00017da4       ??_C@_02FODMEDOG@?$DM?$DM@ 00480da4     libvcruntime:undname.obj
 0002:00017da8       ??_C@_02EGOFBIJA@?$DN?$DN@ 00480da8     libvcruntime:undname.obj
 0002:00017dac       ??_C@_02FDNJECIE@?$CB?$DN@ 00480dac     libvcruntime:undname.obj
 0002:00017db0       ??_C@_02GPECMEKF@?$FL?$FN@ 00480db0     libvcruntime:undname.obj
 0002:00017db4       ??_C@_08LHJFAFGD@operator@ 00480db4     libvcruntime:undname.obj
 0002:00017dc0       ??_C@_02HBOOOICD@?9?$DO@   00480dc0     libvcruntime:undname.obj
 0002:00017dc4       ??_C@_01NBENCBCI@?$CK@     00480dc4     libvcruntime:undname.obj
 0002:00017dc8       ??_C@_02ECNGHCIF@?$CL?$CL@ 00480dc8     libvcruntime:undname.obj
 0002:00017dcc       ??_C@_01HNPIGOCE@?$CG@     00480dcc     libvcruntime:undname.obj
 0002:00017dd0       ??_C@_03MNHNFDLC@?9?$DO?$CK@ 00480dd0     libvcruntime:undname.obj
 0002:00017dd4       ??_C@_01FGNFDNOH@?$CF@     00480dd4     libvcruntime:undname.obj
 0002:00017dd8       ??_C@_01MNNFJEPP@?$DM@     00480dd8     libvcruntime:undname.obj
 0002:00017ddc       ??_C@_02EHCHHCKH@?$DM?$DN@ 00480ddc     libvcruntime:undname.obj
 0002:00017de0       ??_C@_01PPODPGHN@?$DO@     00480de0     libvcruntime:undname.obj
 0002:00017de4       ??_C@_02EEKDKGMJ@?$DO?$DN@ 00480de4     libvcruntime:undname.obj
 0002:00017de8       ??_C@_02HCKGKOFO@?$CI?$CJ@ 00480de8     libvcruntime:undname.obj
 0002:00017dec       ??_C@_01PJKLJHI@?$HO@      00480dec     libvcruntime:undname.obj
 0002:00017df0       ??_C@_01JKBOJNNK@?$FO@     00480df0     libvcruntime:undname.obj
 0002:00017df4       ??_C@_01DNKMNLPK@?$HM@     00480df4     libvcruntime:undname.obj
 0002:00017df8       ??_C@_02PPKAJPJL@?$CG?$CG@ 00480df8     libvcruntime:undname.obj
 0002:00017dfc       ??_C@_02NONPIBCD@?$HM?$HM@ 00480dfc     libvcruntime:undname.obj
 0002:00017e00       ??_C@_02FPIMKNGF@?$CK?$DN@ 00480e00     libvcruntime:undname.obj
 0002:00017e04       ??_C@_02FOEOMHFC@?$CL?$DN@ 00480e04     libvcruntime:undname.obj
 0002:00017e08       ??_C@_02FKMDLLOA@?9?$DN@   00480e08     libvcruntime:undname.obj
 0002:00017e0c       ??_C@_02FJEHGPIO@?1?$DN@   00480e0c     libvcruntime:undname.obj
 0002:00017e10       ??_C@_02FENAOKFI@?$CF?$DN@ 00480e10     libvcruntime:undname.obj
 0002:00017e14       ??_C@_03IKFCCPFF@?$DO?$DO?$DN@ 00480e14     libvcruntime:undname.obj
 0002:00017e18       ??_C@_03CDNPDDLA@?$DM?$DM?$DN@ 00480e18     libvcruntime:undname.obj
 0002:00017e1c       ??_C@_02FGJGFEAB@?$CG?$DN@ 00480e1c     libvcruntime:undname.obj
 0002:00017e20       ??_C@_02DHLNPPGH@?$HM?$DN@ 00480e20     libvcruntime:undname.obj
 0002:00017e24       ??_C@_02MHEGNOJ@?$FO?$DN@  00480e24     libvcruntime:undname.obj
 0002:00017e28       ??_C@_09IFPLHPGF@?$GAvftable?8@ 00480e28     libvcruntime:undname.obj
 0002:00017e34       ??_C@_09BLBHBJP@?$GAvbtable?8@ 00480e34     libvcruntime:undname.obj
 0002:00017e40       ??_C@_07FEEIOKP@?$GAvcall?8@ 00480e40     libvcruntime:undname.obj
 0002:00017e48       ??_C@_08LLFFHHDJ@?$GAtypeof?8@ 00480e48     libvcruntime:undname.obj
 0002:00017e54       ??_C@_0BF@KDPPACIK@?$GAlocal?5static?5guard?8@ 00480e54     libvcruntime:undname.obj
 0002:00017e6c       ??_C@_08OBABFOLI@?$GAstring?8@ 00480e6c     libvcruntime:undname.obj
 0002:00017e78       ??_C@_0BD@JDLKDPAB@?$GAvbase?5destructor?8@ 00480e78     libvcruntime:undname.obj
 0002:00017e8c       ??_C@_0BN@DEGPLNFK@?$GAvector?5deleting?5destructor?8@ 00480e8c     libvcruntime:undname.obj
 0002:00017eac       ??_C@_0BO@OBMKPJIG@?$GAdefault?5constructor?5closure?8@ 00480eac     libvcruntime:undname.obj
 0002:00017ecc       ??_C@_0BN@IMDCHIKM@?$GAscalar?5deleting?5destructor?8@ 00480ecc     libvcruntime:undname.obj
 0002:00017eec       ??_C@_0BO@PFGOCPJJ@?$GAvector?5constructor?5iterator?8@ 00480eec     libvcruntime:undname.obj
 0002:00017f0c       ??_C@_0BN@LFPFMEDL@?$GAvector?5destructor?5iterator?8@ 00480f0c     libvcruntime:undname.obj
 0002:00017f2c       ??_C@_0CE@IKBNEHA@?$GAvector?5vbase?5constructor?5itera@ 00480f2c     libvcruntime:undname.obj
 0002:00017f50       ??_C@_0BL@NILFHHPC@?$GAvirtual?5displacement?5map?8@ 00480f50     libvcruntime:undname.obj
 0002:00017f6c       ??_C@_0CB@JONCMFFK@?$GAeh?5vector?5constructor?5iterator@ 00480f6c     libvcruntime:undname.obj
 0002:00017f90       ??_C@_0CA@GCEOPDGL@?$GAeh?5vector?5destructor?5iterator?8@ 00480f90     libvcruntime:undname.obj
 0002:00017fb0       ??_C@_0CH@OOJPLCPH@?$GAeh?5vector?5vbase?5constructor?5it@ 00480fb0     libvcruntime:undname.obj
 0002:00017fd8       ??_C@_0BL@LLKPOHJI@?$GAcopy?5constructor?5closure?8@ 00480fd8     libvcruntime:undname.obj
 0002:00017ff4       ??_C@_0BA@KBCDOMBN@?$GAudt?5returning?8@ 00480ff4     libvcruntime:undname.obj
 0002:00018004       ??_C@_03KLGMFNMG@?$GAEH@   00481004     libvcruntime:undname.obj
 0002:00018008       ??_C@_05KHLCHHI@?$GARTTI@  00481008     libvcruntime:undname.obj
 0002:00018010       ??_C@_0BA@KKLDJDLB@?$GAlocal?5vftable?8@ 00481010     libvcruntime:undname.obj
 0002:00018020       ??_C@_0CE@IIHCMGGL@?$GAlocal?5vftable?5constructor?5clos@ 00481020     libvcruntime:undname.obj
 0002:00018044       ??_C@_06FHBGPFGH@?5new?$FL?$FN@ 00481044     libvcruntime:undname.obj
 0002:0001804c       ??_C@_09LBNFPBCA@?5delete?$FL?$FN@ 0048104c     libvcruntime:undname.obj
 0002:00018058       ??_C@_0P@HJKNJFNN@?$GAomni?5callsig?8@ 00481058     libvcruntime:undname.obj
 0002:00018068       ??_C@_0BL@CNOONJFP@?$GAplacement?5delete?5closure?8@ 00481068     libvcruntime:undname.obj
 0002:00018084       ??_C@_0BN@CKNJLHMB@?$GAplacement?5delete?$FL?$FN?5closure?8@ 00481084     libvcruntime:undname.obj
 0002:000180a4       ??_C@_0CG@CFDHKGGD@?$GAmanaged?5vector?5constructor?5ite@ 004810a4     libvcruntime:undname.obj
 0002:000180cc       ??_C@_0CF@IMGKMJNO@?$GAmanaged?5vector?5destructor?5iter@ 004810cc     libvcruntime:undname.obj
 0002:000180f4       ??_C@_0CG@HLDDJMAG@?$GAeh?5vector?5copy?5constructor?5ite@ 004810f4     libvcruntime:undname.obj
 0002:0001811c       ??_C@_0CM@FCBBDIGB@?$GAeh?5vector?5vbase?5copy?5construct@ 0048111c     libvcruntime:undname.obj
 0002:00018148       ??_C@_0BL@CLIPGLGB@?$GAdynamic?5initializer?5for?5?8@ 00481148     libvcruntime:undname.obj
 0002:00018164       ??_C@_0CB@PDBIFEP@?$GAdynamic?5atexit?5destructor?5for?5@ 00481164     libvcruntime:undname.obj
 0002:00018188       ??_C@_0CD@CGAJBKEJ@?$GAvector?5copy?5constructor?5iterat@ 00481188     libvcruntime:undname.obj
 0002:000181ac       ??_C@_0CJ@GJELGAMM@?$GAvector?5vbase?5copy?5constructor?5@ 004811ac     libvcruntime:undname.obj
 0002:000181d8       ??_C@_0CL@FGIJHLCE@?$GAmanaged?5vector?5copy?5constructo@ 004811d8     libvcruntime:undname.obj
 0002:00018204       ??_C@_0BM@PMGGMLDN@?$GAlocal?5static?5thread?5guard?8@ 00481204     libvcruntime:undname.obj
 0002:00018220       ??_C@_0N@BDNMDMOL@operator?5?$CC?$CC?5@ 00481220     libvcruntime:undname.obj
 0002:00018230       ??_C@_0BC@GGEBGALA@operator?5co_await@ 00481230     libvcruntime:undname.obj
 0002:00018244       ??_C@_0M@GAAIMMOH@operator?$DM?$DN?$DO@ 00481244     libvcruntime:undname.obj
 0002:00018250       ??_C@_0BC@DAFEJGAK@?5Type?5Descriptor?8@ 00481250     libvcruntime:undname.obj
 0002:00018264       ??_C@_0BM@LDKODKLH@?5Base?5Class?5Descriptor?5at?5?$CI@ 00481264     libvcruntime:undname.obj
 0002:00018280       ??_C@_0BD@LGICGFMM@?5Base?5Class?5Array?8@ 00481280     libvcruntime:undname.obj
 0002:00018294       ??_C@_0BN@MECKDCOJ@?5Class?5Hierarchy?5Descriptor?8@ 00481294     libvcruntime:undname.obj
 0002:000182b4       ??_C@_0BK@CFCOFLF@?5Complete?5Object?5Locator?8@ 004812b4     libvcruntime:undname.obj
 0002:000182dc       ??_C@_1DM@KHCHBNEB@?$AAa?$AAp?$AAi?$AA?9?$AAm?$AAs?$AA?9?$AAw?$AAi?$AAn?$AA?9?$AAc?$AAo?$AAr?$AAe@ 004812dc     libvcruntime:winapi_downlevel.obj
 0002:00018318       ??_C@_1DK@LPPGFMPP@?$AAa?$AAp?$AAi?$AA?9?$AAm?$AAs?$AA?9?$AAw?$AAi?$AAn?$AA?9?$AAc?$AAo?$AAr?$AAe@ 00481318     libvcruntime:winapi_downlevel.obj
 0002:00018354       ??_C@_1BC@GDMECMAK@?$AAk?$AAe?$AAr?$AAn?$AAe?$AAl?$AA3?$AA2@ 00481354     libvcruntime:winapi_downlevel.obj
 0002:00018368       ??_C@_1BA@PFFKHIOG@?$AAa?$AAp?$AAi?$AA?9?$AAm?$AAs?$AA?9@ 00481368     libvcruntime:winapi_downlevel.obj
 0002:00018380       ??_C@_08KNHFBNJ@FlsAlloc@  00481380     libvcruntime:winapi_downlevel.obj
 0002:00018394       ??_C@_07PEJMOBNF@FlsFree@  00481394     libvcruntime:winapi_downlevel.obj
 0002:000183a4       ??_C@_0M@GDNOONDI@FlsGetValue@ 004813a4     libvcruntime:winapi_downlevel.obj
 0002:000183b8       ??_C@_0M@JCPCPOEF@FlsSetValue@ 004813b8     libvcruntime:winapi_downlevel.obj
 0002:000183cc       ??_C@_0BM@HCFOFFN@InitializeCriticalSectionEx@ 004813cc     libvcruntime:winapi_downlevel.obj
 0002:000183ec       ??_7exception@std@@6B@     004813ec     libvcruntime:frame.obj
 0002:000183f4       ??_C@_0BC@EOODALEL@Unknown?5exception@ 004813f4     libvcruntime:frame.obj
 0002:0001840c       ??_7bad_exception@std@@6B@ 0048140c     libvcruntime:frame.obj
 0002:00018414       ??_C@_0O@DPKOEFFH@bad?5exception@ 00481414     libvcruntime:frame.obj
 0002:00018424       __pDestructExceptionObject 00481424     libvcruntime:ehhelpers.obj
 0002:00018448       ??_C@_1FE@LHBLIKM@?$AAA?$AAs?$AAs?$AAe?$AAr?$AAt?$AAi?$AAo?$AAn?$AA?5?$AAf?$AAa?$AAi?$AAl?$AAe@ 00481448     libucrt:assert.obj
 0002:000184a0       ??_C@_1EK@MBDPDCGA@?$AAM?$AAi?$AAc?$AAr?$AAo?$AAs?$AAo?$AAf?$AAt?$AA?5?$AAV?$AAi?$AAs?$AAu?$AAa@ 004814a0     libucrt:assert.obj
 0002:000184ec       ??_C@_1CE@OJBNHDMO@?$AAA?$AAs?$AAs?$AAe?$AAr?$AAt?$AAi?$AAo?$AAn?$AA?5?$AAf?$AAa?$AAi?$AAl?$AAe@ 004814ec     libucrt:assert.obj
 0002:00018510       ??_C@_1BE@PHKBBGE@?$AAP?$AAr?$AAo?$AAg?$AAr?$AAa?$AAm?$AA?3?$AA?5@ 00481510     libucrt:assert.obj
 0002:00018524       ??_C@_1O@HEMHKNDC@?$AAF?$AAi?$AAl?$AAe?$AA?3?$AA?5@ 00481524     libucrt:assert.obj
 0002:00018534       ??_C@_1O@KCAFKHJE@?$AAL?$AAi?$AAn?$AAe?$AA?3?$AA?5@ 00481534     libucrt:assert.obj
 0002:00018544       ??_C@_1BK@PEDCIPMA@?$AAE?$AAx?$AAp?$AAr?$AAe?$AAs?$AAs?$AAi?$AAo?$AAn?$AA?3?$AA?5@ 00481544     libucrt:assert.obj
 0002:00018560       ??_C@_1OA@EGMLFBHJ@?$AAF?$AAo?$AAr?$AA?5?$AAi?$AAn?$AAf?$AAo?$AAr?$AAm?$AAa?$AAt?$AAi?$AAo?$AAn@ 00481560     libucrt:assert.obj
 0002:00018640       ??_C@_1HK@POCJMFGK@?$AA?$CI?$AAP?$AAr?$AAe?$AAs?$AAs?$AA?5?$AAR?$AAe?$AAt?$AAr?$AAy?$AA?5?$AAt?$AAo@ 00481640     libucrt:assert.obj
 0002:000186bc       ??_C@_17LGKOMLJ@?$AA?4?$AA?4?$AA?4@ 004816bc     libucrt:assert.obj
 0002:000186c4       ??_C@_13LBAGMAIH@?$AA?6@   004816c4     libucrt:assert.obj
 0002:000186c8       ??_C@_15IABLJNFO@?$AA?6?$AA?6@ 004816c8     libucrt:assert.obj
 0002:000186d0       ??_C@_1CO@EAEJAADC@?$AA?$DM?$AAp?$AAr?$AAo?$AAg?$AAr?$AAa?$AAm?$AA?5?$AAn?$AAa?$AAm?$AAe?$AA?5?$AAu@ 004816d0     libucrt:assert.obj
 0002:00018700       _standard_lookup_table     00481700     libucrt:output.obj
 0002:0001875c       ??_C@_1O@CEDCILHN@?$AA?$CI?$AAn?$AAu?$AAl?$AAl?$AA?$CJ@ 0048175c     libucrt:output.obj
 0002:0001876c       ??_C@_06OJHGLDPL@?$CInull?$CJ@ 0048176c     libucrt:output.obj
 0002:00018778       ?large_power_data@?1??multiply_by_power_of_ten@__crt_strtox@@YA_NAAUbig_integer@2@I@Z@4QBIB 00481778     libucrt:input.obj
 0002:00019118       ?small_powers_of_ten@?1??multiply_by_power_of_ten@__crt_strtox@@YA_NAAUbig_integer@2@I@Z@4QBIB 00482118     libucrt:input.obj
 0002:00019140       ??_C@_1GE@DPGDJKLM@?$AAm?$AAi?$AAn?$AAk?$AAe?$AAr?$AAn?$AAe?$AAl?$AA?2?$AAc?$AAr?$AAt?$AAs?$AA?2@ 00482140     libucrt:input.obj
 0002:000191a8       ??_C@_1FM@FELNCOBF@?$AA_?$AA_?$AAc?$AAr?$AAt?$AA_?$AAs?$AAt?$AAr?$AAt?$AAo?$AAx?$AA?3?$AA?3?$AAf@ 004821a8     libucrt:input.obj
 0002:00019204       ??_C@_1BG@GEMHBGAF@?$AA_?$AAi?$AAs?$AA_?$AAd?$AAo?$AAu?$AAb?$AAl?$AAe@ 00482204     libucrt:input.obj
 0002:00019220       ??_C@_1FK@JOJELFFO@?$AA_?$AA_?$AAc?$AAr?$AAt?$AA_?$AAs?$AAt?$AAr?$AAt?$AAo?$AAx?$AA?3?$AA?3?$AAf@ 00482220     libucrt:input.obj
 0002:0001927c       ??_C@_1BI@BANMPGJI@?$AA?$CB?$AA_?$AAi?$AAs?$AA_?$AAd?$AAo?$AAu?$AAb?$AAl?$AAe@ 0048227c     libucrt:input.obj
 0002:00019298       ?constraints@?1??is_length_valid@__crt_stdio_input@@YA_NW4conversion_mode@2@W4length_modifier@2@@Z@4QAY0M@$$CBEA 00482298     libucrt:input.obj
 0002:00019310       ?inf_uppercase@?1???$parse_floating_point_possible_infinity@DV?$input_adapter_character_source@V?$string_input_adapter@D@__crt_stdio_input@@@__crt_strtox@@_K@__crt_strtox@@YA?AW4floating_point_parse_result@1@AADAAV?$input_adapter_character_source@V?$string_input_adapter@D@__crt_stdio_input@@@1@_K@Z@4QBDB 00482310     libucrt:input.obj
 0002:00019314       ?inf_lowercase@?1???$parse_floating_point_possible_infinity@DV?$input_adapter_character_source@V?$string_input_adapter@D@__crt_stdio_input@@@__crt_strtox@@_K@__crt_strtox@@YA?AW4floating_point_parse_result@1@AADAAV?$input_adapter_character_source@V?$string_input_adapter@D@__crt_stdio_input@@@1@_K@Z@4QBDB 00482314     libucrt:input.obj
 0002:00019318       ?inity_uppercase@?1???$parse_floating_point_possible_infinity@DV?$input_adapter_character_source@V?$string_input_adapter@D@__crt_stdio_input@@@__crt_strtox@@_K@__crt_strtox@@YA?AW4floating_point_parse_result@1@AADAAV?$input_adapter_character_source@V?$string_input_adapter@D@__crt_stdio_input@@@1@_K@Z@4QBDB 00482318     libucrt:input.obj
 0002:00019320       ?inity_lowercase@?1???$parse_floating_point_possible_infinity@DV?$input_adapter_character_source@V?$string_input_adapter@D@__crt_stdio_input@@@__crt_strtox@@_K@__crt_strtox@@YA?AW4floating_point_parse_result@1@AADAAV?$input_adapter_character_source@V?$string_input_adapter@D@__crt_stdio_input@@@1@_K@Z@4QBDB 00482320     libucrt:input.obj
 0002:00019328       ?uppercase@?1???$parse_floating_point_possible_nan@DV?$input_adapter_character_source@V?$string_input_adapter@D@__crt_stdio_input@@@__crt_strtox@@_K@__crt_strtox@@YA?AW4floating_point_parse_result@1@AADAAV?$input_adapter_character_source@V?$string_input_adapter@D@__crt_stdio_input@@@1@_K@Z@4QBDB 00482328     libucrt:input.obj
 0002:0001932c       ?lowercase@?1???$parse_floating_point_possible_nan@DV?$input_adapter_character_source@V?$string_input_adapter@D@__crt_stdio_input@@@__crt_strtox@@_K@__crt_strtox@@YA?AW4floating_point_parse_result@1@AADAAV?$input_adapter_character_source@V?$string_input_adapter@D@__crt_stdio_input@@@1@_K@Z@4QBDB 0048232c     libucrt:input.obj
 0002:00019330       ?uppercase@?1???$parse_floating_point_possible_nan_is_snan@DV?$input_adapter_character_source@V?$string_input_adapter@D@__crt_stdio_input@@@__crt_strtox@@@__crt_strtox@@YA_NAADAAV?$input_adapter_character_source@V?$string_input_adapter@D@__crt_stdio_input@@@1@@Z@4QBDB 00482330     libucrt:input.obj
 0002:00019338       ?lowercase@?1???$parse_floating_point_possible_nan_is_snan@DV?$input_adapter_character_source@V?$string_input_adapter@D@__crt_stdio_input@@@__crt_strtox@@@__crt_strtox@@YA_NAADAAV?$input_adapter_character_source@V?$string_input_adapter@D@__crt_stdio_input@@@1@@Z@4QBDB 00482338     libucrt:input.obj
 0002:00019340       ?uppercase@?1???$parse_floating_point_possible_nan_is_ind@DV?$input_adapter_character_source@V?$string_input_adapter@D@__crt_stdio_input@@@__crt_strtox@@@__crt_strtox@@YA_NAADAAV?$input_adapter_character_source@V?$string_input_adapter@D@__crt_stdio_input@@@1@@Z@4QBDB 00482340     libucrt:input.obj
 0002:00019344       ?lowercase@?1???$parse_floating_point_possible_nan_is_ind@DV?$input_adapter_character_source@V?$string_input_adapter@D@__crt_stdio_input@@@__crt_strtox@@@__crt_strtox@@YA_NAADAAV?$input_adapter_character_source@V?$string_input_adapter@D@__crt_stdio_input@@@1@@Z@4QBDB 00482344     libucrt:input.obj
 0002:00019348       ??_C@_13CGOKJPIL@?$AA?1@   00482348     libucrt:exit.obj
 0002:0001934c       ??_C@_1BI@BGOHAHKC@?$AAm?$AAs?$AAc?$AAo?$AAr?$AAe?$AAe?$AA?4?$AAd?$AAl?$AAl@ 0048234c     libucrt:exit.obj
 0002:00019364       ??_C@_0P@MIGLKIOC@CorExitProcess@ 00482364     libucrt:exit.obj
 0002:00019388       ___acrt_exception_action_table 00482388     libucrt:exception_filter.obj
 0002:00019418       ___acrt_signal_action_table_count 00482418     libucrt:exception_filter.obj
 0002:0001941c       ___acrt_signal_action_first_fpe_index 0048241c     libucrt:exception_filter.obj
 0002:00019420       ___acrt_signal_action_fpe_count 00482420     libucrt:exception_filter.obj
 0002:000194a8       ___lc_category             004824a8     libucrt:wsetlocale.obj
 0002:000194f0       ??_C@_1O@GIFLHMA@?$AAL?$AAC?$AA_?$AAA?$AAL?$AAL@ 004824f0     libucrt:wsetlocale.obj
 0002:00019500       ??_C@_1BG@PPOMIBNJ@?$AAL?$AAC?$AA_?$AAC?$AAO?$AAL?$AAL?$AAA?$AAT?$AAE@ 00482500     libucrt:wsetlocale.obj
 0002:00019518       ??_C@_1BC@FFJGAPJM@?$AAL?$AAC?$AA_?$AAC?$AAT?$AAY?$AAP?$AAE@ 00482518     libucrt:wsetlocale.obj
 0002:0001952c       ??_C@_1BI@PCKFNJFB@?$AAL?$AAC?$AA_?$AAM?$AAO?$AAN?$AAE?$AAT?$AAA?$AAR?$AAY@ 0048252c     libucrt:wsetlocale.obj
 0002:00019544       ??_C@_1BG@ENIEDKID@?$AAL?$AAC?$AA_?$AAN?$AAU?$AAM?$AAE?$AAR?$AAI?$AAC@ 00482544     libucrt:wsetlocale.obj
 0002:0001955c       ??_C@_1BA@HAAOMIIG@?$AAL?$AAC?$AA_?$AAT?$AAI?$AAM?$AAE@ 0048255c     libucrt:wsetlocale.obj
 0002:0001956c       ??_C@_15NBPDDFIP@?$AA?$DN?$AA?$DL@ 0048256c     libucrt:wsetlocale.obj
 0002:00019574       ??_C@_13PJJBFPED@?$AA?$DL@ 00482574     libucrt:wsetlocale.obj
 0002:00019578       ??_C@_13NMPKAAJP@?$AA?$DN@ 00482578     libucrt:wsetlocale.obj
 0002:0001957c       ??_C@_13IMODFHAA@?$AA?9@   0048257c     libucrt:wsetlocale.obj
 0002:00019580       ??_C@_17EFJLDFDO@?$AA?9?$AA_?$AA?4@ 00482580     libucrt:wsetlocale.obj
 0002:00019588       ??_C@_13FHBKNHDA@?$AAC@    00482588     libucrt:wsetlocale.obj
 0002:0001958c       ??_C@_17MBJJLFDM@?$AA_?$AA?4?$AA?0@ 0048258c     libucrt:wsetlocale.obj
 0002:00019594       ??_C@_13ENNFDPBH@?$AA_@    00482594     libucrt:wsetlocale.obj
 0002:00019598       ??_C@_13JOFGPIOO@?$AA?4@   00482598     libucrt:wsetlocale.obj
 0002:00019788       ?ccs@?1???$__acrt_stdio_parse_mode@D@@YA?AU__acrt_stdio_stream_mode@@QBD@Z@4QBDB 00482788     libucrt:openfile.obj
 0002:0001978c       ?utf8_encoding@?1???$__acrt_stdio_parse_mode@D@@YA?AU__acrt_stdio_stream_mode@@QBD@Z@4QBDB 0048278c     libucrt:openfile.obj
 0002:00019794       ?utf16_encoding@?1???$__acrt_stdio_parse_mode@D@@YA?AU__acrt_stdio_stream_mode@@QBD@Z@4QBDB 00482794     libucrt:openfile.obj
 0002:0001979c       ?unicode_encoding@?1???$__acrt_stdio_parse_mode@D@@YA?AU__acrt_stdio_stream_mode@@QBD@Z@4QBDB 0048279c     libucrt:openfile.obj
 0002:000197a8       ___newctype                004827a8     libucrt:ctype.obj
 0002:00019aa8       ___newclmap                00482aa8     libucrt:ctype.obj
 0002:00019c28       ___newcumap                00482c28     libucrt:ctype.obj
 0002:00019da8       __wctype                   00482da8     libucrt:ctype.obj
 0002:00019fb0       ___lc_time_c               00482fb0     libucrt:nlsdata.obj
 0002:0001a114       ??_C@_03KOEHGMDN@Sun@      00483114     libucrt:nlsdata.obj
 0002:0001a118       ??_C@_03PDAGKDH@Mon@       00483118     libucrt:nlsdata.obj
 0002:0001a11c       ??_C@_03NAGEINEP@Tue@      0048311c     libucrt:nlsdata.obj
 0002:0001a120       ??_C@_03MHOMLAJA@Wed@      00483120     libucrt:nlsdata.obj
 0002:0001a124       ??_C@_03IOFIKPDN@Thu@      00483124     libucrt:nlsdata.obj
 0002:0001a128       ??_C@_03IDIOELNC@Fri@      00483128     libucrt:nlsdata.obj
 0002:0001a12c       ??_C@_03FEFJNEK@Sat@       0048312c     libucrt:nlsdata.obj
 0002:0001a130       ??_C@_06OOPIFAJ@Sunday@    00483130     libucrt:nlsdata.obj
 0002:0001a138       ??_C@_06JLEDEDGH@Monday@   00483138     libucrt:nlsdata.obj
 0002:0001a140       ??_C@_07BAAGCFCM@Tuesday@  00483140     libucrt:nlsdata.obj
 0002:0001a148       ??_C@_09DLIGFAKA@Wednesday@ 00483148     libucrt:nlsdata.obj
 0002:0001a154       ??_C@_08HACCIKIA@Thursday@ 00483154     libucrt:nlsdata.obj
 0002:0001a160       ??_C@_06JECMNKMI@Friday@   00483160     libucrt:nlsdata.obj
 0002:0001a168       ??_C@_08INBOOONO@Saturday@ 00483168     libucrt:nlsdata.obj
 0002:0001a174       ??_C@_03JIHJHPIE@Jan@      00483174     libucrt:nlsdata.obj
 0002:0001a178       ??_C@_03HJBDCHOM@Feb@      00483178     libucrt:nlsdata.obj
 0002:0001a17c       ??_C@_03ODNJBKGA@Mar@      0048317c     libucrt:nlsdata.obj
 0002:0001a180       ??_C@_03LEOLGMJP@Apr@      00483180     libucrt:nlsdata.obj
 0002:0001a184       ??_C@_03CNMDKL@May@        00483184     libucrt:nlsdata.obj
 0002:0001a188       ??_C@_03IDFGHECI@Jun@      00483188     libucrt:nlsdata.obj
 0002:0001a18c       ??_C@_03LBGABGKK@Jul@      0048318c     libucrt:nlsdata.obj
 0002:0001a190       ??_C@_03IFJFEIGA@Aug@      00483190     libucrt:nlsdata.obj
 0002:0001a194       ??_C@_03GGCAPAJC@Sep@      00483194     libucrt:nlsdata.obj
 0002:0001a198       ??_C@_03BMAOKBAD@Oct@      00483198     libucrt:nlsdata.obj
 0002:0001a19c       ??_C@_03JPJOFNIA@Nov@      0048319c     libucrt:nlsdata.obj
 0002:0001a1a0       ??_C@_03MKABNOCG@Dec@      004831a0     libucrt:nlsdata.obj
 0002:0001a1a4       ??_C@_07CGJPFGJA@January@  004831a4     libucrt:nlsdata.obj
 0002:0001a1ac       ??_C@_08GNJGEPFN@February@ 004831ac     libucrt:nlsdata.obj
 0002:0001a1b8       ??_C@_05HPCKOFNC@March@    004831b8     libucrt:nlsdata.obj
 0002:0001a1c0       ??_C@_05DMJDNLEJ@April@    004831c0     libucrt:nlsdata.obj
 0002:0001a1c8       ??_C@_04CNLMGBGM@June@     004831c8     libucrt:nlsdata.obj
 0002:0001a1d0       ??_C@_04MIEPOIFP@July@     004831d0     libucrt:nlsdata.obj
 0002:0001a1d8       ??_C@_06LBBHFDDG@August@   004831d8     libucrt:nlsdata.obj
 0002:0001a1e0       ??_C@_09BHHEALKD@September@ 004831e0     libucrt:nlsdata.obj
 0002:0001a1ec       ??_C@_07JJNFCEND@October@  004831ec     libucrt:nlsdata.obj
 0002:0001a1f4       ??_C@_08HCHEGEOA@November@ 004831f4     libucrt:nlsdata.obj
 0002:0001a200       ??_C@_08EDHMEBNP@December@ 00483200     libucrt:nlsdata.obj
 0002:0001a20c       ??_C@_02DEDBPAFC@AM@       0048320c     libucrt:nlsdata.obj
 0002:0001a210       ??_C@_02CJNFDJBF@PM@       00483210     libucrt:nlsdata.obj
 0002:0001a214       ??_C@_08BPBNCDIB@MM?1dd?1yy@ 00483214     libucrt:nlsdata.obj
 0002:0001a220       ??_C@_0BE@CKGJFCPC@dddd?0?5MMMM?5dd?0?5yyyy@ 00483220     libucrt:nlsdata.obj
 0002:0001a234       ??_C@_08JCCMCCIL@HH?3mm?3ss@ 00483234     libucrt:nlsdata.obj
 0002:0001a240       ??_C@_17MBGCMIPB@?$AAS?$AAu?$AAn@ 00483240     libucrt:nlsdata.obj
 0002:0001a248       ??_C@_17KBOMKBF@?$AAM?$AAo?$AAn@ 00483248     libucrt:nlsdata.obj
 0002:0001a250       ??_C@_17BMKGEGOJ@?$AAT?$AAu?$AAe@ 00483250     libucrt:nlsdata.obj
 0002:0001a258       ??_C@_17CJEDCEPE@?$AAW?$AAe?$AAd@ 00483258     libucrt:nlsdata.obj
 0002:0001a260       ??_C@_17PDPHAADD@?$AAT?$AAh?$AAu@ 00483260     libucrt:nlsdata.obj
 0002:0001a268       ??_C@_17HFOLPPLP@?$AAF?$AAr?$AAi@ 00483268     libucrt:nlsdata.obj
 0002:0001a270       ??_C@_17GGIBDPIH@?$AAS?$AAa?$AAt@ 00483270     libucrt:nlsdata.obj
 0002:0001a278       ??_C@_1O@IHNHDHPB@?$AAS?$AAu?$AAn?$AAd?$AAa?$AAy@ 00483278     libucrt:nlsdata.obj
 0002:0001a288       ??_C@_1O@MMNBFLIA@?$AAM?$AAo?$AAn?$AAd?$AAa?$AAy@ 00483288     libucrt:nlsdata.obj
 0002:0001a298       ??_C@_1BA@ENFBFFEK@?$AAT?$AAu?$AAe?$AAs?$AAd?$AAa?$AAy@ 00483298     libucrt:nlsdata.obj
 0002:0001a2a8       ??_C@_1BE@EBOGMDOH@?$AAW?$AAe?$AAd?$AAn?$AAe?$AAs?$AAd?$AAa?$AAy@ 004832a8     libucrt:nlsdata.obj
 0002:0001a2bc       ??_C@_1BC@HHMNLIHE@?$AAT?$AAh?$AAu?$AAr?$AAs?$AAd?$AAa?$AAy@ 004832bc     libucrt:nlsdata.obj
 0002:0001a2d0       ??_C@_1O@PDICJHAG@?$AAF?$AAr?$AAi?$AAd?$AAa?$AAy@ 004832d0     libucrt:nlsdata.obj
 0002:0001a2e0       ??_C@_1BC@ENMNNPAJ@?$AAS?$AAa?$AAt?$AAu?$AAr?$AAd?$AAa?$AAy@ 004832e0     libucrt:nlsdata.obj
 0002:0001a2f4       ??_C@_17DKNBKCHM@?$AAJ?$AAa?$AAn@ 004832f4     libucrt:nlsdata.obj
 0002:0001a2fc       ??_C@_17LMDJEKJN@?$AAF?$AAe?$AAb@ 004832fc     libucrt:nlsdata.obj
 0002:0001a304       ??_C@_17CKNLEDEC@?$AAM?$AAa?$AAr@ 00483304     libucrt:nlsdata.obj
 0002:0001a30c       ??_C@_17LFPOIHDD@?$AAA?$AAp?$AAr@ 0048330c     libucrt:nlsdata.obj
 0002:0001a314       ??_C@_17PNNKMEED@?$AAM?$AAa?$AAy@ 00483314     libucrt:nlsdata.obj
 0002:0001a31c       ??_C@_17KCJGOCPB@?$AAJ?$AAu?$AAn@ 0048331c     libucrt:nlsdata.obj
 0002:0001a324       ??_C@_17IJPCKHK@?$AAJ?$AAu?$AAl@ 00483324     libucrt:nlsdata.obj
 0002:0001a32c       ??_C@_17ICPELBCN@?$AAA?$AAu?$AAg@ 0048332c     libucrt:nlsdata.obj
 0002:0001a334       ??_C@_17HCHCOKMG@?$AAS?$AAe?$AAp@ 00483334     libucrt:nlsdata.obj
 0002:0001a33c       ??_C@_17FNLKOI@?$AAO?$AAc?$AAt@ 0048333c     libucrt:nlsdata.obj
 0002:0001a344       ??_C@_17BBDMLCIG@?$AAN?$AAo?$AAv@ 00483344     libucrt:nlsdata.obj
 0002:0001a34c       ??_C@_17EGKACKIF@?$AAD?$AAe?$AAc@ 0048334c     libucrt:nlsdata.obj
 0002:0001a354       ??_C@_1BA@EFMEIEBA@?$AAJ?$AAa?$AAn?$AAu?$AAa?$AAr?$AAy@ 00483354     libucrt:nlsdata.obj
 0002:0001a364       ??_C@_1BC@JGDDFFAM@?$AAF?$AAe?$AAb?$AAr?$AAu?$AAa?$AAr?$AAy@ 00483364     libucrt:nlsdata.obj
 0002:0001a378       ??_C@_1M@IKEENEDF@?$AAM?$AAa?$AAr?$AAc?$AAh@ 00483378     libucrt:nlsdata.obj
 0002:0001a384       ??_C@_1M@GJNLMHFD@?$AAA?$AAp?$AAr?$AAi?$AAl@ 00483384     libucrt:nlsdata.obj
 0002:0001a390       ??_C@_19EPFLPGAP@?$AAJ?$AAu?$AAn?$AAe@ 00483390     libucrt:nlsdata.obj
 0002:0001a39c       ??_C@_19BIFMLPCD@?$AAJ?$AAu?$AAl?$AAy@ 0048339c     libucrt:nlsdata.obj
 0002:0001a3a8       ??_C@_1O@PAHLKOAC@?$AAA?$AAu?$AAg?$AAu?$AAs?$AAt@ 004833a8     libucrt:nlsdata.obj
 0002:0001a3b8       ??_C@_1BE@DKAAMBJL@?$AAS?$AAe?$AAp?$AAt?$AAe?$AAm?$AAb?$AAe?$AAr@ 004833b8     libucrt:nlsdata.obj
 0002:0001a3cc       ??_C@_1BA@EPANDLNG@?$AAO?$AAc?$AAt?$AAo?$AAb?$AAe?$AAr@ 004833cc     libucrt:nlsdata.obj
 0002:0001a3dc       ??_C@_1BC@BGLIFPF@?$AAN?$AAo?$AAv?$AAe?$AAm?$AAb?$AAe?$AAr@ 004833dc     libucrt:nlsdata.obj
 0002:0001a3f0       ??_C@_1BC@FEMKIFH@?$AAD?$AAe?$AAc?$AAe?$AAm?$AAb?$AAe?$AAr@ 004833f0     libucrt:nlsdata.obj
 0002:0001a404       ??_C@_15ODEHAHHF@?$AAA?$AAM@ 00483404     libucrt:nlsdata.obj
 0002:0001a40c       ??_C@_15CLMNNGEL@?$AAP?$AAM@ 0048340c     libucrt:nlsdata.obj
 0002:0001a414       ??_C@_1BC@IEBCMHCM@?$AAM?$AAM?$AA?1?$AAd?$AAd?$AA?1?$AAy?$AAy@ 00483414     libucrt:nlsdata.obj
 0002:0001a428       ??_C@_1CI@KNAKOEBC@?$AAd?$AAd?$AAd?$AAd?$AA?0?$AA?5?$AAM?$AAM?$AAM?$AAM?$AA?5?$AAd?$AAd?$AA?0?$AA?5@ 00483428     libucrt:nlsdata.obj
 0002:0001a450       ??_C@_1BC@GDGBMEMK@?$AAH?$AAH?$AA?3?$AAm?$AAm?$AA?3?$AAs?$AAs@ 00483450     libucrt:nlsdata.obj
 0002:0001a464       ??_C@_1M@BMHNFIME@?$AAe?$AAn?$AA?9?$AAU?$AAS@ 00483464     libucrt:nlsdata.obj
 0002:0001a4b0       ??_C@_03OEIAHPBN@INF@      004834b0     libucrt:cvt.obj
 0002:0001a4b4       ??_C@_03OJHLLCGB@inf@      004834b4     libucrt:cvt.obj
 0002:0001a4b8       ??_C@_03LKNCIKJB@NAN@      004834b8     libucrt:cvt.obj
 0002:0001a4bc       ??_C@_03LHCJEHON@nan@      004834bc     libucrt:cvt.obj
 0002:0001a4c0       ??_C@_09OFJJIMPC@NAN?$CISNAN?$CJ@ 004834c0     libucrt:cvt.obj
 0002:0001a4cc       ??_C@_09IPFBKMDL@nan?$CIsnan?$CJ@ 004834cc     libucrt:cvt.obj
 0002:0001a4d8       ??_C@_08IKHNHAJ@NAN?$CIIND?$CJ@ 004834d8     libucrt:cvt.obj
 0002:0001a4e4       ??_C@_08OFCDMILK@nan?$CIind?$CJ@ 004834e4     libucrt:cvt.obj
 0002:0001a4f0       ??_C@_05KLBDPFGC@e?$CL000@ 004834f0     libucrt:cvt.obj
 0002:0001a4f8       ??_C@_1M@PBPMMENC@?$AAa?$AAm?$AA?1?$AAp?$AAm@ 004834f8     libucrt:wcsftime.obj
 0002:0001a504       ??_C@_17BLFJJHMM@?$AAa?$AA?1?$AAp@ 00483504     libucrt:wcsftime.obj
 0002:0001a50c       ??_C@_13HOIJIPNN@?$AA?5@   0048350c     libucrt:wcsftime.obj
 0002:0001a510       ??_C@_13EBCNDICG@?$AA?3@   00483510     libucrt:wcsftime.obj
 0002:0001a514       ??_C@_13KDLDGPGJ@?$AA?7@   00483514     libucrt:wcsftime.obj
 0002:0001a518       ??_C@_13KJIIAINM@?$AA?$CL@ 00483518     libucrt:wcsftime.obj
 0002:0001a51c       ??_C@_13EJFHHPOP@?$AA?$CF@ 0048351c     libucrt:wcsftime.obj
 0002:0001a570       ??_C@_1EA@JGEFHKEI@?$AAa?$AAp?$AAi?$AA?9?$AAm?$AAs?$AA?9?$AAw?$AAi?$AAn?$AA?9?$AAc?$AAo?$AAr?$AAe@ 00483570     libucrt:winapi_thunks.obj
 0002:0001a5b0       ??_C@_1DI@IJCEHOCB@?$AAa?$AAp?$AAi?$AA?9?$AAm?$AAs?$AA?9?$AAw?$AAi?$AAn?$AA?9?$AAc?$AAo?$AAr?$AAe@ 004835b0     libucrt:winapi_thunks.obj
 0002:0001a5e8       ??_C@_1EI@MPIAOHOC@?$AAa?$AAp?$AAi?$AA?9?$AAm?$AAs?$AA?9?$AAw?$AAi?$AAn?$AA?9?$AAc?$AAo?$AAr?$AAe@ 004835e8     libucrt:winapi_thunks.obj
 0002:0001a630       ??_C@_1FK@FPHCKFIE@?$AAa?$AAp?$AAi?$AA?9?$AAm?$AAs?$AA?9?$AAw?$AAi?$AAn?$AA?9?$AAc?$AAo?$AAr?$AAe@ 00483630     libucrt:winapi_thunks.obj
 0002:0001a690       ??_C@_1EM@DILCGIIO@?$AAa?$AAp?$AAi?$AA?9?$AAm?$AAs?$AA?9?$AAw?$AAi?$AAn?$AA?9?$AAc?$AAo?$AAr?$AAe@ 00483690     libucrt:winapi_thunks.obj
 0002:0001a6dc       ??_C@_1DM@LNCGDDPN@?$AAa?$AAp?$AAi?$AA?9?$AAm?$AAs?$AA?9?$AAw?$AAi?$AAn?$AA?9?$AAc?$AAo?$AAr?$AAe@ 004836dc     libucrt:winapi_thunks.obj
 0002:0001a718       ??_C@_1DO@FPAPJEMD@?$AAa?$AAp?$AAi?$AA?9?$AAm?$AAs?$AA?9?$AAw?$AAi?$AAn?$AA?9?$AAc?$AAo?$AAr?$AAe@ 00483718     libucrt:winapi_thunks.obj
 0002:0001a758       ??_C@_1DK@NDHNAHIO@?$AAa?$AAp?$AAi?$AA?9?$AAm?$AAs?$AA?9?$AAw?$AAi?$AAn?$AA?9?$AAc?$AAo?$AAr?$AAe@ 00483758     libucrt:winapi_thunks.obj
 0002:0001a794       ??_C@_1DM@KGHDGBCM@?$AAa?$AAp?$AAi?$AA?9?$AAm?$AAs?$AA?9?$AAw?$AAi?$AAn?$AA?9?$AAc?$AAo?$AAr?$AAe@ 00483794     libucrt:winapi_thunks.obj
 0002:0001a7d0       ??_C@_1EO@IJIOEFOH@?$AAa?$AAp?$AAi?$AA?9?$AAm?$AAs?$AA?9?$AAw?$AAi?$AAn?$AA?9?$AAr?$AAt?$AAc?$AAo@ 004837d0     libucrt:winapi_thunks.obj
 0002:0001a820       ??_C@_1FG@HHGEKANL@?$AAa?$AAp?$AAi?$AA?9?$AAm?$AAs?$AA?9?$AAw?$AAi?$AAn?$AA?9?$AAs?$AAe?$AAc?$AAu@ 00483820     libucrt:winapi_thunks.obj
 0002:0001a878       ??_C@_1EG@DBIOJECG@?$AAe?$AAx?$AAt?$AA?9?$AAm?$AAs?$AA?9?$AAw?$AAi?$AAn?$AA?9?$AAn?$AAt?$AAu?$AAs@ 00483878     libucrt:winapi_thunks.obj
 0002:0001a8c0       ??_C@_1EO@FIHMJCLF@?$AAe?$AAx?$AAt?$AA?9?$AAm?$AAs?$AA?9?$AAw?$AAi?$AAn?$AA?9?$AAn?$AAt?$AAu?$AAs@ 004838c0     libucrt:winapi_thunks.obj
 0002:0001a910       ??_C@_1BC@DNHGCMLG@?$AAa?$AAd?$AAv?$AAa?$AAp?$AAi?$AA3?$AA2@ 00483910     libucrt:winapi_thunks.obj
 0002:0001a924       ??_C@_1M@OAIMIKLP@?$AAn?$AAt?$AAd?$AAl?$AAl@ 00483924     libucrt:winapi_thunks.obj
 0002:0001a930       ??_C@_1EG@DPGNFKGC@?$AAa?$AAp?$AAi?$AA?9?$AAm?$AAs?$AA?9?$AAw?$AAi?$AAn?$AA?9?$AAa?$AAp?$AAp?$AAm@ 00483930     libucrt:winapi_thunks.obj
 0002:0001a978       ??_C@_1O@BCCLBEOE@?$AAu?$AAs?$AAe?$AAr?$AA3?$AA2@ 00483978     libucrt:winapi_thunks.obj
 0002:0001a988       ??_C@_1BA@IAIFMGEF@?$AAe?$AAx?$AAt?$AA?9?$AAm?$AAs?$AA?9@ 00483988     libucrt:winapi_thunks.obj
 0002:0001a99c       ??_C@_0BA@FHFNEAED@AreFileApisANSI@ 0048399c     libucrt:winapi_thunks.obj
 0002:0001a9b4       ??_C@_0BA@IHGNDAEB@CompareStringEx@ 004839b4     libucrt:winapi_thunks.obj
 0002:0001a9cc       ??_C@_0BE@LJANKFHF@EnumSystemLocalesEx@ 004839cc     libucrt:winapi_thunks.obj
 0002:0001aa08       ??_C@_0BA@HNOPNCHB@GetActiveWindow@ 00483a08     libucrt:winapi_thunks.obj
 0002:0001aa20       ??_C@_0BA@EPCJIIPD@GetDateFormatEx@ 00483a20     libucrt:winapi_thunks.obj
 0002:0001aa38       ??_C@_0BD@HHGDFDBJ@GetLastActivePopup@ 00483a38     libucrt:winapi_thunks.obj
 0002:0001aa54       ??_C@_0BA@ONOKGCMP@GetLocaleInfoEx@ 00483a54     libucrt:winapi_thunks.obj
 0002:0001aa6c       ??_C@_0BI@DFKBFLJE@GetProcessWindowStation@ 00483a6c     libucrt:winapi_thunks.obj
 0002:0001aa88       ??_C@_0BP@FPNJPEJC@GetSystemTimePreciseAsFileTime@ 00483a88     libucrt:winapi_thunks.obj
 0002:0001aab0       ??_C@_0BA@CIJJKCJJ@GetTimeFormatEx@ 00483ab0     libucrt:winapi_thunks.obj
 0002:0001aac8       ??_C@_0BJ@PBCCBIPI@GetUserDefaultLocaleName@ 00483ac8     libucrt:winapi_thunks.obj
 0002:0001aaec       ??_C@_0BK@DEKFELLI@GetUserObjectInformationW@ 00483aec     libucrt:winapi_thunks.obj
 0002:0001ab18       ??_C@_0BC@CELBKLLA@IsValidLocaleName@ 00483b18     libucrt:winapi_thunks.obj
 0002:0001ab34       ??_C@_0O@KKBNKAPF@LCMapStringEx@ 00483b34     libucrt:winapi_thunks.obj
 0002:0001ab4c       ??_C@_0BB@CDHDDLLP@LCIDToLocaleName@ 00483b4c     libucrt:winapi_thunks.obj
 0002:0001ab68       ??_C@_0BB@HBDEELFH@LocaleNameToLCID@ 00483b68     libucrt:winapi_thunks.obj
 0002:0001ab84       ??_C@_0M@CHKKJDAI@MessageBoxA@ 00483b84     libucrt:winapi_thunks.obj
 0002:0001ab98       ??_C@_0M@DLDCCGNP@MessageBoxW@ 00483b98     libucrt:winapi_thunks.obj
 0002:0001aba8       ??_C@_0CF@OJOFEIGO@AppPolicyGetProcessTerminationM@ 00483ba8     libucrt:winapi_thunks.obj
 0002:0001abd4       ??_C@_0CE@OICFMIKE@AppPolicyGetShowDeveloperDiagno@ 00483bd4     libucrt:winapi_thunks.obj
 0002:0001abfc       ??_C@_0BL@ODDJNEDA@AppPolicyGetWindowingModel@ 00483bfc     libucrt:winapi_thunks.obj
 0002:0001ac40       ??_C@_1M@HPNHIDJI@?$AAj?$AAa?$AA?9?$AAJ?$AAP@ 00483c40     libucrt:mbctype.obj
 0002:0001ac4c       ??_C@_1M@BIBDDEMK@?$AAz?$AAh?$AA?9?$AAC?$AAN@ 00483c4c     libucrt:mbctype.obj
 0002:0001ac58       ??_C@_1M@JLOOOEGK@?$AAk?$AAo?$AA?9?$AAK?$AAR@ 00483c58     libucrt:mbctype.obj
 0002:0001ac64       ??_C@_1M@CLNBBOPM@?$AAz?$AAh?$AA?9?$AAT?$AAW@ 00483c64     libucrt:mbctype.obj
 0002:0001ac70       ___acrt_rg_language        00483c70     libucrt:get_qualified_locale.obj
 0002:0001af7c       ___acrt_rg_language_count  00483f7c     libucrt:get_qualified_locale.obj
 0002:0001af80       ___acrt_rg_country         00483f80     libucrt:get_qualified_locale.obj
 0002:0001b094       ___acrt_rg_country_count   00484094     libucrt:get_qualified_locale.obj
 0002:0001b098       ??_C@_1BC@LLOKLNP@?$AAa?$AAm?$AAe?$AAr?$AAi?$AAc?$AAa?$AAn@ 00484098     libucrt:get_qualified_locale.obj
 0002:0001b0ac       ??_C@_1CC@HEIGCDGG@?$AAa?$AAm?$AAe?$AAr?$AAi?$AAc?$AAa?$AAn?$AA?5?$AAe?$AAn?$AAg?$AAl?$AAi?$AAs@ 004840ac     libucrt:get_qualified_locale.obj
 0002:0001b0d0       ??_C@_1CC@IHCNOMIN@?$AAa?$AAm?$AAe?$AAr?$AAi?$AAc?$AAa?$AAn?$AA?9?$AAe?$AAn?$AAg?$AAl?$AAi?$AAs@ 004840d0     libucrt:get_qualified_locale.obj
 0002:0001b0f4       ??_C@_1BG@GKAGPCGG@?$AAa?$AAu?$AAs?$AAt?$AAr?$AAa?$AAl?$AAi?$AAa?$AAn@ 004840f4     libucrt:get_qualified_locale.obj
 0002:0001b10c       ??_C@_1BA@GMENCENF@?$AAb?$AAe?$AAl?$AAg?$AAi?$AAa?$AAn@ 0048410c     libucrt:get_qualified_locale.obj
 0002:0001b11c       ??_C@_1BC@PJMIIAAN@?$AAc?$AAa?$AAn?$AAa?$AAd?$AAi?$AAa?$AAn@ 0048411c     libucrt:get_qualified_locale.obj
 0002:0001b130       ??_C@_17NOIMNFBF@?$AAc?$AAh?$AAh@ 00484130     libucrt:get_qualified_locale.obj
 0002:0001b138       ??_C@_17GGDALCHA@?$AAc?$AAh?$AAi@ 00484138     libucrt:get_qualified_locale.obj
 0002:0001b140       ??_C@_1BA@NPNJKIBL@?$AAc?$AAh?$AAi?$AAn?$AAe?$AAs?$AAe@ 00484140     libucrt:get_qualified_locale.obj
 0002:0001b150       ??_C@_1CC@DINBAMMJ@?$AAc?$AAh?$AAi?$AAn?$AAe?$AAs?$AAe?$AA?9?$AAh?$AAo?$AAn?$AAg?$AAk?$AAo?$AAn@ 00484150     libucrt:get_qualified_locale.obj
 0002:0001b174       ??_C@_1CG@IOBJPACO@?$AAc?$AAh?$AAi?$AAn?$AAe?$AAs?$AAe?$AA?9?$AAs?$AAi?$AAm?$AAp?$AAl?$AAi?$AAf@ 00484174     libucrt:get_qualified_locale.obj
 0002:0001b19c       ??_C@_1CE@GAJNDCKG@?$AAc?$AAh?$AAi?$AAn?$AAe?$AAs?$AAe?$AA?9?$AAs?$AAi?$AAn?$AAg?$AAa?$AAp?$AAo@ 0048419c     libucrt:get_qualified_locale.obj
 0002:0001b1c0       ??_C@_1CI@PAJPIOOD@?$AAc?$AAh?$AAi?$AAn?$AAe?$AAs?$AAe?$AA?9?$AAt?$AAr?$AAa?$AAd?$AAi?$AAt?$AAi@ 004841c0     libucrt:get_qualified_locale.obj
 0002:0001b1e8       ??_C@_1BM@NILJBMMD@?$AAd?$AAu?$AAt?$AAc?$AAh?$AA?9?$AAb?$AAe?$AAl?$AAg?$AAi?$AAa?$AAn@ 004841e8     libucrt:get_qualified_locale.obj
 0002:0001b204       ??_C@_1CC@OOJPJNEJ@?$AAe?$AAn?$AAg?$AAl?$AAi?$AAs?$AAh?$AA?9?$AAa?$AAm?$AAe?$AAr?$AAi?$AAc?$AAa@ 00484204     libucrt:get_qualified_locale.obj
 0002:0001b228       ??_C@_1BI@IOLFEEM@?$AAe?$AAn?$AAg?$AAl?$AAi?$AAs?$AAh?$AA?9?$AAa?$AAu?$AAs@ 00484228     libucrt:get_qualified_locale.obj
 0002:0001b240       ??_C@_1BO@HFFNLENJ@?$AAe?$AAn?$AAg?$AAl?$AAi?$AAs?$AAh?$AA?9?$AAb?$AAe?$AAl?$AAi?$AAz?$AAe@ 00484240     libucrt:get_qualified_locale.obj
 0002:0001b260       ??_C@_1BI@HAPKJMPO@?$AAe?$AAn?$AAg?$AAl?$AAi?$AAs?$AAh?$AA?9?$AAc?$AAa?$AAn@ 00484260     libucrt:get_qualified_locale.obj
 0002:0001b278       ??_C@_1CE@HLNDMIOJ@?$AAe?$AAn?$AAg?$AAl?$AAi?$AAs?$AAh?$AA?9?$AAc?$AAa?$AAr?$AAi?$AAb?$AAb?$AAe@ 00484278     libucrt:get_qualified_locale.obj
 0002:0001b29c       ??_C@_1BI@LDHJHHAC@?$AAe?$AAn?$AAg?$AAl?$AAi?$AAs?$AAh?$AA?9?$AAi?$AAr?$AAe@ 0048429c     libucrt:get_qualified_locale.obj
 0002:0001b2b4       ??_C@_1CA@NJMMCFOC@?$AAe?$AAn?$AAg?$AAl?$AAi?$AAs?$AAh?$AA?9?$AAj?$AAa?$AAm?$AAa?$AAi?$AAc?$AAa@ 004842b4     libucrt:get_qualified_locale.obj
 0002:0001b2d4       ??_C@_1BG@BHJEBBGG@?$AAe?$AAn?$AAg?$AAl?$AAi?$AAs?$AAh?$AA?9?$AAn?$AAz@ 004842d4     libucrt:get_qualified_locale.obj
 0002:0001b2ec       ??_C@_1CK@FGOEJJCO@?$AAe?$AAn?$AAg?$AAl?$AAi?$AAs?$AAh?$AA?9?$AAs?$AAo?$AAu?$AAt?$AAh?$AA?5?$AAa@ 004842ec     libucrt:get_qualified_locale.obj
 0002:0001b318       ??_C@_1DE@PDBJPCJ@?$AAe?$AAn?$AAg?$AAl?$AAi?$AAs?$AAh?$AA?9?$AAt?$AAr?$AAi?$AAn?$AAi?$AAd?$AAa@ 00484318     libucrt:get_qualified_locale.obj
 0002:0001b34c       ??_C@_1BG@JGCANDME@?$AAe?$AAn?$AAg?$AAl?$AAi?$AAs?$AAh?$AA?9?$AAu?$AAk@ 0048434c     libucrt:get_qualified_locale.obj
 0002:0001b364       ??_C@_1BG@DINKMLE@?$AAe?$AAn?$AAg?$AAl?$AAi?$AAs?$AAh?$AA?9?$AAu?$AAs@ 00484364     libucrt:get_qualified_locale.obj
 0002:0001b37c       ??_C@_1BI@NMFDBHJE@?$AAe?$AAn?$AAg?$AAl?$AAi?$AAs?$AAh?$AA?9?$AAu?$AAs?$AAa@ 0048437c     libucrt:get_qualified_locale.obj
 0002:0001b394       ??_C@_1BO@OIHKJKII@?$AAf?$AAr?$AAe?$AAn?$AAc?$AAh?$AA?9?$AAb?$AAe?$AAl?$AAg?$AAi?$AAa?$AAn@ 00484394     libucrt:get_qualified_locale.obj
 0002:0001b3b4       ??_C@_1CA@NKAELJKI@?$AAf?$AAr?$AAe?$AAn?$AAc?$AAh?$AA?9?$AAc?$AAa?$AAn?$AAa?$AAd?$AAi?$AAa?$AAn@ 004843b4     libucrt:get_qualified_locale.obj
 0002:0001b3d4       ??_C@_1CE@MGKCNLGN@?$AAf?$AAr?$AAe?$AAn?$AAc?$AAh?$AA?9?$AAl?$AAu?$AAx?$AAe?$AAm?$AAb?$AAo?$AAu@ 004843d4     libucrt:get_qualified_locale.obj
 0002:0001b3f8       ??_C@_1BK@CEGEAILM@?$AAf?$AAr?$AAe?$AAn?$AAc?$AAh?$AA?9?$AAs?$AAw?$AAi?$AAs?$AAs@ 004843f8     libucrt:get_qualified_locale.obj
 0002:0001b414       ??_C@_1CA@PAFKEOCC@?$AAg?$AAe?$AAr?$AAm?$AAa?$AAn?$AA?9?$AAa?$AAu?$AAs?$AAt?$AAr?$AAi?$AAa?$AAn@ 00484414     libucrt:get_qualified_locale.obj
 0002:0001b434       ??_C@_1CI@HCFHGOFD@?$AAg?$AAe?$AAr?$AAm?$AAa?$AAn?$AA?9?$AAl?$AAi?$AAc?$AAh?$AAt?$AAe?$AAn?$AAs@ 00484434     libucrt:get_qualified_locale.obj
 0002:0001b45c       ??_C@_1CE@FEDDNPDG@?$AAg?$AAe?$AAr?$AAm?$AAa?$AAn?$AA?9?$AAl?$AAu?$AAx?$AAe?$AAm?$AAb?$AAo?$AAu@ 0048445c     libucrt:get_qualified_locale.obj
 0002:0001b480       ??_C@_1BK@LIMINNMN@?$AAg?$AAe?$AAr?$AAm?$AAa?$AAn?$AA?9?$AAs?$AAw?$AAi?$AAs?$AAs@ 00484480     libucrt:get_qualified_locale.obj
 0002:0001b49c       ??_C@_1BM@LGMDBEPD@?$AAi?$AAr?$AAi?$AAs?$AAh?$AA?9?$AAe?$AAn?$AAg?$AAl?$AAi?$AAs?$AAh@ 0048449c     libucrt:get_qualified_locale.obj
 0002:0001b4b8       ??_C@_1BM@NNCFBAEE@?$AAi?$AAt?$AAa?$AAl?$AAi?$AAa?$AAn?$AA?9?$AAs?$AAw?$AAi?$AAs?$AAs@ 004844b8     libucrt:get_qualified_locale.obj
 0002:0001b4d4       ??_C@_1BE@FEDJNPIB@?$AAn?$AAo?$AAr?$AAw?$AAe?$AAg?$AAi?$AAa?$AAn@ 004844d4     libucrt:get_qualified_locale.obj
 0002:0001b4e8       ??_C@_1CC@CILKDEIE@?$AAn?$AAo?$AAr?$AAw?$AAe?$AAg?$AAi?$AAa?$AAn?$AA?9?$AAb?$AAo?$AAk?$AAm?$AAa@ 004844e8     libucrt:get_qualified_locale.obj
 0002:0001b50c       ??_C@_1CE@DHMMHEPL@?$AAn?$AAo?$AAr?$AAw?$AAe?$AAg?$AAi?$AAa?$AAn?$AA?9?$AAn?$AAy?$AAn?$AAo?$AAr@ 0048450c     libucrt:get_qualified_locale.obj
 0002:0001b530       ??_C@_1CK@OPNMHECD@?$AAp?$AAo?$AAr?$AAt?$AAu?$AAg?$AAu?$AAe?$AAs?$AAe?$AA?9?$AAb?$AAr?$AAa?$AAz@ 00484530     libucrt:get_qualified_locale.obj
 0002:0001b55c       ??_C@_1CE@KEEHCDB@?$AAs?$AAp?$AAa?$AAn?$AAi?$AAs?$AAh?$AA?9?$AAa?$AAr?$AAg?$AAe?$AAn?$AAt?$AAi@ 0048455c     libucrt:get_qualified_locale.obj
 0002:0001b580       ??_C@_1CA@GIAOLHJD@?$AAs?$AAp?$AAa?$AAn?$AAi?$AAs?$AAh?$AA?9?$AAb?$AAo?$AAl?$AAi?$AAv?$AAi?$AAa@ 00484580     libucrt:get_qualified_locale.obj
 0002:0001b5a0       ??_C@_1BM@OJNDFNPD@?$AAs?$AAp?$AAa?$AAn?$AAi?$AAs?$AAh?$AA?9?$AAc?$AAh?$AAi?$AAl?$AAe@ 004845a0     libucrt:get_qualified_locale.obj
 0002:0001b5bc       ??_C@_1CC@OCOLPALL@?$AAs?$AAp?$AAa?$AAn?$AAi?$AAs?$AAh?$AA?9?$AAc?$AAo?$AAl?$AAo?$AAm?$AAb?$AAi@ 004845bc     libucrt:get_qualified_locale.obj
 0002:0001b5e0       ??_C@_1CG@BPOFMKBB@?$AAs?$AAp?$AAa?$AAn?$AAi?$AAs?$AAh?$AA?9?$AAc?$AAo?$AAs?$AAt?$AAa?$AA?5?$AAr@ 004845e0     libucrt:get_qualified_locale.obj
 0002:0001b608       ??_C@_1DG@IGOBAPBB@?$AAs?$AAp?$AAa?$AAn?$AAi?$AAs?$AAh?$AA?9?$AAd?$AAo?$AAm?$AAi?$AAn?$AAi?$AAc@ 00484608     libucrt:get_qualified_locale.obj
 0002:0001b640       ??_C@_1CA@JHAPGEGI@?$AAs?$AAp?$AAa?$AAn?$AAi?$AAs?$AAh?$AA?9?$AAe?$AAc?$AAu?$AAa?$AAd?$AAo?$AAr@ 00484640     libucrt:get_qualified_locale.obj
 0002:0001b660       ??_C@_1CI@LAPALJPP@?$AAs?$AAp?$AAa?$AAn?$AAi?$AAs?$AAh?$AA?9?$AAe?$AAl?$AA?5?$AAs?$AAa?$AAl?$AAv@ 00484660     libucrt:get_qualified_locale.obj
 0002:0001b688       ??_C@_1CE@PDGBOFOM@?$AAs?$AAp?$AAa?$AAn?$AAi?$AAs?$AAh?$AA?9?$AAg?$AAu?$AAa?$AAt?$AAe?$AAm?$AAa@ 00484688     libucrt:get_qualified_locale.obj
 0002:0001b6ac       ??_C@_1CC@NBEBAODI@?$AAs?$AAp?$AAa?$AAn?$AAi?$AAs?$AAh?$AA?9?$AAh?$AAo?$AAn?$AAd?$AAu?$AAr?$AAa@ 004846ac     libucrt:get_qualified_locale.obj
 0002:0001b6d0       ??_C@_1CA@LLKGHBMF@?$AAs?$AAp?$AAa?$AAn?$AAi?$AAs?$AAh?$AA?9?$AAm?$AAe?$AAx?$AAi?$AAc?$AAa?$AAn@ 004846d0     libucrt:get_qualified_locale.obj
 0002:0001b6f0       ??_C@_1BO@LKNDOIGD@?$AAs?$AAp?$AAa?$AAn?$AAi?$AAs?$AAh?$AA?9?$AAm?$AAo?$AAd?$AAe?$AAr?$AAn@ 004846f0     libucrt:get_qualified_locale.obj
 0002:0001b710       ??_C@_1CE@NMDMOEEB@?$AAs?$AAp?$AAa?$AAn?$AAi?$AAs?$AAh?$AA?9?$AAn?$AAi?$AAc?$AAa?$AAr?$AAa?$AAg@ 00484710     libucrt:get_qualified_locale.obj
 0002:0001b734       ??_C@_1BO@LLCBEJGB@?$AAs?$AAp?$AAa?$AAn?$AAi?$AAs?$AAh?$AA?9?$AAp?$AAa?$AAn?$AAa?$AAm?$AAa@ 00484734     libucrt:get_qualified_locale.obj
 0002:0001b754       ??_C@_1CC@FKPGGIHO@?$AAs?$AAp?$AAa?$AAn?$AAi?$AAs?$AAh?$AA?9?$AAp?$AAa?$AAr?$AAa?$AAg?$AAu?$AAa@ 00484754     libucrt:get_qualified_locale.obj
 0002:0001b778       ??_C@_1BK@CDEIHOOP@?$AAs?$AAp?$AAa?$AAn?$AAi?$AAs?$AAh?$AA?9?$AAp?$AAe?$AAr?$AAu@ 00484778     libucrt:get_qualified_locale.obj
 0002:0001b794       ??_C@_1CI@GAHAKKGP@?$AAs?$AAp?$AAa?$AAn?$AAi?$AAs?$AAh?$AA?9?$AAp?$AAu?$AAe?$AAr?$AAt?$AAo?$AA?5@ 00484794     libucrt:get_qualified_locale.obj
 0002:0001b7bc       ??_C@_1CA@NKJBCAGP@?$AAs?$AAp?$AAa?$AAn?$AAi?$AAs?$AAh?$AA?9?$AAu?$AAr?$AAu?$AAg?$AAu?$AAa?$AAy@ 004847bc     libucrt:get_qualified_locale.obj
 0002:0001b7dc       ??_C@_1CE@ODILCONM@?$AAs?$AAp?$AAa?$AAn?$AAi?$AAs?$AAh?$AA?9?$AAv?$AAe?$AAn?$AAe?$AAz?$AAu?$AAe@ 004847dc     libucrt:get_qualified_locale.obj
 0002:0001b800       ??_C@_1CA@OBNMCGFO@?$AAs?$AAw?$AAe?$AAd?$AAi?$AAs?$AAh?$AA?9?$AAf?$AAi?$AAn?$AAl?$AAa?$AAn?$AAd@ 00484800     libucrt:get_qualified_locale.obj
 0002:0001b820       ??_C@_1M@PIPDDPPI@?$AAs?$AAw?$AAi?$AAs?$AAs@ 00484820     libucrt:get_qualified_locale.obj
 0002:0001b82c       ??_C@_15PJPFLCCM@?$AAu?$AAk@ 0048482c     libucrt:get_qualified_locale.obj
 0002:0001b834       ??_C@_15GMFIMNFM@?$AAu?$AAs@ 00484834     libucrt:get_qualified_locale.obj
 0002:0001b83c       ??_C@_17HAEBFAGL@?$AAu?$AAs?$AAa@ 0048483c     libucrt:get_qualified_locale.obj
 0002:0001b844       ??_C@_1BA@DPFJEPHB@?$AAa?$AAm?$AAe?$AAr?$AAi?$AAc?$AAa@ 00484844     libucrt:get_qualified_locale.obj
 0002:0001b854       ??_C@_1BA@ELOGGFK@?$AAb?$AAr?$AAi?$AAt?$AAa?$AAi?$AAn@ 00484854     libucrt:get_qualified_locale.obj
 0002:0001b864       ??_C@_1M@GHBGIGDA@?$AAc?$AAh?$AAi?$AAn?$AAa@ 00484864     libucrt:get_qualified_locale.obj
 0002:0001b870       ??_C@_1M@NCHEJOPO@?$AAc?$AAz?$AAe?$AAc?$AAh@ 00484870     libucrt:get_qualified_locale.obj
 0002:0001b87c       ??_C@_1BA@BKPAPBLA@?$AAe?$AAn?$AAg?$AAl?$AAa?$AAn?$AAd@ 0048487c     libucrt:get_qualified_locale.obj
 0002:0001b88c       ??_C@_1BM@HKBCKIPC@?$AAg?$AAr?$AAe?$AAa?$AAt?$AA?5?$AAb?$AAr?$AAi?$AAt?$AAa?$AAi?$AAn@ 0048488c     libucrt:get_qualified_locale.obj
 0002:0001b8a8       ??_C@_1BA@PPCHPGJB@?$AAh?$AAo?$AAl?$AAl?$AAa?$AAn?$AAd@ 004848a8     libucrt:get_qualified_locale.obj
 0002:0001b8b8       ??_C@_1BE@JBMPEGDG@?$AAh?$AAo?$AAn?$AAg?$AA?9?$AAk?$AAo?$AAn?$AAg@ 004848b8     libucrt:get_qualified_locale.obj
 0002:0001b8cc       ??_C@_1BI@KOELBBPJ@?$AAn?$AAe?$AAw?$AA?9?$AAz?$AAe?$AAa?$AAl?$AAa?$AAn?$AAd@ 004848cc     libucrt:get_qualified_locale.obj
 0002:0001b8e4       ??_C@_15HIEBHAIO@?$AAn?$AAz@ 004848e4     libucrt:get_qualified_locale.obj
 0002:0001b8ec       ??_C@_1BC@CHBCPFPI@?$AAp?$AAr?$AA?5?$AAc?$AAh?$AAi?$AAn?$AAa@ 004848ec     libucrt:get_qualified_locale.obj
 0002:0001b900       ??_C@_1BC@JAOIIFKD@?$AAp?$AAr?$AA?9?$AAc?$AAh?$AAi?$AAn?$AAa@ 00484900     libucrt:get_qualified_locale.obj
 0002:0001b914       ??_C@_1BI@BEHPPHKC@?$AAp?$AAu?$AAe?$AAr?$AAt?$AAo?$AA?9?$AAr?$AAi?$AAc?$AAo@ 00484914     libucrt:get_qualified_locale.obj
 0002:0001b92c       ??_C@_1O@PAEOFKDI@?$AAs?$AAl?$AAo?$AAv?$AAa?$AAk@ 0048492c     libucrt:get_qualified_locale.obj
 0002:0001b93c       ??_C@_1BK@FIHMCKAM@?$AAs?$AAo?$AAu?$AAt?$AAh?$AA?5?$AAa?$AAf?$AAr?$AAi?$AAc?$AAa@ 0048493c     libucrt:get_qualified_locale.obj
 0002:0001b958       ??_C@_1BI@NAEOODKB@?$AAs?$AAo?$AAu?$AAt?$AAh?$AA?5?$AAk?$AAo?$AAr?$AAe?$AAa@ 00484958     libucrt:get_qualified_locale.obj
 0002:0001b970       ??_C@_1BK@FBDGGIFF@?$AAs?$AAo?$AAu?$AAt?$AAh?$AA?9?$AAa?$AAf?$AAr?$AAi?$AAc?$AAa@ 00484970     libucrt:get_qualified_locale.obj
 0002:0001b98c       ??_C@_1BI@GHLEJDPK@?$AAs?$AAo?$AAu?$AAt?$AAh?$AA?9?$AAk?$AAo?$AAr?$AAe?$AAa@ 0048498c     libucrt:get_qualified_locale.obj
 0002:0001b9a4       ??_C@_1CE@PLHLOMJF@?$AAt?$AAr?$AAi?$AAn?$AAi?$AAd?$AAa?$AAd?$AA?5?$AA?$CG?$AA?5?$AAt?$AAo?$AAb?$AAa@ 004849a4     libucrt:get_qualified_locale.obj
 0002:0001b9c8       ??_C@_1BO@MODIMHHI@?$AAu?$AAn?$AAi?$AAt?$AAe?$AAd?$AA?9?$AAk?$AAi?$AAn?$AAg?$AAd?$AAo?$AAm@ 004849c8     libucrt:get_qualified_locale.obj
 0002:0001b9e8       ??_C@_1BM@FFHJONBJ@?$AAu?$AAn?$AAi?$AAt?$AAe?$AAd?$AA?9?$AAs?$AAt?$AAa?$AAt?$AAe?$AAs@ 004849e8     libucrt:get_qualified_locale.obj
 0002:0001ba04       ??_C@_19MPDNHKDG@?$AAu?$AAt?$AAf?$AA8@ 00484a04     libucrt:get_qualified_locale.obj
 0002:0001ba10       ??_C@_17DNCLJFIF@?$AAA?$AAC?$AAP@ 00484a10     libucrt:get_qualified_locale.obj
 0002:0001ba18       ??_C@_1M@FPEIIFAM@?$AAu?$AAt?$AAf?$AA?9?$AA8@ 00484a18     libucrt:get_qualified_locale.obj
 0002:0001ba24       ??_C@_17CIKBIHLH@?$AAO?$AAC?$AAP@ 00484a24     libucrt:get_qualified_locale.obj
 0002:0001ba2c       ___rglangidNotDefault      00484a2c     libucrt:getqloc_downlevel.obj
 0002:0001bad8       ??_C@_01GBGANLPD@0@        00484ad8     libucrt:cfout.obj
 0002:0001badc       ??_C@_05DNEBIAHO@1?$CDINF@ 00484adc     libucrt:cfout.obj
 0002:0001bae4       ??_C@_06IMKFLFPG@1?$CDQNAN@ 00484ae4     libucrt:cfout.obj
 0002:0001baec       ??_C@_06PGGFOGJG@1?$CDSNAN@ 00484aec     libucrt:cfout.obj
 0002:0001baf4       ??_C@_05PHHOCPM@1?$CDIND@  00484af4     libucrt:cfout.obj
 0002:0001bafc       ??_C@_02CLFPBFFP@TZ@       00484afc     libucrt:tzset.obj
 0002:0001c220       ??_C@_15EMKDOKLE@?$AAa?$AAr@ 00485220     libucrt:lcidtoname_downlevel.obj
 0002:0001c228       ??_C@_15KNPADPLH@?$AAb?$AAg@ 00485228     libucrt:lcidtoname_downlevel.obj
 0002:0001c230       ??_C@_15EDMHLDMO@?$AAc?$AAa@ 00485230     libucrt:lcidtoname_downlevel.obj
 0002:0001c238       ??_C@_1O@BPEAJADD@?$AAz?$AAh?$AA?9?$AAC?$AAH?$AAS@ 00485238     libucrt:lcidtoname_downlevel.obj
 0002:0001c248       ??_C@_15LJNHCMNK@?$AAc?$AAs@ 00485248     libucrt:lcidtoname_downlevel.obj
 0002:0001c250       ??_C@_15FOMCIDHG@?$AAd?$AAa@ 00485250     libucrt:lcidtoname_downlevel.obj
 0002:0001c258       ??_C@_15NBKABECB@?$AAd?$AAe@ 00485258     libucrt:lcidtoname_downlevel.obj
 0002:0001c260       ??_C@_15GHPEIIAO@?$AAe?$AAl@ 00485260     libucrt:lcidtoname_downlevel.obj
 0002:0001c268       ??_C@_15MNPNEAIF@?$AAe?$AAn@ 00485268     libucrt:lcidtoname_downlevel.obj
 0002:0001c270       ??_C@_15GPIOMPMH@?$AAe?$AAs@ 00485270     libucrt:lcidtoname_downlevel.obj
 0002:0001c278       ??_C@_15NGLOAKJC@?$AAf?$AAi@ 00485278     libucrt:lcidtoname_downlevel.obj
 0002:0001c280       ??_C@_15FBKGNKAM@?$AAf?$AAr@ 00485280     libucrt:lcidtoname_downlevel.obj
 0002:0001c288       ??_C@_15KGGCNEFK@?$AAh?$AAe@ 00485288     libucrt:lcidtoname_downlevel.obj
 0002:0001c290       ??_C@_15PGHLIDMF@?$AAh?$AAu@ 00485290     libucrt:lcidtoname_downlevel.obj
 0002:0001c298       ??_C@_15BIEMAPLM@?$AAi?$AAs@ 00485298     libucrt:lcidtoname_downlevel.obj
 0002:0001c2a0       ??_C@_15IFJLDHAF@?$AAi?$AAt@ 004852a0     libucrt:lcidtoname_downlevel.obj
 0002:0001c2a8       ??_C@_15GEMIOCAG@?$AAj?$AAa@ 004852a8     libucrt:lcidtoname_downlevel.obj
 0002:0001c2b0       ??_C@_15EPELEGJA@?$AAk?$AAo@ 004852b0     libucrt:lcidtoname_downlevel.obj
 0002:0001c2b8       ??_C@_15NDDHIMN@?$AAn?$AAl@ 004852b8     libucrt:lcidtoname_downlevel.obj
 0002:0001c2c0       ??_C@_15BPIGNHCD@?$AAn?$AAo@ 004852c0     libucrt:lcidtoname_downlevel.obj
 0002:0001c2c8       ??_C@_15DEOPBLCG@?$AAp?$AAl@ 004852c8     libucrt:lcidtoname_downlevel.obj
 0002:0001c2d0       ??_C@_15KBECGEFG@?$AAp?$AAt@ 004852d0     libucrt:lcidtoname_downlevel.obj
 0002:0001c2d8       ??_C@_15GLJCBFMD@?$AAr?$AAo@ 004852d8     libucrt:lcidtoname_downlevel.obj
 0002:0001c2e0       ??_C@_15FEDGKCDI@?$AAr?$AAu@ 004852e0     libucrt:lcidtoname_downlevel.obj
 0002:0001c2e8       ??_C@_15GLKMLLHM@?$AAh?$AAr@ 004852e8     libucrt:lcidtoname_downlevel.obj
 0002:0001c2f0       ??_C@_15CPKMFBDB@?$AAs?$AAk@ 004852f0     libucrt:lcidtoname_downlevel.obj
 0002:0001c2f8       ??_C@_15BAAIOGMK@?$AAs?$AAq@ 004852f8     libucrt:lcidtoname_downlevel.obj
 0002:0001c300       ??_C@_15INNPNOHD@?$AAs?$AAv@ 00485300     libucrt:lcidtoname_downlevel.obj
 0002:0001c308       ??_C@_15CABMMOGH@?$AAt?$AAh@ 00485308     libucrt:lcidtoname_downlevel.obj
 0002:0001c310       ??_C@_15BPLIHJJM@?$AAt?$AAr@ 00485310     libucrt:lcidtoname_downlevel.obj
 0002:0001c318       ??_C@_15NEOEKKDJ@?$AAu?$AAr@ 00485318     libucrt:lcidtoname_downlevel.obj
 0002:0001c320       ??_C@_15NFICGAJK@?$AAi?$AAd@ 00485320     libucrt:lcidtoname_downlevel.obj
 0002:0001c328       ??_C@_15HPJPHDM@?$AAb?$AAe@ 00485328     libucrt:lcidtoname_downlevel.obj
 0002:0001c330       ??_C@_15LCHLGJII@?$AAs?$AAl@ 00485330     libucrt:lcidtoname_downlevel.obj
 0002:0001c338       ??_C@_15PCFJPHHO@?$AAe?$AAt@ 00485338     libucrt:lcidtoname_downlevel.obj
 0002:0001c340       ??_C@_15HPFPGODN@?$AAl?$AAv@ 00485340     libucrt:lcidtoname_downlevel.obj
 0002:0001c348       ??_C@_15NFFGKGLG@?$AAl?$AAt@ 00485348     libucrt:lcidtoname_downlevel.obj
 0002:0001c350       ??_C@_15BDAKCCHN@?$AAf?$AAa@ 00485350     libucrt:lcidtoname_downlevel.obj
 0002:0001c358       ??_C@_15NFGIAIAJ@?$AAv?$AAi@ 00485358     libucrt:lcidtoname_downlevel.obj
 0002:0001c360       ??_C@_15LMKNDMHN@?$AAh?$AAy@ 00485360     libucrt:lcidtoname_downlevel.obj
 0002:0001c368       ??_C@_15IJBHMCFL@?$AAa?$AAz@ 00485368     libucrt:lcidtoname_downlevel.obj
 0002:0001c370       ??_C@_15EKOFJABL@?$AAe?$AAu@ 00485370     libucrt:lcidtoname_downlevel.obj
 0002:0001c378       ??_C@_15BGHADCNK@?$AAm?$AAk@ 00485378     libucrt:lcidtoname_downlevel.obj
 0002:0001c380       ??_C@_15JDNICKHM@?$AAa?$AAf@ 00485380     libucrt:lcidtoname_downlevel.obj
 0002:0001c388       ??_C@_15KPJEDBKD@?$AAk?$AAa@ 00485388     libucrt:lcidtoname_downlevel.obj
 0002:0001c390       ??_C@_15PDNFFFEO@?$AAf?$AAo@ 00485390     libucrt:lcidtoname_downlevel.obj
 0002:0001c398       ??_C@_15OMLEGLOC@?$AAh?$AAi@ 00485398     libucrt:lcidtoname_downlevel.obj
 0002:0001c3a0       ??_C@_15IDNNENKK@?$AAm?$AAs@ 004853a0     libucrt:lcidtoname_downlevel.obj
 0002:0001c3a8       ??_C@_15MACJNBMH@?$AAk?$AAk@ 004853a8     libucrt:lcidtoname_downlevel.obj
 0002:0001c3b0       ??_C@_15DKDJEOND@?$AAk?$AAy@ 004853b0     libucrt:lcidtoname_downlevel.obj
 0002:0001c3b8       ??_C@_15DFGDLJBG@?$AAs?$AAw@ 004853b8     libucrt:lcidtoname_downlevel.obj
 0002:0001c3c0       ??_C@_15BBFAICNG@?$AAu?$AAz@ 004853c0     libucrt:lcidtoname_downlevel.obj
 0002:0001c3c8       ??_C@_15DKNDCGEA@?$AAt?$AAt@ 004853c8     libucrt:lcidtoname_downlevel.obj
 0002:0001c3d0       ??_C@_15MGIFMDPL@?$AAp?$AAa@ 004853d0     libucrt:lcidtoname_downlevel.obj
 0002:0001c3d8       ??_C@_15HCNDBBA@?$AAg?$AAu@ 004853d8     libucrt:lcidtoname_downlevel.obj
 0002:0001c3e0       ??_C@_15FNBEIBON@?$AAt?$AAa@ 004853e0     libucrt:lcidtoname_downlevel.obj
 0002:0001c3e8       ??_C@_15NCHGBGLK@?$AAt?$AAe@ 004853e8     libucrt:lcidtoname_downlevel.obj
 0002:0001c3f0       ??_C@_15PHPHCBPF@?$AAk?$AAn@ 004853f0     libucrt:lcidtoname_downlevel.obj
 0002:0001c3f8       ??_C@_15DLGBCKMP@?$AAm?$AAr@ 004853f8     libucrt:lcidtoname_downlevel.obj
 0002:0001c400       ??_C@_15EABBLBFF@?$AAs?$AAa@ 00485400     libucrt:lcidtoname_downlevel.obj
 0002:0001c408       ??_C@_15CBKOMCOI@?$AAm?$AAn@ 00485408     libucrt:lcidtoname_downlevel.obj
 0002:0001c410       ??_C@_15CKDMCJAF@?$AAg?$AAl@ 00485410     libucrt:lcidtoname_downlevel.obj
 0002:0001c418       ??_C@_17CNJFBPG@?$AAk?$AAo?$AAk@ 00485418     libucrt:lcidtoname_downlevel.obj
 0002:0001c420       ??_C@_17FFBJICPL@?$AAs?$AAy?$AAr@ 00485420     libucrt:lcidtoname_downlevel.obj
 0002:0001c428       ??_C@_17KPNDCPAF@?$AAd?$AAi?$AAv@ 00485428     libucrt:lcidtoname_downlevel.obj
 0002:0001c430       ??_C@_11LOCGONAA@@         00485430     libucrt:lcidtoname_downlevel.obj
 0002:0001c434       ??_C@_1M@OKAHONE@?$AAa?$AAr?$AA?9?$AAS?$AAA@ 00485434     libucrt:lcidtoname_downlevel.obj
 0002:0001c440       ??_C@_1M@FFFIGIGK@?$AAb?$AAg?$AA?9?$AAB?$AAG@ 00485440     libucrt:lcidtoname_downlevel.obj
 0002:0001c44c       ??_C@_1M@BJNKEDC@?$AAc?$AAa?$AA?9?$AAE?$AAS@ 0048544c     libucrt:lcidtoname_downlevel.obj
 0002:0001c458       ??_C@_1M@IJJHFJHA@?$AAc?$AAs?$AA?9?$AAC?$AAZ@ 00485458     libucrt:lcidtoname_downlevel.obj
 0002:0001c464       ??_C@_1M@CLPEOBGI@?$AAd?$AAa?$AA?9?$AAD?$AAK@ 00485464     libucrt:lcidtoname_downlevel.obj
 0002:0001c470       ??_C@_1M@MCMADGCB@?$AAd?$AAe?$AA?9?$AAD?$AAE@ 00485470     libucrt:lcidtoname_downlevel.obj
 0002:0001c47c       ??_C@_1M@OOCKEMAM@?$AAe?$AAl?$AA?9?$AAG?$AAR@ 0048547c     libucrt:lcidtoname_downlevel.obj
 0002:0001c488       ??_C@_1M@DDNJFGID@?$AAf?$AAi?$AA?9?$AAF?$AAI@ 00485488     libucrt:lcidtoname_downlevel.obj
 0002:0001c494       ??_C@_1M@GLIPPMAC@?$AAf?$AAr?$AA?9?$AAF?$AAR@ 00485494     libucrt:lcidtoname_downlevel.obj
 0002:0001c4a0       ??_C@_1M@GFMCHPE@?$AAh?$AAe?$AA?9?$AAI?$AAL@ 004854a0     libucrt:lcidtoname_downlevel.obj
 0002:0001c4ac       ??_C@_1M@MHLPGNKM@?$AAh?$AAu?$AA?9?$AAH?$AAU@ 004854ac     libucrt:lcidtoname_downlevel.obj
 0002:0001c4b8       ??_C@_1M@LPDDNNPN@?$AAi?$AAs?$AA?9?$AAI?$AAS@ 004854b8     libucrt:lcidtoname_downlevel.obj
 0002:0001c4c4       ??_C@_1M@MADIPODN@?$AAi?$AAt?$AA?9?$AAI?$AAT@ 004854c4     libucrt:lcidtoname_downlevel.obj
 0002:0001c4d0       ??_C@_1M@IHBJJGG@?$AAn?$AAl?$AA?9?$AAN?$AAL@ 004854d0     libucrt:lcidtoname_downlevel.obj
 0002:0001c4dc       ??_C@_1M@EANAGDL@?$AAn?$AAb?$AA?9?$AAN?$AAO@ 004854dc     libucrt:lcidtoname_downlevel.obj
 0002:0001c4e8       ??_C@_1M@NEIEMEGP@?$AAp?$AAl?$AA?9?$AAP?$AAL@ 004854e8     libucrt:lcidtoname_downlevel.obj
 0002:0001c4f4       ??_C@_1M@BOCFIGEP@?$AAp?$AAt?$AA?9?$AAB?$AAR@ 004854f4     libucrt:lcidtoname_downlevel.obj
 0002:0001c500       ??_C@_1M@IMPFOPBG@?$AAr?$AAo?$AA?9?$AAR?$AAO@ 00485500     libucrt:lcidtoname_downlevel.obj
 0002:0001c50c       ??_C@_1M@IDNNEJMM@?$AAr?$AAu?$AA?9?$AAR?$AAU@ 0048550c     libucrt:lcidtoname_downlevel.obj
 0002:0001c518       ??_C@_1M@LILEEOGM@?$AAh?$AAr?$AA?9?$AAH?$AAR@ 00485518     libucrt:lcidtoname_downlevel.obj
 0002:0001c524       ??_C@_1M@FKIFEHPB@?$AAs?$AAk?$AA?9?$AAS?$AAK@ 00485524     libucrt:lcidtoname_downlevel.obj
 0002:0001c530       ??_C@_1M@LJMAMNPJ@?$AAs?$AAq?$AA?9?$AAA?$AAL@ 00485530     libucrt:lcidtoname_downlevel.obj
 0002:0001c53c       ??_C@_1M@GIAKDKJK@?$AAs?$AAv?$AA?9?$AAS?$AAE@ 0048553c     libucrt:lcidtoname_downlevel.obj
 0002:0001c548       ??_C@_1M@MKJKIKCL@?$AAt?$AAh?$AA?9?$AAT?$AAH@ 00485548     libucrt:lcidtoname_downlevel.obj
 0002:0001c554       ??_C@_1M@MFLCCMPB@?$AAt?$AAr?$AA?9?$AAT?$AAR@ 00485554     libucrt:lcidtoname_downlevel.obj
 0002:0001c560       ??_C@_1M@OIJHDKJN@?$AAu?$AAr?$AA?9?$AAP?$AAK@ 00485560     libucrt:lcidtoname_downlevel.obj
 0002:0001c56c       ??_C@_1M@LHIPCIEK@?$AAi?$AAd?$AA?9?$AAI?$AAD@ 0048556c     libucrt:lcidtoname_downlevel.obj
 0002:0001c578       ??_C@_1M@MFMOBGI@?$AAu?$AAk?$AA?9?$AAU?$AAA@ 00485578     libucrt:lcidtoname_downlevel.obj
 0002:0001c584       ??_C@_1M@OBGLJIPL@?$AAb?$AAe?$AA?9?$AAB?$AAY@ 00485584     libucrt:lcidtoname_downlevel.obj
 0002:0001c590       ??_C@_1M@BCFAJEAD@?$AAs?$AAl?$AA?9?$AAS?$AAI@ 00485590     libucrt:lcidtoname_downlevel.obj
 0002:0001c59c       ??_C@_1M@FKFFEDDN@?$AAe?$AAt?$AA?9?$AAE?$AAE@ 0048559c     libucrt:lcidtoname_downlevel.obj
 0002:0001c5a8       ??_C@_1M@KGKKAACI@?$AAl?$AAv?$AA?9?$AAL?$AAV@ 004855a8     libucrt:lcidtoname_downlevel.obj
 0002:0001c5b4       ??_C@_1M@IFGBIJO@?$AAl?$AAt?$AA?9?$AAL?$AAT@ 004855b4     libucrt:lcidtoname_downlevel.obj
 0002:0001c5c0       ??_C@_1M@FGEAHEDM@?$AAf?$AAa?$AA?9?$AAI?$AAR@ 004855c0     libucrt:lcidtoname_downlevel.obj
 0002:0001c5cc       ??_C@_1M@KBMAIBFN@?$AAv?$AAi?$AA?9?$AAV?$AAN@ 004855cc     libucrt:lcidtoname_downlevel.obj
 0002:0001c5d8       ??_C@_1M@GPCBKDJK@?$AAh?$AAy?$AA?9?$AAA?$AAM@ 004855d8     libucrt:lcidtoname_downlevel.obj
 0002:0001c5e4       ??_C@_1BG@BECMDDJB@?$AAa?$AAz?$AA?9?$AAA?$AAZ?$AA?9?$AAL?$AAa?$AAt?$AAn@ 004855e4     libucrt:lcidtoname_downlevel.obj
 0002:0001c5fc       ??_C@_1M@MAOFCAEA@?$AAe?$AAu?$AA?9?$AAE?$AAS@ 004855fc     libucrt:lcidtoname_downlevel.obj
 0002:0001c608       ??_C@_1M@IGHABKPI@?$AAm?$AAk?$AA?9?$AAM?$AAK@ 00485608     libucrt:lcidtoname_downlevel.obj
 0002:0001c614       ??_C@_1M@IAIGNEJG@?$AAt?$AAn?$AA?9?$AAZ?$AAA@ 00485614     libucrt:lcidtoname_downlevel.obj
 0002:0001c620       ??_C@_1M@IIJCOJFA@?$AAx?$AAh?$AA?9?$AAZ?$AAA@ 00485620     libucrt:lcidtoname_downlevel.obj
 0002:0001c62c       ??_C@_1M@LGPJHNJH@?$AAz?$AAu?$AA?9?$AAZ?$AAA@ 0048562c     libucrt:lcidtoname_downlevel.obj
 0002:0001c638       ??_C@_1M@HOKAOIO@?$AAa?$AAf?$AA?9?$AAZ?$AAA@ 00485638     libucrt:lcidtoname_downlevel.obj
 0002:0001c644       ??_C@_1M@DPCLHLIE@?$AAk?$AAa?$AA?9?$AAG?$AAE@ 00485644     libucrt:lcidtoname_downlevel.obj
 0002:0001c650       ??_C@_1M@BLKMHJBI@?$AAf?$AAo?$AA?9?$AAF?$AAO@ 00485650     libucrt:lcidtoname_downlevel.obj
 0002:0001c65c       ??_C@_1M@LGGJAPPB@?$AAh?$AAi?$AA?9?$AAI?$AAN@ 0048565c     libucrt:lcidtoname_downlevel.obj
 0002:0001c668       ??_C@_1M@FIKPIHFE@?$AAm?$AAt?$AA?9?$AAM?$AAT@ 00485668     libucrt:lcidtoname_downlevel.obj
 0002:0001c674       ??_C@_1M@HEGGPBFA@?$AAs?$AAe?$AA?9?$AAN?$AAO@ 00485674     libucrt:lcidtoname_downlevel.obj
 0002:0001c680       ??_C@_1M@EIBJEEPA@?$AAm?$AAs?$AA?9?$AAM?$AAY@ 00485680     libucrt:lcidtoname_downlevel.obj
 0002:0001c68c       ??_C@_1M@FHLBGMPP@?$AAk?$AAk?$AA?9?$AAK?$AAZ@ 0048568c     libucrt:lcidtoname_downlevel.obj
 0002:0001c698       ??_C@_1M@NGJJLCGI@?$AAk?$AAy?$AA?9?$AAK?$AAG@ 00485698     libucrt:lcidtoname_downlevel.obj
 0002:0001c6a4       ??_C@_1M@GIENNBFC@?$AAs?$AAw?$AA?9?$AAK?$AAE@ 004856a4     libucrt:lcidtoname_downlevel.obj
 0002:0001c6b0       ??_C@_1BG@NDGMJIMJ@?$AAu?$AAz?$AA?9?$AAU?$AAZ?$AA?9?$AAL?$AAa?$AAt?$AAn@ 004856b0     libucrt:lcidtoname_downlevel.obj
 0002:0001c6c8       ??_C@_1M@IDCCIHBC@?$AAt?$AAt?$AA?9?$AAR?$AAU@ 004856c8     libucrt:lcidtoname_downlevel.obj
 0002:0001c6d4       ??_C@_1M@LOICPMOJ@?$AAb?$AAn?$AA?9?$AAI?$AAN@ 004856d4     libucrt:lcidtoname_downlevel.obj
 0002:0001c6e0       ??_C@_1M@KPKKNEAH@?$AAp?$AAa?$AA?9?$AAI?$AAN@ 004856e0     libucrt:lcidtoname_downlevel.obj
 0002:0001c6ec       ??_C@_1M@PJGPPBOG@?$AAg?$AAu?$AA?9?$AAI?$AAN@ 004856ec     libucrt:lcidtoname_downlevel.obj
 0002:0001c6f8       ??_C@_1M@KMKMOPHI@?$AAt?$AAa?$AA?9?$AAI?$AAN@ 004856f8     libucrt:lcidtoname_downlevel.obj
 0002:0001c704       ??_C@_1M@KFEHEPAC@?$AAt?$AAe?$AA?9?$AAI?$AAN@ 00485704     libucrt:lcidtoname_downlevel.obj
 0002:0001c710       ??_C@_1M@CDCLMGHI@?$AAk?$AAn?$AA?9?$AAI?$AAN@ 00485710     libucrt:lcidtoname_downlevel.obj
 0002:0001c71c       ??_C@_1M@MIODLDKF@?$AAm?$AAl?$AA?9?$AAI?$AAN@ 0048571c     libucrt:lcidtoname_downlevel.obj
 0002:0001c728       ??_C@_1M@PBIEACPO@?$AAm?$AAr?$AA?9?$AAI?$AAN@ 00485728     libucrt:lcidtoname_downlevel.obj
 0002:0001c734       ??_C@_1M@NIDEAGPH@?$AAs?$AAa?$AA?9?$AAI?$AAN@ 00485734     libucrt:lcidtoname_downlevel.obj
 0002:0001c740       ??_C@_1M@FHIHCBIO@?$AAm?$AAn?$AA?9?$AAM?$AAN@ 00485740     libucrt:lcidtoname_downlevel.obj
 0002:0001c74c       ??_C@_1M@JAIJPENP@?$AAc?$AAy?$AA?9?$AAG?$AAB@ 0048574c     libucrt:lcidtoname_downlevel.obj
 0002:0001c758       ??_C@_1M@PHGFBEPN@?$AAg?$AAl?$AA?9?$AAE?$AAS@ 00485758     libucrt:lcidtoname_downlevel.obj
 0002:0001c764       ??_C@_1O@KPIPDNCP@?$AAk?$AAo?$AAk?$AA?9?$AAI?$AAN@ 00485764     libucrt:lcidtoname_downlevel.obj
 0002:0001c774       ??_C@_1O@KNHJLDJA@?$AAs?$AAy?$AAr?$AA?9?$AAS?$AAY@ 00485774     libucrt:lcidtoname_downlevel.obj
 0002:0001c784       ??_C@_1O@MKEKBLAH@?$AAd?$AAi?$AAv?$AA?9?$AAM?$AAV@ 00485784     libucrt:lcidtoname_downlevel.obj
 0002:0001c794       ??_C@_1O@OHDCKDDF@?$AAq?$AAu?$AAz?$AA?9?$AAB?$AAO@ 00485794     libucrt:lcidtoname_downlevel.obj
 0002:0001c7a4       ??_C@_1M@LEPJNLFD@?$AAn?$AAs?$AA?9?$AAZ?$AAA@ 004857a4     libucrt:lcidtoname_downlevel.obj
 0002:0001c7b0       ??_C@_1M@OMLEIIJB@?$AAm?$AAi?$AA?9?$AAN?$AAZ@ 004857b0     libucrt:lcidtoname_downlevel.obj
 0002:0001c7bc       ??_C@_1M@PMPEAILG@?$AAa?$AAr?$AA?9?$AAI?$AAQ@ 004857bc     libucrt:lcidtoname_downlevel.obj
 0002:0001c7c8       ??_C@_1M@CNKPNOEE@?$AAd?$AAe?$AA?9?$AAC?$AAH@ 004857c8     libucrt:lcidtoname_downlevel.obj
 0002:0001c7d4       ??_C@_1M@LKMGMLKO@?$AAe?$AAn?$AA?9?$AAG?$AAB@ 004857d4     libucrt:lcidtoname_downlevel.obj
 0002:0001c7e0       ??_C@_1M@PGKJFFGL@?$AAe?$AAs?$AA?9?$AAM?$AAX@ 004857e0     libucrt:lcidtoname_downlevel.obj
 0002:0001c7ec       ??_C@_1M@DNNANBDC@?$AAf?$AAr?$AA?9?$AAB?$AAE@ 004857ec     libucrt:lcidtoname_downlevel.obj
 0002:0001c7f8       ??_C@_1M@HLGMDFHM@?$AAi?$AAt?$AA?9?$AAC?$AAH@ 004857f8     libucrt:lcidtoname_downlevel.obj
 0002:0001c804       ??_C@_1M@CLLBGJH@?$AAn?$AAl?$AA?9?$AAB?$AAE@ 00485804     libucrt:lcidtoname_downlevel.obj
 0002:0001c810       ??_C@_1M@BODBOGLF@?$AAn?$AAn?$AA?9?$AAN?$AAO@ 00485810     libucrt:lcidtoname_downlevel.obj
 0002:0001c81c       ??_C@_1M@HFFAHKAD@?$AAp?$AAt?$AA?9?$AAP?$AAT@ 0048581c     libucrt:lcidtoname_downlevel.obj
 0002:0001c828       ??_C@_1BG@LNOAKHIE@?$AAs?$AAr?$AA?9?$AAS?$AAP?$AA?9?$AAL?$AAa?$AAt?$AAn@ 00485828     libucrt:lcidtoname_downlevel.obj
 0002:0001c840       ??_C@_1M@HBMHBGAK@?$AAs?$AAv?$AA?9?$AAF?$AAI@ 00485840     libucrt:lcidtoname_downlevel.obj
 0002:0001c84c       ??_C@_1BG@DGCJGJBE@?$AAa?$AAz?$AA?9?$AAA?$AAZ?$AA?9?$AAC?$AAy?$AAr?$AAl@ 0048584c     libucrt:lcidtoname_downlevel.obj
 0002:0001c864       ??_C@_1M@KEJDAAHB@?$AAs?$AAe?$AA?9?$AAS?$AAE@ 00485864     libucrt:lcidtoname_downlevel.obj
 0002:0001c870       ??_C@_1M@HEIBJJAD@?$AAm?$AAs?$AA?9?$AAB?$AAN@ 00485870     libucrt:lcidtoname_downlevel.obj
 0002:0001c87c       ??_C@_1BG@PBGJMCEM@?$AAu?$AAz?$AA?9?$AAU?$AAZ?$AA?9?$AAC?$AAy?$AAr?$AAl@ 0048587c     libucrt:lcidtoname_downlevel.obj
 0002:0001c894       ??_C@_1O@LAOBCMDF@?$AAq?$AAu?$AAz?$AA?9?$AAE?$AAC@ 00485894     libucrt:lcidtoname_downlevel.obj
 0002:0001c8a4       ??_C@_1M@POEEMAIO@?$AAa?$AAr?$AA?9?$AAE?$AAG@ 004858a4     libucrt:lcidtoname_downlevel.obj
 0002:0001c8b0       ??_C@_1M@EFAKDEDL@?$AAz?$AAh?$AA?9?$AAH?$AAK@ 004858b0     libucrt:lcidtoname_downlevel.obj
 0002:0001c8bc       ??_C@_1M@HKKIJHGI@?$AAd?$AAe?$AA?9?$AAA?$AAT@ 004858bc     libucrt:lcidtoname_downlevel.obj
 0002:0001c8c8       ??_C@_1M@KBFBEHJF@?$AAe?$AAn?$AA?9?$AAA?$AAU@ 004858c8     libucrt:lcidtoname_downlevel.obj
 0002:0001c8d4       ??_C@_1M@MNPLFAAH@?$AAe?$AAs?$AA?9?$AAE?$AAS@ 004858d4     libucrt:lcidtoname_downlevel.obj
 0002:0001c8e0       ??_C@_1M@HJOOJFMA@?$AAf?$AAr?$AA?9?$AAC?$AAA@ 004858e0     libucrt:lcidtoname_downlevel.obj
 0002:0001c8ec       ??_C@_1BG@JPOFPNAB@?$AAs?$AAr?$AA?9?$AAS?$AAP?$AA?9?$AAC?$AAy?$AAr?$AAl@ 004858ec     libucrt:lcidtoname_downlevel.obj
 0002:0001c904       ??_C@_1M@LNFOCMOB@?$AAs?$AAe?$AA?9?$AAF?$AAI@ 00485904     libucrt:lcidtoname_downlevel.obj
 0002:0001c910       ??_C@_1O@MGJBOAMB@?$AAq?$AAu?$AAz?$AA?9?$AAP?$AAE@ 00485910     libucrt:lcidtoname_downlevel.obj
 0002:0001c920       ??_C@_1M@GJINLBOK@?$AAa?$AAr?$AA?9?$AAL?$AAY@ 00485920     libucrt:lcidtoname_downlevel.obj
 0002:0001c92c       ??_C@_1M@GGMNHJNL@?$AAz?$AAh?$AA?9?$AAS?$AAG@ 0048592c     libucrt:lcidtoname_downlevel.obj
 0002:0001c938       ??_C@_1M@HOIKODND@?$AAd?$AAe?$AA?9?$AAL?$AAU@ 00485938     libucrt:lcidtoname_downlevel.obj
 0002:0001c944       ??_C@_1M@DDOCCGFG@?$AAe?$AAn?$AA?9?$AAC?$AAA@ 00485944     libucrt:lcidtoname_downlevel.obj
 0002:0001c950       ??_C@_1M@BNOEMJLF@?$AAe?$AAs?$AA?9?$AAG?$AAT@ 00485950     libucrt:lcidtoname_downlevel.obj
 0002:0001c95c       ??_C@_1M@EOGNKEK@?$AAf?$AAr?$AA?9?$AAC?$AAH@ 0048595c     libucrt:lcidtoname_downlevel.obj
 0002:0001c968       ??_C@_1M@FLIDJFHL@?$AAh?$AAr?$AA?9?$AAB?$AAA@ 00485968     libucrt:lcidtoname_downlevel.obj
 0002:0001c974       ??_C@_1O@FMCELNAJ@?$AAs?$AAm?$AAj?$AA?9?$AAN?$AAO@ 00485974     libucrt:lcidtoname_downlevel.obj
 0002:0001c984       ??_C@_1M@JHGLJMGJ@?$AAa?$AAr?$AA?9?$AAD?$AAZ@ 00485984     libucrt:lcidtoname_downlevel.obj
 0002:0001c990       ??_C@_1M@JKKFDCNP@?$AAz?$AAh?$AA?9?$AAM?$AAO@ 00485990     libucrt:lcidtoname_downlevel.obj
 0002:0001c99c       ??_C@_1M@GEEFALPE@?$AAd?$AAe?$AA?9?$AAL?$AAI@ 0048599c     libucrt:lcidtoname_downlevel.obj
 0002:0001c9a8       ??_C@_1M@IGEOFBG@?$AAe?$AAn?$AA?9?$AAN?$AAZ@ 004859a8     libucrt:lcidtoname_downlevel.obj
 0002:0001c9b4       ??_C@_1M@KDBONEHP@?$AAe?$AAs?$AA?9?$AAC?$AAR@ 004859b4     libucrt:lcidtoname_downlevel.obj
 0002:0001c9c0       ??_C@_1M@FHMDOHNN@?$AAf?$AAr?$AA?9?$AAL?$AAU@ 004859c0     libucrt:lcidtoname_downlevel.obj
 0002:0001c9cc       ??_C@_1BG@NFKKMAFG@?$AAb?$AAs?$AA?9?$AAB?$AAA?$AA?9?$AAL?$AAa?$AAt?$AAn@ 004859cc     libucrt:lcidtoname_downlevel.obj
 0002:0001c9e4       ??_C@_1O@IMNBEMCI@?$AAs?$AAm?$AAj?$AA?9?$AAS?$AAE@ 004859e4     libucrt:lcidtoname_downlevel.obj
 0002:0001c9f4       ??_C@_1M@DHHMBNDP@?$AAa?$AAr?$AA?9?$AAM?$AAA@ 004859f4     libucrt:lcidtoname_downlevel.obj
 0002:0001ca00       ??_C@_1M@BNBLJCGH@?$AAe?$AAn?$AA?9?$AAI?$AAE@ 00485a00     libucrt:lcidtoname_downlevel.obj
 0002:0001ca0c       ??_C@_1M@GEPAFMDL@?$AAe?$AAs?$AA?9?$AAP?$AAA@ 00485a0c     libucrt:lcidtoname_downlevel.obj
 0002:0001ca18       ??_C@_1M@OJONDMDL@?$AAf?$AAr?$AA?9?$AAM?$AAC@ 00485a18     libucrt:lcidtoname_downlevel.obj
 0002:0001ca24       ??_C@_1BG@OBCNFJB@?$AAs?$AAr?$AA?9?$AAB?$AAA?$AA?9?$AAL?$AAa?$AAt?$AAn@ 00485a24     libucrt:lcidtoname_downlevel.obj
 0002:0001ca3c       ??_C@_1O@KEMEEGPO@?$AAs?$AAm?$AAa?$AA?9?$AAN?$AAO@ 00485a3c     libucrt:lcidtoname_downlevel.obj
 0002:0001ca4c       ??_C@_1M@ELMGFODK@?$AAa?$AAr?$AA?9?$AAT?$AAN@ 00485a4c     libucrt:lcidtoname_downlevel.obj
 0002:0001ca58       ??_C@_1M@BHDLHFAF@?$AAe?$AAn?$AA?9?$AAZ?$AAA@ 00485a58     libucrt:lcidtoname_downlevel.obj
 0002:0001ca64       ??_C@_1M@BMGIGLIF@?$AAe?$AAs?$AA?9?$AAD?$AAO@ 00485a64     libucrt:lcidtoname_downlevel.obj
 0002:0001ca70       ??_C@_1BG@CMBHIPBE@?$AAs?$AAr?$AA?9?$AAB?$AAA?$AA?9?$AAC?$AAy?$AAr?$AAl@ 00485a70     libucrt:lcidtoname_downlevel.obj
 0002:0001ca88       ??_C@_1O@HEDBLHNP@?$AAs?$AAm?$AAa?$AA?9?$AAS?$AAE@ 00485a88     libucrt:lcidtoname_downlevel.obj
 0002:0001ca98       ??_C@_1M@DAGCADIM@?$AAa?$AAr?$AA?9?$AAO?$AAM@ 00485a98     libucrt:lcidtoname_downlevel.obj
 0002:0001caa4       ??_C@_1M@FODLMICG@?$AAe?$AAn?$AA?9?$AAJ?$AAM@ 00485aa4     libucrt:lcidtoname_downlevel.obj
 0002:0001cab0       ??_C@_1M@DNMLCIHB@?$AAe?$AAs?$AA?9?$AAV?$AAE@ 00485ab0     libucrt:lcidtoname_downlevel.obj
 0002:0001cabc       ??_C@_1O@EOKHMKJK@?$AAs?$AAm?$AAs?$AA?9?$AAF?$AAI@ 00485abc     libucrt:lcidtoname_downlevel.obj
 0002:0001cacc       ??_C@_1M@CAFJMKOF@?$AAa?$AAr?$AA?9?$AAY?$AAE@ 00485acc     libucrt:lcidtoname_downlevel.obj
 0002:0001cad8       ??_C@_1M@CBFHIJLI@?$AAe?$AAn?$AA?9?$AAC?$AAB@ 00485ad8     libucrt:lcidtoname_downlevel.obj
 0002:0001cae4       ??_C@_1M@BGNFLDN@?$AAe?$AAs?$AA?9?$AAC?$AAO@ 00485ae4     libucrt:lcidtoname_downlevel.obj
 0002:0001caf0       ??_C@_1O@JMPHMAMC@?$AAs?$AAm?$AAn?$AA?9?$AAF?$AAI@ 00485af0     libucrt:lcidtoname_downlevel.obj
 0002:0001cb00       ??_C@_1M@JLANABKE@?$AAa?$AAr?$AA?9?$AAS?$AAY@ 00485b00     libucrt:lcidtoname_downlevel.obj
 0002:0001cb0c       ??_C@_1M@HPKGCFGN@?$AAe?$AAn?$AA?9?$AAB?$AAZ@ 00485b0c     libucrt:lcidtoname_downlevel.obj
 0002:0001cb18       ??_C@_1M@OLJCMLGM@?$AAe?$AAs?$AA?9?$AAP?$AAE@ 00485b18     libucrt:lcidtoname_downlevel.obj
 0002:0001cb24       ??_C@_1M@MKKGFKLE@?$AAa?$AAr?$AA?9?$AAJ?$AAO@ 00485b24     libucrt:lcidtoname_downlevel.obj
 0002:0001cb30       ??_C@_1M@EKPGLDNI@?$AAe?$AAn?$AA?9?$AAT?$AAT@ 00485b30     libucrt:lcidtoname_downlevel.obj
 0002:0001cb3c       ??_C@_1M@OONGHFHE@?$AAe?$AAs?$AA?9?$AAA?$AAR@ 00485b3c     libucrt:lcidtoname_downlevel.obj
 0002:0001cb48       ??_C@_1M@OOJFGBHE@?$AAa?$AAr?$AA?9?$AAL?$AAB@ 00485b48     libucrt:lcidtoname_downlevel.obj
 0002:0001cb54       ??_C@_1M@GCEJHNEG@?$AAe?$AAn?$AA?9?$AAZ?$AAW@ 00485b54     libucrt:lcidtoname_downlevel.obj
 0002:0001cb60       ??_C@_1M@JNOCAHJI@?$AAe?$AAs?$AA?9?$AAE?$AAC@ 00485b60     libucrt:lcidtoname_downlevel.obj
 0002:0001cb6c       ??_C@_1M@JEFHPGGB@?$AAa?$AAr?$AA?9?$AAK?$AAW@ 00485b6c     libucrt:lcidtoname_downlevel.obj
 0002:0001cb78       ??_C@_1M@MLKIBJOJ@?$AAe?$AAn?$AA?9?$AAP?$AAH@ 00485b78     libucrt:lcidtoname_downlevel.obj
 0002:0001cb84       ??_C@_1M@BDNIPEND@?$AAe?$AAs?$AA?9?$AAC?$AAL@ 00485b84     libucrt:lcidtoname_downlevel.obj
 0002:0001cb90       ??_C@_1M@MPNMEKBD@?$AAa?$AAr?$AA?9?$AAA?$AAE@ 00485b90     libucrt:lcidtoname_downlevel.obj
 0002:0001cb9c       ??_C@_1M@KBJALCPI@?$AAe?$AAs?$AA?9?$AAU?$AAY@ 00485b9c     libucrt:lcidtoname_downlevel.obj
 0002:0001cba8       ??_C@_1M@LLCCOAGA@?$AAa?$AAr?$AA?9?$AAB?$AAH@ 00485ba8     libucrt:lcidtoname_downlevel.obj
 0002:0001cbb4       ??_C@_1M@PBFNCDEL@?$AAe?$AAs?$AA?9?$AAP?$AAY@ 00485bb4     libucrt:lcidtoname_downlevel.obj
 0002:0001cbc0       ??_C@_1M@EDGINPNP@?$AAa?$AAr?$AA?9?$AAQ?$AAA@ 00485bc0     libucrt:lcidtoname_downlevel.obj
 0002:0001cbcc       ??_C@_1M@MKDBIIJI@?$AAe?$AAs?$AA?9?$AAB?$AAO@ 00485bcc     libucrt:lcidtoname_downlevel.obj
 0002:0001cbd8       ??_C@_1M@CPKKEBLD@?$AAe?$AAs?$AA?9?$AAS?$AAV@ 00485bd8     libucrt:lcidtoname_downlevel.obj
 0002:0001cbe4       ??_C@_1M@NDBGMMJL@?$AAe?$AAs?$AA?9?$AAH?$AAN@ 00485be4     libucrt:lcidtoname_downlevel.obj
 0002:0001cbf0       ??_C@_1M@JIJIBHDP@?$AAe?$AAs?$AA?9?$AAN?$AAI@ 00485bf0     libucrt:lcidtoname_downlevel.obj
 0002:0001cbfc       ??_C@_1M@CGFMKEEK@?$AAe?$AAs?$AA?9?$AAP?$AAR@ 00485bfc     libucrt:lcidtoname_downlevel.obj
 0002:0001cc08       ??_C@_1O@ICJHKIIK@?$AAz?$AAh?$AA?9?$AAC?$AAH?$AAT@ 00485c08     libucrt:lcidtoname_downlevel.obj
 0002:0001cc18       ??_C@_15CLNEJCE@?$AAs?$AAr@ 00485c18     libucrt:lcidtoname_downlevel.obj
 0002:0001d340       ??_C@_1M@KAHEKEIG@?$AAa?$AAf?$AA?9?$AAz?$AAa@ 00486340     libucrt:lcidtoname_downlevel.obj
 0002:0001d34c       ??_C@_1M@GIECOABL@?$AAa?$AAr?$AA?9?$AAa?$AAe@ 0048634c     libucrt:lcidtoname_downlevel.obj
 0002:0001d358       ??_C@_1M@BMLMEKGI@?$AAa?$AAr?$AA?9?$AAb?$AAh@ 00486358     libucrt:lcidtoname_downlevel.obj
 0002:0001d364       ??_C@_1M@DAPFDGGB@?$AAa?$AAr?$AA?9?$AAd?$AAz@ 00486364     libucrt:lcidtoname_downlevel.obj
 0002:0001d370       ??_C@_1M@FJNKGKIG@?$AAa?$AAr?$AA?9?$AAe?$AAg@ 00486370     libucrt:lcidtoname_downlevel.obj
 0002:0001d37c       ??_C@_1M@FLGKKCLO@?$AAa?$AAr?$AA?9?$AAi?$AAq@ 0048637c     libucrt:lcidtoname_downlevel.obj
 0002:0001d388       ??_C@_1M@GNDIPALM@?$AAa?$AAr?$AA?9?$AAj?$AAo@ 00486388     libucrt:lcidtoname_downlevel.obj
 0002:0001d394       ??_C@_1M@DDMJFMGJ@?$AAa?$AAr?$AA?9?$AAk?$AAw@ 00486394     libucrt:lcidtoname_downlevel.obj
 0002:0001d3a0       ??_C@_1M@EJALMLHM@?$AAa?$AAr?$AA?9?$AAl?$AAb@ 004863a0     libucrt:lcidtoname_downlevel.obj
 0002:0001d3ac       ??_C@_1M@MOBDBLOC@?$AAa?$AAr?$AA?9?$AAl?$AAy@ 004863ac     libucrt:lcidtoname_downlevel.obj
 0002:0001d3b8       ??_C@_1M@JAOCLHDH@?$AAa?$AAr?$AA?9?$AAm?$AAa@ 004863b8     libucrt:lcidtoname_downlevel.obj
 0002:0001d3c4       ??_C@_1M@JHPMKJIE@?$AAa?$AAr?$AA?9?$AAo?$AAm@ 004863c4     libucrt:lcidtoname_downlevel.obj
 0002:0001d3d0       ??_C@_1M@OEPGHFNH@?$AAa?$AAr?$AA?9?$AAq?$AAa@ 004863d0     libucrt:lcidtoname_downlevel.obj
 0002:0001d3dc       ??_C@_1M@KJDONENM@?$AAa?$AAr?$AA?9?$AAs?$AAa@ 004863dc     libucrt:lcidtoname_downlevel.obj
 0002:0001d3e8       ??_C@_1M@DMJDKLKM@?$AAa?$AAr?$AA?9?$AAs?$AAy@ 004863e8     libucrt:lcidtoname_downlevel.obj
 0002:0001d3f4       ??_C@_1M@OMFIPEDC@?$AAa?$AAr?$AA?9?$AAt?$AAn@ 004863f4     libucrt:lcidtoname_downlevel.obj
 0002:0001d400       ??_C@_1M@IHMHGAON@?$AAa?$AAr?$AA?9?$AAy?$AAe@ 00486400     libucrt:lcidtoname_downlevel.obj
 0002:0001d40c       ??_C@_1BG@KDCPGJGB@?$AAa?$AAz?$AA?9?$AAa?$AAz?$AA?9?$AAc?$AAy?$AAr?$AAl@ 0048640c     libucrt:lcidtoname_downlevel.obj
 0002:0001d424       ??_C@_1BG@IBCKDDOE@?$AAa?$AAz?$AA?9?$AAa?$AAz?$AA?9?$AAl?$AAa?$AAt?$AAn@ 00486424     libucrt:lcidtoname_downlevel.obj
 0002:0001d43c       ??_C@_1M@EGPFDCPD@?$AAb?$AAe?$AA?9?$AAb?$AAy@ 0048643c     libucrt:lcidtoname_downlevel.obj
 0002:0001d448       ??_C@_1M@PCMGMCGC@?$AAb?$AAg?$AA?9?$AAb?$AAg@ 00486448     libucrt:lcidtoname_downlevel.obj
 0002:0001d454       ??_C@_1M@BJBMFGOB@?$AAb?$AAn?$AA?9?$AAi?$AAn@ 00486454     libucrt:lcidtoname_downlevel.obj
 0002:0001d460       ??_C@_1BG@EAKMMACD@?$AAb?$AAs?$AA?9?$AAb?$AAa?$AA?9?$AAl?$AAa?$AAt?$AAn@ 00486460     libucrt:lcidtoname_downlevel.obj
 0002:0001d478       ??_C@_1M@KGADAODK@?$AAc?$AAa?$AA?9?$AAe?$AAs@ 00486478     libucrt:lcidtoname_downlevel.obj
 0002:0001d484       ??_C@_1M@COAJPDHI@?$AAc?$AAs?$AA?9?$AAc?$AAz@ 00486484     libucrt:lcidtoname_downlevel.obj
 0002:0001d490       ??_C@_1M@DHBHFONH@?$AAc?$AAy?$AA?9?$AAg?$AAb@ 00486490     libucrt:lcidtoname_downlevel.obj
 0002:0001d49c       ??_C@_1M@IMGKELGA@?$AAd?$AAa?$AA?9?$AAd?$AAk@ 0048649c     libucrt:lcidtoname_downlevel.obj
 0002:0001d4a8       ??_C@_1M@NNDGDNGA@?$AAd?$AAe?$AA?9?$AAa?$AAt@ 004864a8     libucrt:lcidtoname_downlevel.obj
 0002:0001d4b4       ??_C@_1M@IKDBHEEM@?$AAd?$AAe?$AA?9?$AAc?$AAh@ 004864b4     libucrt:lcidtoname_downlevel.obj
 0002:0001d4c0       ??_C@_1M@GFFOJMCJ@?$AAd?$AAe?$AA?9?$AAd?$AAe@ 004864c0     libucrt:lcidtoname_downlevel.obj
 0002:0001d4cc       ??_C@_1M@MDNLKBPM@?$AAd?$AAe?$AA?9?$AAl?$AAi@ 004864cc     libucrt:lcidtoname_downlevel.obj
 0002:0001d4d8       ??_C@_1M@NJBEEJNL@?$AAd?$AAe?$AA?9?$AAl?$AAu@ 004864d8     libucrt:lcidtoname_downlevel.obj
 0002:0001d4e4       ??_C@_1O@GNNELBAP@?$AAd?$AAi?$AAv?$AA?9?$AAm?$AAv@ 004864e4     libucrt:lcidtoname_downlevel.obj
 0002:0001d4f4       ??_C@_1M@EJLEOGAE@?$AAe?$AAl?$AA?9?$AAg?$AAr@ 004864f4     libucrt:lcidtoname_downlevel.obj
 0002:0001d500       ??_C@_1M@GMPONJN@?$AAe?$AAn?$AA?9?$AAa?$AAu@ 00486500     libucrt:lcidtoname_downlevel.obj
 0002:0001d50c       ??_C@_1M@NIDIIPGF@?$AAe?$AAn?$AA?9?$AAb?$AAz@ 0048650c     libucrt:lcidtoname_downlevel.obj
 0002:0001d518       ??_C@_1M@JEHMIMFO@?$AAe?$AAn?$AA?9?$AAc?$AAa@ 00486518     libucrt:lcidtoname_downlevel.obj
 0002:0001d524       ??_C@_1M@IGMJCDLA@?$AAe?$AAn?$AA?9?$AAc?$AAb@ 00486524     libucrt:lcidtoname_downlevel.obj
 0002:0001d530       ??_C@_1M@BNFIGBKG@?$AAe?$AAn?$AA?9?$AAg?$AAb@ 00486530     libucrt:lcidtoname_downlevel.obj
 0002:0001d53c       ??_C@_1M@LKIFDIGP@?$AAe?$AAn?$AA?9?$AAi?$AAe@ 0048653c     libucrt:lcidtoname_downlevel.obj
 0002:0001d548       ??_C@_1M@PJKFGCCO@?$AAe?$AAn?$AA?9?$AAj?$AAm@ 00486548     libucrt:lcidtoname_downlevel.obj
 0002:0001d554       ??_C@_1M@KPPKEPBO@?$AAe?$AAn?$AA?9?$AAn?$AAz@ 00486554     libucrt:lcidtoname_downlevel.obj
 0002:0001d560       ??_C@_1M@GMDGLDOB@?$AAe?$AAn?$AA?9?$AAp?$AAh@ 00486560     libucrt:lcidtoname_downlevel.obj
 0002:0001d56c       ??_C@_1M@ONGIBJNA@?$AAe?$AAn?$AA?9?$AAt?$AAt@ 0048656c     libucrt:lcidtoname_downlevel.obj
 0002:0001d578       ??_C@_1M@LLODPCMM@?$AAe?$AAn?$AA?9?$AAu?$AAs@ 00486578     libucrt:lcidtoname_downlevel.obj
 0002:0001d584       ??_C@_1M@LAKFNPAN@?$AAe?$AAn?$AA?9?$AAz?$AAa@ 00486584     libucrt:lcidtoname_downlevel.obj
 0002:0001d590       ??_C@_1M@MFNHNHEO@?$AAe?$AAn?$AA?9?$AAz?$AAw@ 00486590     libucrt:lcidtoname_downlevel.obj
 0002:0001d59c       ??_C@_1M@EJEINPHM@?$AAe?$AAs?$AA?9?$AAa?$AAr@ 0048659c     libucrt:lcidtoname_downlevel.obj
 0002:0001d5a8       ??_C@_1M@GNKPCCJA@?$AAe?$AAs?$AA?9?$AAb?$AAo@ 004865a8     libucrt:lcidtoname_downlevel.obj
 0002:0001d5b4       ??_C@_1M@LEEGFONL@?$AAe?$AAs?$AA?9?$AAc?$AAl@ 004865b4     libucrt:lcidtoname_downlevel.obj
 0002:0001d5c0       ??_C@_1M@KGPDPBDF@?$AAe?$AAs?$AA?9?$AAc?$AAo@ 004865c0     libucrt:lcidtoname_downlevel.obj
 0002:0001d5cc       ??_C@_1M@EIAHOHH@?$AAe?$AAs?$AA?9?$AAc?$AAr@ 004865cc     libucrt:lcidtoname_downlevel.obj
 0002:0001d5d8       ??_C@_1M@LLPGMBIN@?$AAe?$AAs?$AA?9?$AAd?$AAo@ 004865d8     libucrt:lcidtoname_downlevel.obj
 0002:0001d5e4       ??_C@_1M@DKHMKNJA@?$AAe?$AAs?$AA?9?$AAe?$AAc@ 004865e4     libucrt:lcidtoname_downlevel.obj
 0002:0001d5f0       ??_C@_1M@GKGFPKAP@?$AAe?$AAs?$AA?9?$AAe?$AAs@ 004865f0     libucrt:lcidtoname_downlevel.obj
 0002:0001d5fc       ??_C@_1M@LKHKGDLN@?$AAe?$AAs?$AA?9?$AAg?$AAt@ 004865fc     libucrt:lcidtoname_downlevel.obj
 0002:0001d608       ??_C@_1M@HEIIGGJD@?$AAe?$AAs?$AA?9?$AAh?$AAn@ 00486608     libucrt:lcidtoname_downlevel.obj
 0002:0001d614       ??_C@_1M@FBDHPPGD@?$AAe?$AAs?$AA?9?$AAm?$AAx@ 00486614     libucrt:lcidtoname_downlevel.obj
 0002:0001d620       ??_C@_1M@DPAGLNDH@?$AAe?$AAs?$AA?9?$AAn?$AAi@ 00486620     libucrt:lcidtoname_downlevel.obj
 0002:0001d62c       ??_C@_1M@MDGOPGDD@?$AAe?$AAs?$AA?9?$AAp?$AAa@ 0048662c     libucrt:lcidtoname_downlevel.obj
 0002:0001d638       ??_C@_1M@EMAMGBGE@?$AAe?$AAs?$AA?9?$AAp?$AAe@ 00486638     libucrt:lcidtoname_downlevel.obj
 0002:0001d644       ??_C@_1M@IBMCAOEC@?$AAe?$AAs?$AA?9?$AAp?$AAr@ 00486644     libucrt:lcidtoname_downlevel.obj
 0002:0001d650       ??_C@_1M@FGMDIJED@?$AAe?$AAs?$AA?9?$AAp?$AAy@ 00486650     libucrt:lcidtoname_downlevel.obj
 0002:0001d65c       ??_C@_1M@IIDEOLLL@?$AAe?$AAs?$AA?9?$AAs?$AAv@ 0048665c     libucrt:lcidtoname_downlevel.obj
 0002:0001d668       ??_C@_1M@GAOBIPA@?$AAe?$AAs?$AA?9?$AAu?$AAy@ 00486668     libucrt:lcidtoname_downlevel.obj
 0002:0001d674       ??_C@_1M@JKFFICHJ@?$AAe?$AAs?$AA?9?$AAv?$AAe@ 00486674     libucrt:lcidtoname_downlevel.obj
 0002:0001d680       ??_C@_1M@PNMLOJDF@?$AAe?$AAt?$AA?9?$AAe?$AAe@ 00486680     libucrt:lcidtoname_downlevel.obj
 0002:0001d68c       ??_C@_1M@GHHLIKEI@?$AAe?$AAu?$AA?9?$AAe?$AAs@ 0048668c     libucrt:lcidtoname_downlevel.obj
 0002:0001d698       ??_C@_1M@PBNONODE@?$AAf?$AAa?$AA?9?$AAi?$AAr@ 00486698     libucrt:lcidtoname_downlevel.obj
 0002:0001d6a4       ??_C@_1M@JEEHPMIL@?$AAf?$AAi?$AA?9?$AAf?$AAi@ 004866a4     libucrt:lcidtoname_downlevel.obj
 0002:0001d6b0       ??_C@_1M@LMDCNDBA@?$AAf?$AAo?$AA?9?$AAf?$AAo@ 004866b0     libucrt:lcidtoname_downlevel.obj
 0002:0001d6bc       ??_C@_1M@JKEOHLDK@?$AAf?$AAr?$AA?9?$AAb?$AAe@ 004866bc     libucrt:lcidtoname_downlevel.obj
 0002:0001d6c8       ??_C@_1M@NOHADPMI@?$AAf?$AAr?$AA?9?$AAc?$AAa@ 004866c8     libucrt:lcidtoname_downlevel.obj
 0002:0001d6d4       ??_C@_1M@KDHIHAEC@?$AAf?$AAr?$AA?9?$AAc?$AAh@ 004866d4     libucrt:lcidtoname_downlevel.obj
 0002:0001d6e0       ??_C@_1M@MMBBFGAK@?$AAf?$AAr?$AA?9?$AAf?$AAr@ 004866e0     libucrt:lcidtoname_downlevel.obj
 0002:0001d6ec       ??_C@_1M@PAFNENNF@?$AAf?$AAr?$AA?9?$AAl?$AAu@ 004866ec     libucrt:lcidtoname_downlevel.obj
 0002:0001d6f8       ??_C@_1M@EOHDJGDD@?$AAf?$AAr?$AA?9?$AAm?$AAc@ 004866f8     libucrt:lcidtoname_downlevel.obj
 0002:0001d704       ??_C@_1M@FAPLLOPF@?$AAg?$AAl?$AA?9?$AAe?$AAs@ 00486704     libucrt:lcidtoname_downlevel.obj
 0002:0001d710       ??_C@_1M@FOPBFLOO@?$AAg?$AAu?$AA?9?$AAi?$AAn@ 00486710     libucrt:lcidtoname_downlevel.obj
 0002:0001d71c       ??_C@_1M@KBMCINPM@?$AAh?$AAe?$AA?9?$AAi?$AAl@ 0048671c     libucrt:lcidtoname_downlevel.obj
 0002:0001d728       ??_C@_1M@BBPHKFPJ@?$AAh?$AAi?$AA?9?$AAi?$AAn@ 00486728     libucrt:lcidtoname_downlevel.obj
 0002:0001d734       ??_C@_1M@PMBNDPHD@?$AAh?$AAr?$AA?9?$AAb?$AAa@ 00486734     libucrt:lcidtoname_downlevel.obj
 0002:0001d740       ??_C@_1M@BPCKOEGE@?$AAh?$AAr?$AA?9?$AAh?$AAr@ 00486740     libucrt:lcidtoname_downlevel.obj
 0002:0001d74c       ??_C@_1M@GACBMHKE@?$AAh?$AAu?$AA?9?$AAh?$AAu@ 0048674c     libucrt:lcidtoname_downlevel.obj
 0002:0001d758       ??_C@_1M@MILPAJJC@?$AAh?$AAy?$AA?9?$AAa?$AAm@ 00486758     libucrt:lcidtoname_downlevel.obj
 0002:0001d764       ??_C@_1M@BABBICEC@?$AAi?$AAd?$AA?9?$AAi?$AAd@ 00486764     libucrt:lcidtoname_downlevel.obj
 0002:0001d770       ??_C@_1M@BIKNHHPF@?$AAi?$AAs?$AA?9?$AAi?$AAs@ 00486770     libucrt:lcidtoname_downlevel.obj
 0002:0001d77c       ??_C@_1M@NMPCJPHE@?$AAi?$AAt?$AA?9?$AAc?$AAh@ 0048677c     libucrt:lcidtoname_downlevel.obj
 0002:0001d788       ??_C@_1M@GHKGFEDF@?$AAi?$AAt?$AA?9?$AAi?$AAt@ 00486788     libucrt:lcidtoname_downlevel.obj
 0002:0001d794       ??_C@_1M@NIEJCJJA@?$AAj?$AAa?$AA?9?$AAj?$AAp@ 00486794     libucrt:lcidtoname_downlevel.obj
 0002:0001d7a0       ??_C@_1M@JILFNBIM@?$AAk?$AAa?$AA?9?$AAg?$AAe@ 004867a0     libucrt:lcidtoname_downlevel.obj
 0002:0001d7ac       ??_C@_1M@PACPMGPH@?$AAk?$AAk?$AA?9?$AAk?$AAz@ 004867ac     libucrt:lcidtoname_downlevel.obj
 0002:0001d7b8       ??_C@_1M@IELFGMHA@?$AAk?$AAn?$AA?9?$AAi?$AAn@ 004867b8     libucrt:lcidtoname_downlevel.obj
 0002:0001d7c4       ??_C@_1O@IBBJHCH@?$AAk?$AAo?$AAk?$AA?9?$AAi?$AAn@ 004867c4     libucrt:lcidtoname_downlevel.obj
 0002:0001d7d4       ??_C@_1M@DMHAEOGC@?$AAk?$AAo?$AA?9?$AAk?$AAr@ 004867d4     libucrt:lcidtoname_downlevel.obj
 0002:0001d7e0       ??_C@_1M@HBAHBIGA@?$AAk?$AAy?$AA?9?$AAk?$AAg@ 004867e0     libucrt:lcidtoname_downlevel.obj
 0002:0001d7ec       ??_C@_1M@KPMILCJG@?$AAl?$AAt?$AA?9?$AAl?$AAt@ 004867ec     libucrt:lcidtoname_downlevel.obj
 0002:0001d7f8       ??_C@_1M@BDEKKCA@?$AAl?$AAv?$AA?9?$AAl?$AAv@ 004867f8     libucrt:lcidtoname_downlevel.obj
 0002:0001d804       ??_C@_1M@ELCKCCJJ@?$AAm?$AAi?$AA?9?$AAn?$AAz@ 00486804     libucrt:lcidtoname_downlevel.obj
 0002:0001d810       ??_C@_1M@CBOOLAPA@?$AAm?$AAk?$AA?9?$AAm?$AAk@ 00486810     libucrt:lcidtoname_downlevel.obj
 0002:0001d81c       ??_C@_1M@GPHNBJKN@?$AAm?$AAl?$AA?9?$AAi?$AAn@ 0048681c     libucrt:lcidtoname_downlevel.obj
 0002:0001d828       ??_C@_1M@PABJILIG@?$AAm?$AAn?$AA?9?$AAm?$AAn@ 00486828     libucrt:lcidtoname_downlevel.obj
 0002:0001d834       ??_C@_1M@FGBKKIPG@?$AAm?$AAr?$AA?9?$AAi?$AAn@ 00486834     libucrt:lcidtoname_downlevel.obj
 0002:0001d840       ??_C@_1M@NDBPDDAL@?$AAm?$AAs?$AA?9?$AAb?$AAn@ 00486840     libucrt:lcidtoname_downlevel.obj
 0002:0001d84c       ??_C@_1M@OPIHOOPI@?$AAm?$AAs?$AA?9?$AAm?$AAy@ 0048684c     libucrt:lcidtoname_downlevel.obj
 0002:0001d858       ??_C@_1M@PPDBCNFM@?$AAm?$AAt?$AA?9?$AAm?$AAt@ 00486858     libucrt:lcidtoname_downlevel.obj
 0002:0001d864       ??_C@_1M@KDJDKMDD@?$AAn?$AAb?$AA?9?$AAn?$AAo@ 00486864     libucrt:lcidtoname_downlevel.obj
 0002:0001d870       ??_C@_1M@KFCFLMJP@?$AAn?$AAl?$AA?9?$AAb?$AAe@ 00486870     libucrt:lcidtoname_downlevel.obj
 0002:0001d87c       ??_C@_1M@KPOPDDGO@?$AAn?$AAl?$AA?9?$AAn?$AAl@ 0048687c     libucrt:lcidtoname_downlevel.obj
 0002:0001d888       ??_C@_1M@LJKPEMLN@?$AAn?$AAn?$AA?9?$AAn?$AAo@ 00486888     libucrt:lcidtoname_downlevel.obj
 0002:0001d894       ??_C@_1M@BDGHHBFL@?$AAn?$AAs?$AA?9?$AAz?$AAa@ 00486894     libucrt:lcidtoname_downlevel.obj
 0002:0001d8a0       ??_C@_1M@IDEHOAP@?$AAp?$AAa?$AA?9?$AAi?$AAn@ 004868a0     libucrt:lcidtoname_downlevel.obj
 0002:0001d8ac       ??_C@_1M@HDBKGOGH@?$AAp?$AAl?$AA?9?$AAp?$AAl@ 004868ac     libucrt:lcidtoname_downlevel.obj
 0002:0001d8b8       ??_C@_1M@LJLLCMEH@?$AAp?$AAt?$AA?9?$AAb?$AAr@ 004868b8     libucrt:lcidtoname_downlevel.obj
 0002:0001d8c4       ??_C@_1M@NCMONAAL@?$AAp?$AAt?$AA?9?$AAp?$AAt@ 004868c4     libucrt:lcidtoname_downlevel.obj
 0002:0001d8d0       ??_C@_1O@EAKMAJDN@?$AAq?$AAu?$AAz?$AA?9?$AAb?$AAo@ 004868d0     libucrt:lcidtoname_downlevel.obj
 0002:0001d8e0       ??_C@_1O@BHHPIGDN@?$AAq?$AAu?$AAz?$AA?9?$AAe?$AAc@ 004868e0     libucrt:lcidtoname_downlevel.obj
 0002:0001d8f0       ??_C@_1O@GBAPEKMJ@?$AAq?$AAu?$AAz?$AA?9?$AAp?$AAe@ 004868f0     libucrt:lcidtoname_downlevel.obj
 0002:0001d900       ??_C@_1M@CLGLEFBO@?$AAr?$AAo?$AA?9?$AAr?$AAo@ 00486900     libucrt:lcidtoname_downlevel.obj
 0002:0001d90c       ??_C@_1M@CEEDODME@?$AAr?$AAu?$AA?9?$AAr?$AAu@ 0048690c     libucrt:lcidtoname_downlevel.obj
 0002:0001d918       ??_C@_1M@HPKKKMPP@?$AAs?$AAa?$AA?9?$AAi?$AAn@ 00486918     libucrt:lcidtoname_downlevel.obj
 0002:0001d924       ??_C@_1M@BKMAIGOJ@?$AAs?$AAe?$AA?9?$AAf?$AAi@ 00486924     libucrt:lcidtoname_downlevel.obj
 0002:0001d930       ??_C@_1M@NDPIFLFI@?$AAs?$AAe?$AA?9?$AAn?$AAo@ 00486930     libucrt:lcidtoname_downlevel.obj
 0002:0001d93c       ??_C@_1M@DANKKHJ@?$AAs?$AAe?$AA?9?$AAs?$AAe@ 0048693c     libucrt:lcidtoname_downlevel.obj
 0002:0001d948       ??_C@_1M@PNBLONPJ@?$AAs?$AAk?$AA?9?$AAs?$AAk@ 00486948     libucrt:lcidtoname_downlevel.obj
 0002:0001d954       ??_C@_1M@LFMODOAL@?$AAs?$AAl?$AA?9?$AAs?$AAi@ 00486954     libucrt:lcidtoname_downlevel.obj
 0002:0001d960       ??_C@_1O@DFKOMPG@?$AAs?$AAm?$AAa?$AA?9?$AAn?$AAo@ 00486960     libucrt:lcidtoname_downlevel.obj
 0002:0001d970       ??_C@_1O@NDKPBNNH@?$AAs?$AAm?$AAa?$AA?9?$AAs?$AAe@ 00486970     libucrt:lcidtoname_downlevel.obj
 0002:0001d980       ??_C@_1O@PLLKBHAB@?$AAs?$AAm?$AAj?$AA?9?$AAn?$AAo@ 00486980     libucrt:lcidtoname_downlevel.obj
 0002:0001d990       ??_C@_1O@CLEPOGCA@?$AAs?$AAm?$AAj?$AA?9?$AAs?$AAe@ 00486990     libucrt:lcidtoname_downlevel.obj
 0002:0001d9a0       ??_C@_1O@DLGJGKMK@?$AAs?$AAm?$AAn?$AA?9?$AAf?$AAi@ 004869a0     libucrt:lcidtoname_downlevel.obj
 0002:0001d9b0       ??_C@_1O@OJDJGAJC@?$AAs?$AAm?$AAs?$AA?9?$AAf?$AAi@ 004869b0     libucrt:lcidtoname_downlevel.obj
 0002:0001d9c0       ??_C@_1M@BOFOGHPB@?$AAs?$AAq?$AA?9?$AAa?$AAl@ 004869c0     libucrt:lcidtoname_downlevel.obj
 0002:0001d9cc       ??_C@_1BG@LJBBIPGB@?$AAs?$AAr?$AA?9?$AAb?$AAa?$AA?9?$AAc?$AAy?$AAr?$AAl@ 004869cc     libucrt:lcidtoname_downlevel.obj
 0002:0001d9e4       ??_C@_1BG@JLBENFOE@?$AAs?$AAr?$AA?9?$AAb?$AAa?$AA?9?$AAl?$AAa?$AAt?$AAn@ 004869e4     libucrt:lcidtoname_downlevel.obj
 0002:0001d9fc       ??_C@_1BG@KODPNHE@?$AAs?$AAr?$AA?9?$AAs?$AAp?$AA?9?$AAc?$AAy?$AAr?$AAl@ 004869fc     libucrt:lcidtoname_downlevel.obj
 0002:0001da14       ??_C@_1BG@CIOGKHPB@?$AAs?$AAr?$AA?9?$AAs?$AAp?$AA?9?$AAl?$AAa?$AAt?$AAn@ 00486a14     libucrt:lcidtoname_downlevel.obj
 0002:0001da2c       ??_C@_1M@NGFJLMAC@?$AAs?$AAv?$AA?9?$AAf?$AAi@ 00486a2c     libucrt:lcidtoname_downlevel.obj
 0002:0001da38       ??_C@_1M@MPJEJAJC@?$AAs?$AAv?$AA?9?$AAs?$AAe@ 00486a38     libucrt:lcidtoname_downlevel.obj
 0002:0001da44       ??_C@_1M@MPNDHLFK@?$AAs?$AAw?$AA?9?$AAk?$AAe@ 00486a44     libucrt:lcidtoname_downlevel.obj
 0002:0001da50       ??_C@_1O@KOHBJJI@?$AAs?$AAy?$AAr?$AA?9?$AAs?$AAy@ 00486a50     libucrt:lcidtoname_downlevel.obj
 0002:0001da60       ??_C@_1M@LDCEFHA@?$AAt?$AAa?$AA?9?$AAi?$AAn@ 00486a60     libucrt:lcidtoname_downlevel.obj
 0002:0001da6c       ??_C@_1M@CNJOFAK@?$AAt?$AAe?$AA?9?$AAi?$AAn@ 00486a6c     libucrt:lcidtoname_downlevel.obj
 0002:0001da78       ??_C@_1M@GNAECACD@?$AAt?$AAh?$AA?9?$AAt?$AAh@ 00486a78     libucrt:lcidtoname_downlevel.obj
 0002:0001da84       ??_C@_1M@CHBIHOJO@?$AAt?$AAn?$AA?9?$AAz?$AAa@ 00486a84     libucrt:lcidtoname_downlevel.obj
 0002:0001da90       ??_C@_1M@GCCMIGPJ@?$AAt?$AAr?$AA?9?$AAt?$AAr@ 00486a90     libucrt:lcidtoname_downlevel.obj
 0002:0001da9c       ??_C@_1M@CELMCNBK@?$AAt?$AAt?$AA?9?$AAr?$AAu@ 00486a9c     libucrt:lcidtoname_downlevel.obj
 0002:0001daa8       ??_C@_1M@KLMCELGA@?$AAu?$AAk?$AA?9?$AAu?$AAa@ 00486aa8     libucrt:lcidtoname_downlevel.obj
 0002:0001dab4       ??_C@_1M@EPAJJAJF@?$AAu?$AAr?$AA?9?$AAp?$AAk@ 00486ab4     libucrt:lcidtoname_downlevel.obj
 0002:0001dac0       ??_C@_1BG@GEGPMCDJ@?$AAu?$AAz?$AA?9?$AAu?$AAz?$AA?9?$AAc?$AAy?$AAr?$AAl@ 00486ac0     libucrt:lcidtoname_downlevel.obj
 0002:0001dad8       ??_C@_1BG@EGGKJILM@?$AAu?$AAz?$AA?9?$AAu?$AAz?$AA?9?$AAl?$AAa?$AAt?$AAn@ 00486ad8     libucrt:lcidtoname_downlevel.obj
 0002:0001daf0       ??_C@_1M@GFOCLFF@?$AAv?$AAi?$AA?9?$AAv?$AAn@ 00486af0     libucrt:lcidtoname_downlevel.obj
 0002:0001dafc       ??_C@_1M@CPAMEDFI@?$AAx?$AAh?$AA?9?$AAz?$AAa@ 00486afc     libucrt:lcidtoname_downlevel.obj
 0002:0001db08       ??_C@_1O@EBKIFIGN@?$AAz?$AAh?$AA?9?$AAc?$AAh?$AAs@ 00486b08     libucrt:lcidtoname_downlevel.obj
 0002:0001db18       ??_C@_1O@NMHPGANE@?$AAz?$AAh?$AA?9?$AAc?$AAh?$AAt@ 00486b18     libucrt:lcidtoname_downlevel.obj
 0002:0001db28       ??_C@_1M@LPINJOMC@?$AAz?$AAh?$AA?9?$AAc?$AAn@ 00486b28     libucrt:lcidtoname_downlevel.obj
 0002:0001db34       ??_C@_1M@OCJEJODD@?$AAz?$AAh?$AA?9?$AAh?$AAk@ 00486b34     libucrt:lcidtoname_downlevel.obj
 0002:0001db40       ??_C@_1M@DNDLJINH@?$AAz?$AAh?$AA?9?$AAm?$AAo@ 00486b40     libucrt:lcidtoname_downlevel.obj
 0002:0001db4c       ??_C@_1M@MBFDNDND@?$AAz?$AAh?$AA?9?$AAs?$AAg@ 00486b4c     libucrt:lcidtoname_downlevel.obj
 0002:0001db58       ??_C@_1M@IMEPLEPE@?$AAz?$AAh?$AA?9?$AAt?$AAw@ 00486b58     libucrt:lcidtoname_downlevel.obj
 0002:0001db64       ??_C@_1M@BBGHNHJP@?$AAz?$AAu?$AA?9?$AAz?$AAa@ 00486b64     libucrt:lcidtoname_downlevel.obj
 0002:0001db8c       ??_C@_1BA@BALFACEM@?$AAC?$AAO?$AAN?$AAO?$AAU?$AAT?$AA$@ 00486b8c     libucrt:initcon.obj
 0002:0001dd00       __infinity                 00486d00     libucrt:87tran.obj
 0002:0001dd0a       __minfinity                00486d0a     libucrt:87tran.obj
 0002:0001dd14       __logemax                  00486d14     libucrt:87tran.obj
 0002:0001dd3a       __OP_EXPjmptab             00486d3a     libucrt:87tran.obj
 0002:0001dd60       __indefinite               00486d60     libucrt:87disp.obj
 0002:0001dd6a       __piby2                    00486d6a     libucrt:87disp.obj
 0002:0001dd74       __piby4                    00486d74     libucrt:87disp.obj
 0002:0001dda8       __DEFAULT_CW_in_mem        00486da8     libucrt:common.obj
 0002:0001ddaa       __pi_by_2_to_61            00486daa     libucrt:common.obj
 0002:0001dde4       ??_C@_03MGHMBJCF@log@      00486de4     libucrt:libm_error.obj
 0002:0001dde8       ??_C@_05HGHHAHAP@log10@    00486de8     libucrt:libm_error.obj
 0002:0001ddf0       ??_C@_03KHJOGHMM@exp@      00486df0     libucrt:libm_error.obj
 0002:0001ddf4       ??_C@_03JGHBODFD@pow@      00486df4     libucrt:libm_error.obj
 0002:0001ddf8       ??_C@_04FIHNOPOL@asin@     00486df8     libucrt:libm_error.obj
 0002:0001de00       ??_C@_04PDIFKINK@acos@     00486e00     libucrt:libm_error.obj
 0002:0001de08       ??_C@_04EIAKFFMI@sqrt@     00486e08     libucrt:libm_error.obj
 0002:0001de10       __real@3ff0000000000000    00486e10     libucrt:libm_error.obj
 0002:0001de20       ___acrt_log10_table_t      00486e20     libucrt:log10_tables.obj
 0002:0001e230       ___acrt_log10_table_cb     00487230     libucrt:log10_tables.obj
 0002:0001e640       __real@3fe0000000000000    00487640     libucrt:powhlp.obj
 0002:0001e730       ??_C@_04COOMCNPB@sinh@     00487730     libucrt:fpexcept.obj
 0002:0001e738       ??_C@_04HPJJNFIM@cosh@     00487738     libucrt:fpexcept.obj
 0002:0001e740       ??_C@_04FJHINJAO@tanh@     00487740     libucrt:fpexcept.obj
 0002:0001e748       ??_C@_04MLLJIGOK@atan@     00487748     libucrt:fpexcept.obj
 0002:0001e750       ??_C@_05KNGEOGJB@atan2@    00487750     libucrt:fpexcept.obj
 0002:0001e758       ??_C@_03BLEJJJBH@sin@      00487758     libucrt:fpexcept.obj
 0002:0001e75c       ??_C@_03LALBNOCG@cos@      0048775c     libucrt:fpexcept.obj
 0002:0001e760       ??_C@_03IIINPABG@tan@      00487760     libucrt:fpexcept.obj
 0002:0001e764       ??_C@_04GFPJNGEK@ceil@     00487764     libucrt:fpexcept.obj
 0002:0001e76c       ??_C@_05PBJFFIGL@floor@    0048776c     libucrt:fpexcept.obj
 0002:0001e774       ??_C@_04ODHECPBC@fabs@     00487774     libucrt:fpexcept.obj
 0002:0001e77c       ??_C@_04EHEDPDJG@modf@     0048777c     libucrt:fpexcept.obj
 0002:0001e784       ??_C@_05CEJMAHNP@ldexp@    00487784     libucrt:fpexcept.obj
 0002:0001e78c       ??_C@_05KBKMEMPO@_cabs@    0048778c     libucrt:fpexcept.obj
 0002:0001e794       ??_C@_06MEIMCGCF@_hypot@   00487794     libucrt:fpexcept.obj
 0002:0001e79c       ??_C@_04KEPJIHGP@fmod@     0048779c     libucrt:fpexcept.obj
 0002:0001e7a4       ??_C@_05GKKHEGJL@frexp@    004877a4     libucrt:fpexcept.obj
 0002:0001e7ac       ??_C@_03MJLDFKDL@_y0@      004877ac     libucrt:fpexcept.obj
 0002:0001e7b0       ??_C@_03NAKIGLHK@_y1@      004877b0     libucrt:fpexcept.obj
 0002:0001e7b4       ??_C@_03ONILCKOB@_yn@      004877b4     libucrt:fpexcept.obj
 0002:0001e7b8       ??_C@_05JGDBENOH@_logb@    004877b8     libucrt:fpexcept.obj
 0002:0001e7c0       ??_C@_0L@KDOEJCKC@_nextafter@ 004877c0     libucrt:fpexcept.obj
 0002:0001e7d0       __d_inf                    004877d0     libucrt:util.obj
 0002:0001e7d8       __d_max                    004877d8     libucrt:util.obj
 0002:0001e7e0       __d_mzero                  004877e0     libucrt:util.obj
 0002:0001e7ec       ??_7type_info@@6B@         004877ec     LIBCMT:std_type_info_static.obj
 0002:0001e810       __load_config_used         00487810     LIBCMT:loadcfg.obj
 0002:0001e8b4       ??_R4exception@std@@6B@    004878b4     libvcruntime:frame.obj
 0002:0001e8c8       ??_R3exception@std@@8      004878c8     libvcruntime:frame.obj
 0002:0001e8d8       ??_R2exception@std@@8      004878d8     libvcruntime:frame.obj
 0002:0001e8e0       ??_R1A@?0A@EA@exception@std@@8 004878e0     libvcruntime:frame.obj
 0002:0001e8fc       ??_R4bad_exception@std@@6B@ 004878fc     libvcruntime:frame.obj
 0002:0001e910       ??_R3bad_exception@std@@8  00487910     libvcruntime:frame.obj
 0002:0001e920       ??_R2bad_exception@std@@8  00487920     libvcruntime:frame.obj
 0002:0001e92c       ??_R1A@?0A@EA@bad_exception@std@@8 0048792c     libvcruntime:frame.obj
 0002:0001e948       ??_R4type_info@@6B@        00487948     LIBCMT:std_type_info_static.obj
 0002:0001e95c       ??_R3type_info@@8          0048795c     LIBCMT:std_type_info_static.obj
 0002:0001e96c       ??_R2type_info@@8          0048796c     LIBCMT:std_type_info_static.obj
 0002:0001e974       ??_R1A@?0A@EA@type_info@@8 00487974     LIBCMT:std_type_info_static.obj
 0002:0001e990       ___safe_se_handler_table   00487990     <linker-defined>
 0002:0001ec74       ___rtc_iaa                 00487c74     LIBCMT:initsect.obj
 0002:0001ec78       ___rtc_izz                 00487c78     LIBCMT:initsect.obj
 0002:0001ec7c       ___rtc_taa                 00487c7c     LIBCMT:initsect.obj
 0002:0001ec80       ___rtc_tzz                 00487c80     LIBCMT:initsect.obj
 0002:0001edac       __TI2?AVbad_exception@std@@ 00487dac     libvcruntime:frame.obj
 0002:0001edbc       __CTA2?AVbad_exception@std@@ 00487dbc     libvcruntime:frame.obj
 0002:0001edc8       __CT??_R0?AVbad_exception@std@@@8??0bad_exception@std@@QAE@ABV01@@Z12 00487dc8     libvcruntime:frame.obj
 0002:0001ede4       __CT??_R0?AVexception@std@@@8??0exception@std@@QAE@ABV01@@Z12 00487de4     libvcruntime:frame.obj
 0002:0001f54c       __IMPORT_DESCRIPTOR_ADVAPI32 0048854c     advapi32:ADVAPI32.dll
 0002:0001f560       __IMPORT_DESCRIPTOR_USER32 00488560     user32:USER32.dll
 0002:0001f574       __IMPORT_DESCRIPTOR_KERNEL32 00488574     kernel32:KERNEL32.dll
 0002:0001f588       __NULL_IMPORT_DESCRIPTOR   00488588     advapi32:ADVAPI32.dll
 0003:00000630       _GSS_C_NT_USER_NAME        0048a630     pgssapi.obj
 0003:00000634       _GSS_C_NT_MACHINE_UID_NAME 0048a634     pgssapi.obj
 0003:00000638       _GSS_C_NT_STRING_UID_NAME  0048a638     pgssapi.obj
 0003:0000063c       _GSS_C_NT_HOSTBASED_SERVICE_X 0048a63c     pgssapi.obj
 0003:00000640       _GSS_C_NT_HOSTBASED_SERVICE 0048a640     pgssapi.obj
 0003:00000644       _GSS_C_NT_ANONYMOUS        0048a644     pgssapi.obj
 0003:00000648       _GSS_C_NT_EXPORT_NAME      0048a648     pgssapi.obj
 0003:000008a8       _ONE                       0048a8a8     sshcrcda.obj
 0003:000008b8       _default_logpolicy         0048a8b8     wincons.obj
 0003:000008bc       _console_antispoof_prompt  0048a8bc     wincons.obj
 0003:000008c8       ___security_cookie_complement 0048a8c8     LIBCMT:gs_cookie.obj
 0003:000008cc       ___security_cookie         0048a8cc     LIBCMT:gs_cookie.obj
 0003:000008d0       __fltused                  0048a8d0     LIBCMT:fltused.obj
 0003:000008e0       ___scrt_native_dllmain_reason 0048a8e0     LIBCMT:utility.obj
 0003:000008e4       ___scrt_default_matherr    0048a8e4     LIBCMT:matherr.obj
 0003:000008f0       ___isa_enabled             0048a8f0     LIBCMT:cpu_disp.obj
 0003:00000910       __NLG_Destination          0048a910     libvcruntime:exsup.obj
 0003:00000920       ___abort_behavior          0048a920     libucrt:abort.obj
 0003:00000928       __iob                      0048a928     libucrt:_file.obj
 0003:000009e0       __lookuptrailbytes         0048a9e0     libucrt:read.obj
 0003:00000ae0       __pctype                   0048aae0     libucrt:ctype.obj
 0003:00000ae4       __pwctype                  0048aae4     libucrt:ctype.obj
 0003:00000af0       ___acrt_initial_locale_data 0048aaf0     libucrt:nlsdata.obj
 0003:00000ba8       ___acrt_initial_locale_pointers 0048aba8     libucrt:nlsdata.obj
 0003:00000bb0       ___acrt_wide_c_locale_string 0048abb0     libucrt:nlsdata.obj
 0003:00000bb4       ___mb_cur_max              0048abb4     libucrt:nlsdata.obj
 0003:00000bb8       ___badioinfo               0048abb8     libucrt:ioinit.obj
 0003:00000bf0       ___globallocalestatus      0048abf0     libucrt:glstatus.obj
 0003:00000bf8       ___acrt_initial_multibyte_data 0048abf8     libucrt:mbctype.obj
 0003:00001118       ___acrt_lconv_c            0048b118     libucrt:localeconv.obj
 0003:00001168       ___acrt_lconv              0048b168     libucrt:localeconv.obj
 0003:0000116c       ___acrt_lconv_static_decimal 0048b16c     libucrt:localeconv.obj
 0003:00001170       ___acrt_lconv_static_W_decimal 0048b170     libucrt:localeconv.obj
 0003:00001230       ??_R0?AVbad_exception@std@@@8 0048b230     libvcruntime:frame.obj
 0003:00001250       ??_R0?AVexception@std@@@8  0048b250     libvcruntime:frame.obj
 0003:0000126c       ??_R0?AVtype_info@@@8      0048b26c     LIBCMT:std_type_info_static.obj
 0003:00001288       _cbcurr                    0048b288     callback.obj
 0003:0000128c       _cbhead                    0048b28c     callback.obj
 0003:00001290       _cbtail                    0048b290     callback.obj
 0003:00001294       _notify_frontend           0048b294     callback.obj
 0003:00001298       _notify_ctx                0048b298     callback.obj
 0003:0000129c       _cmdline_tooltype          0048b29c     cmdline.obj
 0003:000012c0       _sent_eof                  0048b2c0     psftp.obj
 0003:00001308       _ZERO                      0048b308     sshcrcda.obj
 0003:000013c8       _ssh2_wrong_passphrase     0048b3c8     sshpubk.obj
 0003:000013d0       _random_active             0048b3d0     sshrand.obj
 0003:000013f8       _console_batch_mode        0048b3f8     wincons.obj
 0003:000013fc       _gsslogmsg                 0048b3fc     wingss.obj
 0003:00001ea4       ___scrt_current_native_startup_state 0048bea4     LIBCMT:utility.obj
 0003:00001ea8       ___scrt_native_startup_lock 0048bea8     LIBCMT:utility.obj
 0003:00001ec8       ?__type_info_root_node@@3U__type_info_node@@A 0048bec8     LIBCMT:tncleanup.obj
 0003:00001ed0       ___scrt_debugger_hook_flag 0048bed0     LIBCMT:utility_desktop.obj
 0003:00001ed4       ___isa_available           0048bed4     LIBCMT:cpu_disp.obj
 0003:00001ed8       ___favor                   0048bed8     LIBCMT:cpu_disp.obj
 0003:00001f20       ?pArgList@UnDecorator@@0PAVReplicator@@A 0048bf20     libvcruntime:undname.obj
 0003:00001f24       ?pZNameList@UnDecorator@@0PAVReplicator@@A 0048bf24     libvcruntime:undname.obj
 0003:00001f28       ?pTemplateArgList@UnDecorator@@0PAVReplicator@@A 0048bf28     libvcruntime:undname.obj
 0003:00001f2c       ?gName@UnDecorator@@0PBDB  0048bf2c     libvcruntime:undname.obj
 0003:00001f30       ?name@UnDecorator@@0PBDB   0048bf30     libvcruntime:undname.obj
 0003:00001f34       ?disableFlags@UnDecorator@@0KA 0048bf34     libvcruntime:undname.obj
 0003:00001f38       ?fExplicitTemplateParams@UnDecorator@@0_NA 0048bf38     libvcruntime:undname.obj
 0003:00001f39       ?fGetTemplateArgumentList@UnDecorator@@0_NA 0048bf39     libvcruntime:undname.obj
 0003:00001f3c       ?m_pGetParameter@UnDecorator@@0P6APADJ@ZA 0048bf3c     libvcruntime:undname.obj
 0003:00001f40       ?m_CHPENameOffset@UnDecorator@@0KA 0048bf40     libvcruntime:undname.obj
 0003:00001f44       ?m_recursionLevel@UnDecorator@@0KA 0048bf44     libvcruntime:undname.obj
 0003:00001f7c       ___pPurecall               0048bf7c     libvcruntime:purevirt_data.obj
 0003:00001f80       ?__WinRTOutOfMemoryExceptionCallback@@3P6GPAXXZA 0048bf80     libvcruntime:ehhelpers.obj
 0003:00001f84       __nstream                  0048bf84     libucrt:_file.obj
 0003:00001f88       ___piob                    0048bf88     libucrt:_file.obj
 0003:00001f8c       __cflush                   0048bf8c     libucrt:_file.obj
 0003:00001f98       ?c_exit_complete@?1???R<lambda_6e4b09c48022b2350581041d5f6b0c4c>@@QBE@XZ@4_NA 0048bf98     libucrt:exit.obj
 0003:000020c0       __environ_table            0048c0c0     libucrt:environment_initialization.obj
 0003:000020c4       __wenviron_table           0048c0c4     libucrt:environment_initialization.obj
 0003:000020c8       ___dcrt_initial_wide_environment 0048c0c8     libucrt:environment_initialization.obj
 0003:000020cc       ___dcrt_initial_narrow_environment 0048c0cc     libucrt:environment_initialization.obj
 0003:000020d0       __pgmptr                   0048c0d0     libucrt:argv_data.obj
 0003:000020d4       ___argc                    0048c0d4     libucrt:argv_data.obj
 0003:000020d8       ___argv                    0048c0d8     libucrt:argv_data.obj
 0003:000020dc       ___wargv                   0048c0dc     libucrt:argv_data.obj
 0003:000020e0       __acmdln                   0048c0e0     libucrt:argv_data.obj
 0003:000020e4       __wcmdln                   0048c0e4     libucrt:argv_data.obj
 0003:000020e8       ___acrt_locale_changed_data 0048c0e8     libucrt:wsetlocale.obj
 0003:000020f0       __commode                  0048c0f0     libucrt:ncommode.obj
 0003:000020f4       ___acrt_atexit_table       0048c0f4     libucrt:onexit.obj
 0003:00002100       ___acrt_at_quick_exit_table 0048c100     libucrt:onexit.obj
 0003:00002124       ___acrt_current_locale_data 0048c124     libucrt:nlsdata.obj
 0003:0000227c       ___acrt_stdout_buffer      0048c27c     libucrt:_sftbuf.obj
 0003:00002280       ___acrt_stderr_buffer      0048c280     libucrt:_sftbuf.obj
 0003:00002290       ___pioinfo                 0048c290     libucrt:ioinit.obj
 0003:00002490       __nhandle                  0048c490     libucrt:ioinit.obj
 0003:0000258c       __mbctype                  0048c58c     libucrt:mbctype.obj
 0003:00002590       __mbcasemap                0048c590     libucrt:mbctype.obj
 0003:00002594       ___acrt_current_multibyte_data 0048c594     libucrt:mbctype.obj
 0003:000025a0       __fmode                    0048c5a0     libucrt:txtmode.obj
 0003:000025a4       ___acrt_lconv_static_null  0048c5a4     libucrt:localeconv.obj
 0003:000025a8       ___acrt_lconv_static_W_null 0048c5a8     libucrt:localeconv.obj
 0003:000025ac       ___acrt_heap               0048c5ac     libucrt:heap_handle.obj
 0003:000025b4       ?_timezone@@3V?$dual_state_global@J@__crt_state_management@@A 0048c5b4     libucrt:timeset.obj
 0003:000025b8       ?_daylight@@3V?$dual_state_global@H@__crt_state_management@@A 0048c5b8     libucrt:timeset.obj
 0003:000025bc       ?_dstbias@@3V?$dual_state_global@J@__crt_state_management@@A 0048c5bc     libucrt:timeset.obj
 0003:00002680       __umaskval                 0048c680     libucrt:umask.obj
 0003:00002684       ___fastflag                0048c684     libucrt:fp_flags.obj
 0003:0000268c       _p_SetEntriesInAclA        0048c68c     <common>
 0003:00002690       _p_SetSecurityInfo         0048c690     <common>
 0003:00002694       _p_GetSecurityInfo         0048c694     <common>
 0003:00002698       _p_SetSecurityDescriptorOwner 0048c698     <common>
 0003:0000269c       _p_InitializeSecurityDescriptor 0048c69c     <common>
 0003:000026a0       _p_GetTokenInformation     0048c6a0     <common>
 0003:000026a4       _p_OpenProcessToken        0048c6a4     <common>
 0003:000026a8       _p_select                  0048c6a8     <common>
 0003:000026ac       _p_CryptProtectMemory      0048c6ac     <common>
 0003:000026b0       _restricted_acl            0048c6b0     <common>
 0003:000026b4       _p_WSAEnumNetworkEvents    0048c6b4     <common>
 0003:000026b8       _p_WSAGetLastError         0048c6b8     <common>
 0003:000026bc       _p_WSAEventSelect          0048c6bc     <common>
 0003:000026c0       _p_WSAAsyncSelect          0048c6c0     <common>
 0003:000026c4       _conf                      0048c6c4     <common>
 0003:000026c8       _homedir                   0048c6c8     <common>
 0003:000026cc       _pwd                       0048c6cc     <common>
 0003:000026d0       _cmdline_session_name      0048c6d0     <common>
 0003:000026d4       _loaded_session            0048c6d4     <common>
 0003:000026d8       _default_port              0048c6d8     <common>
 0003:000026dc       _default_protocol          0048c6dc     <common>
 0003:000026e0       _flags                     0048c6e0     <common>
 0003:000026e8       ?_OptionsStorage@?1??__local_stdio_scanf_options@@9@9 0048c6e8     <common>
 0003:000026f0       ?_OptionsStorage@?1??__local_stdio_printf_options@@9@9 0048c6f0     <common>
 0003:000026f8       ___scrt_ucrt_dll_is_in_use 0048c6f8     <common>
 0003:000026fc       ___dyn_tls_dtor_callback   0048c6fc     <common>
 0003:00002700       ___dyn_tls_init_callback   0048c700     <common>
 0003:00002704       __pmatherr                 0048c704     <common>
 0003:00002708       ___use_sse2_mathfcns       0048c708     <common>

 entry point at        0001:00041baf

 Static symbols

 0001:00000000       _agentf_free               00401000 f   agentf.obj
 0001:00000049       _agentf_send               00401049 f   agentf.obj
 0001:0000009c       _agentf_send_eof           0040109c f   agentf.obj
 0001:000000d0       _agentf_log_close_msg      004010d0 f   agentf.obj
 0001:000000dc       _agentf_set_input_wanted   004010dc f   agentf.obj
 0001:00000117       _agentf_callback           00401117 f   agentf.obj
 0001:0000013d       _agentf_got_response       0040113d f   agentf.obj
 0001:000001aa       _agentf_try_forward        004011aa f   agentf.obj
 0001:00000697       _run_idempotent_callback   00401697 f   callback.obj
 0001:0000070c       _cmdline_check_unavailable 0040170c f   cmdline.obj
 0001:00001b46       _cmdline_save_param        00402b46 f   cmdline.obj
 0001:00001bac       _conf_clear                00402bac f   conf.obj
 0001:00001bd6       _conf_cmp                  00402bd6 f   conf.obj
 0001:00001bd6       _conf_cmp_constkey         00402bd6 f   conf.obj
 0001:0000220b       _conf_insert               0040320b f   conf.obj
 0001:000025ba       _free_entry                004035ba f   conf.obj
 0001:00002b5d       _ecc_edwards_cond_overwrite 00403b5d f   ecc.obj
 0001:00002bb0       _ecc_edwards_cond_swap     00403bb0 f   ecc.obj
 0001:00002ed3       _ecc_edwards_point_new_empty 00403ed3 f   ecc.obj
 0001:0000303f       _ecc_edwards_point_new_imported 0040403f f   ecc.obj
 0001:00003080       _ecc_montgomery_cond_overwrite 00404080 f   ecc.obj
 0001:000030b1       _ecc_montgomery_cond_swap  004040b1 f   ecc.obj
 0001:00003621       _ecc_montgomery_point_new_empty 00404621 f   ecc.obj
 0001:0000388f       _ecc_weierstrass_add_prologue 0040488f f   ecc.obj
 0001:000039c8       _ecc_weierstrass_cond_overwrite 004049c8 f   ecc.obj
 0001:00003a0a       _ecc_weierstrass_cond_swap 00404a0a f   ecc.obj
 0001:00003a94       _ecc_weierstrass_epilogue  00404a94 f   ecc.obj
 0001:00003d1c       _ecc_weierstrass_normalise 00404d1c f   ecc.obj
 0001:00003e36       _ecc_weierstrass_point_new_empty 00404e36 f   ecc.obj
 0001:00003f9d       _ecc_weierstrass_point_new_imported 00404f9d f   ecc.obj
 0001:00004114       _ecc_weierstrass_select_into 00405114 f   ecc.obj
 0001:0000415b       _ecc_weierstrass_tangent_slope 0040515b f   ecc.obj
 0001:0000422f       _projective_eq             0040522f f   ecc.obj
 0001:00004274       _sk_handle_plug            00405274 f   winhsock.obj
 0001:00004274       _sk_error_plug             00405274 f   errsock.obj
 0001:00004287       _sk_error_close            00405287 f   errsock.obj
 0001:000042a0       _sk_handle_socket_error    004052a0 f   winhsock.obj
 0001:000042a0       _sk_error_socket_error     004052a0 f   errsock.obj
 0001:000042a8       _zombiechan_log_close_msg  004052a8 f   sshcommon.obj
 0001:000042a8       _no_op_initialize          004052a8 f   libucrt:wsetlocale.obj
 0001:000042a8       _ssh1_stdin_backlog        004052a8 f   ssh1connection.obj
 0001:000042a8       _ssh_comp_none_init        004052a8 f   ssh2transport.obj
 0001:000042a8       _ec_signkey_invalid        004052a8 f   sshecc.obj
 0001:000042a8       _dss_invalid               004052a8 f   sshdss.obj
 0001:000042a8       _sk_namedpipeserver_peer_info 004052a8 f   winnps.obj
 0001:000042a8       _ssh_decomp_none_init      004052a8 f   ssh2transport.obj
 0001:000042a8       _sk_error_peer_info        004052a8 f   errsock.obj
 0001:000047aa       _logevent_internal         004057aa f   logging.obj
 0001:0000492f       _logfopen_callback         0040592f f   logging.obj
 0001:00004aef       _logprintf                 00405aef f   logging.obj
 0001:00004b1c       _logwrite                  00405b1c f   logging.obj
 0001:00004bbf       _xlatlognam                00405bbf f   logging.obj
 0001:00004d47       _mainchan_free             00405d47 f   mainchan.obj
 0001:00004d7d       _mainchan_open_confirmation 00405d7d f   mainchan.obj
 0001:00004f8a       _mainchan_open_failure     00405f8a f   mainchan.obj
 0001:00004fc7       _mainchan_send             00405fc7 f   mainchan.obj
 0001:00005007       _mainchan_send_eof         00406007 f   mainchan.obj
 0001:0000507c       _mainchan_set_input_wanted 0040607c f   mainchan.obj
 0001:000050b2       _mainchan_log_close_msg    004060b2 f   mainchan.obj
 0001:000050be       _mainchan_rcvd_exit_status 004060be f   mainchan.obj
 0001:0000510f       _mainchan_rcvd_exit_signal 0040610f f   mainchan.obj
 0001:00005183       _mainchan_rcvd_exit_signal_numeric 00406183 f   mainchan.obj
 0001:000051ee       _mainchan_request_response 004061ee f   mainchan.obj
 0001:0000553a       _mainchan_log_exit_signal_common 0040653a f   mainchan.obj
 0001:0000566a       _mainchan_ready            0040666a f   mainchan.obj
 0001:00005766       _mainchan_try_fallback_command 00406766 f   mainchan.obj
 0001:000057a3       _ssh_signal_lookup         004067a3 f   mainchan.obj
 0001:00005a5b       _BinarySource_data_avail   00406a5b f   marshal.obj
 0001:00005c92       _GET_64BIT_MSB_FIRST       00406c92 f   sshdes.obj
 0001:00005c92       _GET_64BIT_MSB_FIRST       00406c92 f   marshal.obj
 0001:00005c92       _GET_64BIT_MSB_FIRST       00406c92 f   sshsh512.obj
 0001:00005d2a       _bufchain_sink_write       00406d2a f   marshal.obj
 0001:00005d59       _stdio_sink_write          00406d59 f   marshal.obj
 0001:000060b6       _ssh_comp_none_block       004070b6 f   ssh2transport.obj
 0001:000060b6       _ssh_decomp_none_cleanup   004070b6 f   ssh2transport.obj
 0001:000060b6       _ssh_comp_none_cleanup     004070b6 f   ssh2transport.obj
 0001:000060b6       _share_sent                004070b6 f   sshshare.obj
 0001:000060b6       _ssh1mainchan_hint_channel_is_simple 004070b6 f   ssh1connection-client.obj
 0001:000060b6       _pfl_log                   004070b6 f   portfwd.obj
 0001:000060b6       _sk_net_flush              004070b6 f   winnet.obj
 0001:000060b6       _nullplug_closing          004070b6 f   nullplug.obj
 0001:000060b6       _ssh1mainchan_succfail_nowantreply 004070b6 f   ssh1connection-client.obj
 0001:000060b6       _nullplug_receive          004070b6 f   nullplug.obj
 0001:000060b6       _nullplug_sent             004070b6 f   nullplug.obj
 0001:000060b6       _ssh1_rportfwd_remove      004070b6 f   ssh1connection.obj
 0001:000060b6       _ccp_iv                    004070b6 f   sshccp.obj
 0001:000060b6       _poly_setkey               004070b6 f   sshccp.obj
 0001:000060b6       _poly_ssh2_free            004070b6 f   sshccp.obj
 0001:000060b6       _x11_log                   004070b6 f   x11fwd.obj
 0001:000060b6       _pfd_log                   004070b6 f   portfwd.obj
 0001:000060b6       _arcfour_ssh2_setiv        004070b6 f   ssharcf.obj
 0001:000060b6       _sk_handle_flush           004070b6 f   winhsock.obj
 0001:000060b6       _ssh2_userauth_special_cmd 004070b6 f   ssh2userauth.obj
 0001:000060b6       _ssh_verstring_queue_disconnect 004070b6 f   sshverstring.obj
 0001:000060b6       _ssh1channel_window_override_removed 004070b6 f   ssh1connection.obj
 0001:000060b6       _nullplug_socket_log       004070b6 f   nullplug.obj
 0001:000060b7       _ssh1mainchan_send_signal  004070b7 f   ssh1connection-client.obj
 0001:000060b7       _ssh1mainchan_send_serial_break 004070b7 f   ssh1connection-client.obj
 0001:000060b7       _ssh2_userauth_get_specials 004070b7 f   ssh2userauth.obj
 0001:000060b7       _ssh_decomp_none_block     004070b7 f   ssh2transport.obj
 0001:000060b7       _ssh1mainchan_start_subsystem 004070b7 f   ssh1connection-client.obj
 0001:000060b7       _ssh1mainchan_send_env_var 004070b7 f   ssh1connection-client.obj
 0001:000060ba       _zombiechan_want_close     004070ba f   sshcommon.obj
 0001:000060ba       _initialize_global_state_isolation 004070ba f   libucrt:initialization.obj
 0001:000060ba       _initialize_environment    004070ba f   libucrt:initialization.obj
 0001:000060ba       _uninitialize_c            004070ba f   libucrt:initialization.obj
 0001:000060ba       _report_memory_leaks       004070ba f   libucrt:initialization.obj
 0001:000060ba       _uninitialize_global_state_isolation 004070ba f   libucrt:initialization.obj
 0001:00006b99       _monty_reduce              00407b99 f   mpint.obj
 0001:00006bd3       _monty_reduce_internal     00407bd3 f   mpint.obj
 0001:00006d3f       _mp_add_integer_into_shifted_by_words 00407d3f f   mpint.obj
 0001:00006e22       _mp_add_masked_integer_into 00407e22 f   mpint.obj
 0001:00006e8b       _mp_add_masked_into        00407e8b f   mpint.obj
 0001:00006ee5       _mp_alloc_from_scratch     00407ee5 f   mpint.obj
 0001:00006f31       _mp_bezout_into            00407f31 f   mpint.obj
 0001:00007919       _mp_find_highest_nonzero_word_pair 00408919 f   mpint.obj
 0001:00007a43       _mp_from_bytes_int         00408a43 f   mpint.obj
 0001:00007cb8       _mp_get_hex_internal       00408cb8 f   mpint.obj
 0001:00008166       _mp_make_sized             00409166 f   mpint.obj
 0001:00008378       _mp_mul_add_simple         00409378 f   mpint.obj
 0001:00008474       _mp_mul_internal           00409474 f   mpint.obj
 0001:00008b86       _mp_word                   00409b86 f   mpint.obj
 0001:00008b9c       _recip_approx_32           00409b9c f   mpint.obj
 0001:00008c66       _trim_leading_zeroes       00409c66 f   mpint.obj
 0001:00008d68       _pinger_schedule           00409d68 f   pinger.obj
 0001:00008db3       _pinger_timer              00409db3 f   pinger.obj
 0001:00008de3       _pfd_closing               00409de3 f   portfwd.obj
 0001:00008e18       _pfl_closing               00409e18 f   portfwd.obj
 0001:00008e23       _pfd_receive               00409e23 f   portfwd.obj
 0001:0000926c       _pfd_sent                  0040a26c f   portfwd.obj
 0001:00009284       _pfd_chan_free             0040a284 f   portfwd.obj
 0001:000092b4       _pfd_open_confirmation     0040a2b4 f   portfwd.obj
 0001:00009328       _pfd_open_failure          0040a328 f   portfwd.obj
 0001:0000937a       _pfd_send                  0040a37a f   portfwd.obj
 0001:000093b4       _pfd_send_eof              0040a3b4 f   portfwd.obj
 0001:000093e4       _pfd_set_input_wanted      0040a3e4 f   portfwd.obj
 0001:00009425       _pfd_log_close_msg         0040a425 f   portfwd.obj
 0001:00009431       _pfl_accepting             0040a431 f   portfwd.obj
 0001:000094c6       _free_portfwd_state        0040a4c6 f   portfwd.obj
 0001:000094f0       _free_portlistener_state   0040a4f0 f   portfwd.obj
 0001:0000950b       _ipv4_to_string            0040a50b f   portfwd.obj
 0001:00009537       _ipv6_to_string            0040a537 f   portfwd.obj
 0001:000095d6       _pfd_close                 0040a5d6 f   portfwd.obj
 0001:000095f2       _pfl_listen                0040a5f2 f   portfwd.obj
 0001:000096ab       _pfl_terminate             0040a6ab f   portfwd.obj
 0001:000096c7       _pfr_cmp                   0040a6c7 f   portfwd.obj
 0001:0000a001       _unreachable_internal      0040b001 f   ssh1login.obj
 0001:0000a001       _unreachable_internal      0040b001 f   ssh2transport.obj
 0001:0000a001       _unreachable_internal      0040b001 f   ssh1connection-client.obj
 0001:0000a001       _unreachable_internal      0040b001 f   ssh2connection-client.obj
 0001:0000a001       _unreachable_internal      0040b001 f   portfwd.obj
 0001:0000a001       _unreachable_internal      0040b001 f   winnet.obj
 0001:0000a001       _unreachable_internal      0040b001 f   winpgntc.obj
 0001:0000a001       _unreachable_internal      0040b001 f   sshcommon.obj
 0001:0000a001       _unreachable_internal      0040b001 f   sshrsa.obj
 0001:0000a001       _unreachable_internal      0040b001 f   utils.obj
 0001:0000a001       _unreachable_internal      0040b001 f   sshverstring.obj
 0001:0000a006       _wrap_lportfwd_open        0040b006 f   portfwd.obj
 0001:0000a06c       _sk_proxy_plug             0040b06c f   proxy.obj
 0001:0000a085       _sk_proxy_close            0040b085 f   proxy.obj
 0001:0000a0ac       _sk_proxy_write            0040b0ac f   proxy.obj
 0001:0000a0eb       _sk_proxy_write_oob        0040b0eb f   proxy.obj
 0001:0000a136       _sk_proxy_write_eof        0040b136 f   proxy.obj
 0001:0000a153       _sk_proxy_flush            0040b153 f   proxy.obj
 0001:0000a170       _sk_proxy_set_frozen       0040b170 f   proxy.obj
 0001:0000a242       _sk_proxy_socket_error     0040b242 f   proxy.obj
 0001:0000a262       _plug_proxy_log            0040b262 f   proxy.obj
 0001:0000a287       _plug_proxy_closing        0040b287 f   proxy.obj
 0001:0000a2cb       _plug_proxy_receive        0040b2cb f   proxy.obj
 0001:0000a326       _plug_proxy_sent           0040b326 f   proxy.obj
 0001:0000a34d       _plug_proxy_accepting      0040b34d f   proxy.obj
 0001:0000a3b4       _dns_log_msg               0040b3b4 f   proxy.obj
 0001:0000a6ee       _get_line_end              0040b6ee f   proxy.obj
 0001:0000ab5e       _plug_closing              0040bb5e f   proxy.obj
 0001:0000ba08       $LN96                      0040ca08     proxy.obj
 0001:0000bbc5       _psftp_output              0040cbc5 f   psftp.obj
 0001:0000bbf4       _psftp_eof                 0040cbf4 f   psftp.obj
 0001:0000c5ca       _sftp_cmd_open             0040d5ca f   psftp.obj
 0001:0000c63f       _sftp_cmd_lcd              0040d63f f   psftp.obj
 0001:0000c6a1       _sftp_cmd_lpwd             0040d6a1 f   psftp.obj
 0001:0000c6c2       _sftp_cmd_pling            0040d6c2 f   psftp.obj
 0001:0000c6d7       _sftp_cmd_help             0040d6d7 f   psftp.obj
 0001:0000c7bb       _bare_name_compare         0040d7bb f   psftp.obj
 0001:0000ca22       _do_sftp_cleanup           0040da22 f   psftp.obj
 0001:0000ca94       _do_sftp_init              0040da94 f   psftp.obj
 0001:0000cc2a       _psftp_connect             0040dc2a f   psftp.obj
 0001:0000d372       _sftp_action_chmod         0040e372 f   psftp.obj
 0001:0000d465       _sftp_action_mv            0040e465 f   psftp.obj
 0001:0000d554       _sftp_action_rm            0040e554 f   psftp.obj
 0001:0000d5a2       _sftp_action_rmdir         0040e5a2 f   psftp.obj
 0001:0000eb6d       _stripctrl_string          0040fb6d f   psftp.obj
 0001:0000eb88       _usage                     0040fb88 f   psftp.obj
 0001:0000ecd6       _version                   0040fcd6 f   psftp.obj
 0001:0000efc4       _gppb                      0040ffc4 f   settings.obj
 0001:0000f003       _gppfile                   00410003 f   settings.obj
 0001:0000f03d       _gppfont                   0041003d f   settings.obj
 0001:0000f077       _gppi                      00410077 f   settings.obj
 0001:0000f099       _gppi_raw                  00410099 f   settings.obj
 0001:0000f0b8       _gppmap                    004100b8 f   settings.obj
 0001:0000f1fa       _gpps                      004101fa f   settings.obj
 0001:0000f226       _gpps_raw                  00410226 f   settings.obj
 0001:0000f25b       _gprefs                    0041025b f   settings.obj
 0001:0000f28d       _gprefs_from_str           0041028d f   settings.obj
 0001:00010652       _read_clip_setting         00411652 f   settings.obj
 0001:00010881       _fxp_got_attrs             00411881 f   sftp.obj
 0001:000108be       _fxp_got_handle            004118be f   sftp.obj
 0001:00010917       _fxp_got_status            00411917 f   sftp.obj
 0001:00011052       _sftp_alloc_request        00412052 f   sftp.obj
 0001:0001121a       _share_connstate_cmp       0041221a f   sshshare.obj
 0001:0001121a       _share_halfchannel_cmp     0041221a f   sshshare.obj
 0001:0001121a       _share_xchannel_us_cmp     0041221a f   sshshare.obj
 0001:0001121a       _sftp_reqcmp               0041221a f   sftp.obj
 0001:0001121a       _sftp_reqfind              0041221a f   sftp.obj
 0001:000114d1       _xfer_init                 004124d1 f   sftp.obj
 0001:0001176d       _sftp_pkt_BinarySink_write 0041276d f   sftpcommon.obj
 0001:000118c0       _ssh_socket_log            004128c0 f   ssh.obj
 0001:000118f6       _ssh_closing               004128f6 f   ssh.obj
 0001:00011936       _ssh_receive               00412936 f   ssh.obj
 0001:00011998       _ssh_sent                  00412998 f   ssh.obj
 0001:000119c7       _ssh_test_for_upstream     004129c7 f   ssh.obj
 0001:00011a0f       _ssh_init                  00412a0f f   ssh.obj
 0001:00011ae1       _ssh_free                  00412ae1 f   ssh.obj
 0001:00011b82       _ssh_reconfig              00412b82 f   ssh.obj
 0001:00011bd3       _ssh_send                  00412bd3 f   ssh.obj
 0001:00011c1b       _ssh_sendbuffer            00412c1b f   ssh.obj
 0001:00011c4b       _ssh_size                  00412c4b f   ssh.obj
 0001:00011c76       _ssh_get_specials          00412c76 f   ssh.obj
 0001:00011cd0       _ssh_special               00412cd0 f   ssh.obj
 0001:00011cf0       _ssh_unthrottle            00412cf0 f   ssh.obj
 0001:00011d0c       _ssh_connected             00412d0c f   ssh.obj
 0001:00011d18       _ssh_sendok                00412d18 f   ssh.obj
 0001:00011d37       _ssh_ldisc                 00412d37 f   ssh.obj
 0001:00011d5f       _ssh_provide_ldisc         00412d5f f   ssh.obj
 0001:00011d6b       _ssh_return_exitcode       00412d6b f   ssh.obj
 0001:00011d99       _ssh_cfg_info              00412d99 f   ssh.obj
 0001:00011db0       _connect_to_host           00412db0 f   ssh.obj
 0001:00011fcb       _ssh_add_special           00412fcb f   ssh.obj
 0001:0001200d       _ssh_bpp_output_raw_data_callback 0041300d f   ssh.obj
 0001:000120a4       _ssh_cache_conf_values     004130a4 f   ssh.obj
 0001:00012137       _ssh_connect_bpp           00413137 f   ssh.obj
 0001:000121a6       _ssh_connect_ppl           004131a6 f   ssh.obj
 0001:00012217       _ssh_got_ssh_version       00413217 f   ssh.obj
 0001:000125af       _ssh_hostport_setup        004135af f   ssh.obj
 0001:00012649       _ssh_initiate_connection_close 00413649 f   ssh.obj
 0001:000127ae       _ssh_shutdown              004137ae f   ssh.obj
 0001:00012808       _ssh_shutdown_internal     00413808 f   ssh.obj
 0001:000128f2       _ssh_throttle_all          004138f2 f   ssh.obj
 0001:000129bf       _ssh1_bpp_free             004139bf f   ssh1bpp.obj
 0001:00012a20       _ssh1_bpp_handle_input     00413a20 f   ssh1bpp.obj
 0001:00012de0       _ssh1_bpp_handle_output    00413de0 f   ssh1bpp.obj
 0001:00012e3d       _ssh1_bpp_queue_disconnect 00413e3d f   ssh1bpp.obj
 0001:00012e6c       _ssh1_bpp_new_pktout       00413e6c f   ssh1bpp.obj
 0001:00012ea1       _ssh1_bpp_format_packet    00413ea1 f   ssh1bpp.obj
 0001:000132de       _ssh1_connection_free      004142de f   ssh1connection.obj
 0001:000133a1       _ssh1_connection_process_queue 004143a1 f   ssh1connection.obj
 0001:000134fc       _ssh1_connection_special_cmd 004144fc f   ssh1connection.obj
 0001:00013561       _ssh1_connection_want_user_input 00414561 f   ssh1connection.obj
 0001:00013569       _ssh1_connection_got_user_input 00414569 f   ssh1connection.obj
 0001:000135be       _ssh1_connection_reconfigure 004145be f   ssh1connection.obj
 0001:000135ec       _ssh1_lportfwd_open        004145ec f   ssh1connection.obj
 0001:00013684       _ssh1_add_x11_display      00414684 f   ssh1connection.obj
 0001:00013684       _ssh2_add_x11_display      00414684 f   ssh2connection.obj
 0001:0001369e       _ssh1_agent_forwarding_permitted 0041469e f   ssh1connection.obj
 0001:000136c1       _ssh1_terminal_size        004146c1 f   ssh1connection.obj
 0001:000136e7       _ssh1_stdout_unthrottle    004146e7 f   ssh1connection.obj
 0001:0001370c       _ssh1_throttle_all_channels 0041470c f   ssh1connection.obj
 0001:0001374b       _ssh1_ldisc_option         0041474b f   ssh1connection.obj
 0001:00013758       _ssh1_set_ldisc_option     00414758 f   ssh1connection.obj
 0001:00013769       _ssh1_enable_x_fwd         00414769 f   ssh1connection.obj
 0001:00013772       _ssh1_enable_agent_fwd     00414772 f   ssh1connection.obj
 0001:0001377b       _ssh1_set_wants_user_input 0041477b f   ssh1connection.obj
 0001:0001378b       _ssh1channel_write         0041478b f   ssh1connection.obj
 0001:000137f5       _ssh1channel_write_eof     004147f5 f   ssh1connection.obj
 0001:0001380e       _ssh1channel_initiate_close 0041480e f   ssh1connection.obj
 0001:00013851       _ssh1channel_unthrottle    00414851 f   ssh1connection.obj
 0001:0001387c       _ssh1channel_get_conf      0041487c f   ssh1connection.obj
 0001:00013887       _ssh1_channel_check_close  00414887 f   ssh1connection.obj
 0001:00013975       _ssh1_channel_close_local  00414975 f   ssh1connection.obj
 0001:00013a2e       _ssh1_channel_try_eof      00414a2e f   ssh1connection.obj
 0001:00013a99       _handle_cmp_evtomain       00414a99 f   winhandl.obj
 0001:00013a99       _ssh1_channelcmp           00414a99 f   ssh1connection.obj
 0001:00013a99       _share_channel_server_cmp  00414a99 f   sshshare.obj
 0001:00013a99       _ssh2_channelcmp           00414a99 f   ssh2connection.obj
 0001:00013ab4       _ssh1_channelfind          00414ab4 f   ssh1connection.obj
 0001:00013ab4       _handle_find_evtomain      00414ab4 f   winhandl.obj
 0001:00013ab4       _ssh2_channelfind          00414ab4 f   ssh2connection.obj
 0001:00013b1d       _ssh1_check_termination_callback 00414b1d f   ssh1connection.obj
 0001:00013b22       _ssh1_connection_filter_queue 00414b22 f   ssh1connection.obj
 0001:00013e53       _ssh1_rportfwd_cmp         00414e53 f   ssh1connection.obj
 0001:00013e8f       _ssh1mainchan_request_x11_forwarding 00414e8f f   ssh1connection-client.obj
 0001:00013ef5       _ssh1mainchan_request_agent_forwarding 00414ef5 f   ssh1connection-client.obj
 0001:00013f2a       _ssh1mainchan_request_pty  00414f2a f   ssh1connection-client.obj
 0001:00013ff8       _ssh1mainchan_start_shell  00414ff8 f   ssh1connection-client.obj
 0001:0001402d       _ssh1mainchan_start_command 0041502d f   ssh1connection-client.obj
 0001:00014073       _ssh1mainchan_send_terminal_size_change 00415073 f   ssh1connection-client.obj
 0001:000140c0       _ssh1mainchan_write        004150c0 f   ssh1connection-client.obj
 0001:000140f7       _ssh1mainchan_write_eof    004150f7 f   ssh1connection-client.obj
 0001:00014161       _ssh1_connection_process_succfail 00415161 f   ssh1connection-client.obj
 0001:0001418b       _ssh1_connection_process_trivial_succfails 0041518b f   ssh1connection-client.obj
 0001:000145e6       _ssh1_queue_succfail_handler 004155e6 f   ssh1connection-client.obj
 0001:000146f5       _ssh1_rportfwd_response    004156f5 f   ssh1connection-client.obj
 0001:000147b1       _ssh1_session_confirm_callback 004157b1 f   ssh1connection-client.obj
 0001:000147ec       _ssh1mainchan_queue_response 004157ec f   ssh1connection-client.obj
 0001:00014812       _ssh1mainchan_succfail_wantreply 00415812 f   ssh1connection-client.obj
 0001:00014826       _ssh1_login_free           00415826 f   ssh1login.obj
 0001:000148bc       _ssh1_login_process_queue  004158bc f   ssh1login.obj
 0001:00016373       _ssh1_login_special_cmd    00417373 f   ssh1login.obj
 0001:000163bb       _ssh1_login_want_user_input 004173bb f   ssh1login.obj
 0001:000163c3       _ssh1_login_got_user_input 004173c3 f   ssh1login.obj
 0001:000163d8       _ssh1_login_reconfigure    004173d8 f   ssh1login.obj
 0001:000163ef       _ssh1_login_agent_callback 004173ef f   ssh1login.obj
 0001:0001641f       _ssh1_login_agent_query    0041741f f   ssh1login.obj
 0001:0001646b       _ssh1_login_dialog_callback 0041746b f   ssh1login.obj
 0001:000164e8       _ssh1_login_pop            004174e8 f   ssh1login.obj
 0001:00016514       _ssh1_login_setup_tis_scc  00417514 f   ssh1login.obj
 0001:0001654f       _ssh2_bpp_free             0041754f f   ssh2bpp.obj
 0001:0001657e       _ssh2_bpp_handle_input     0041757e f   ssh2bpp.obj
 0001:00016d5e       _ssh2_bpp_handle_output    00417d5e f   ssh2bpp.obj
 0001:00016e63       _ssh2_bpp_new_pktout       00417e63 f   ssh2bpp.obj
 0001:00016e92       _GET_32BIT_MSB_FIRST       00417e92 f   ssh2bpp.obj
 0001:00016e92       _GET_32BIT_MSB_FIRST       00417e92 f   sshblowf.obj
 0001:00016eb5       _ssh2_bpp_enable_pending_compression 00417eb5 f   ssh2bpp.obj
 0001:00016f1a       _ssh2_bpp_format_packet    00417f1a f   ssh2bpp.obj
 0001:0001700f       _ssh2_bpp_format_packet_inner 0041800f f   ssh2bpp.obj
 0001:0001729c       _ssh2_bpp_free_incoming_crypto 0041829c f   ssh2bpp.obj
 0001:000172cd       _ssh2_bpp_free_outgoing_crypto 004182cd f   ssh2bpp.obj
 0001:00017632       _ssh2_bare_bpp_free        00418632 f   ssh2bpp-bare.obj
 0001:0001764c       _ssh2_bare_bpp_handle_input 0041864c f   ssh2bpp-bare.obj
 0001:00017842       _ssh2_bare_bpp_handle_output 00418842 f   ssh2bpp-bare.obj
 0001:0001787c       _ssh2_bare_bpp_new_pktout  0041887c f   ssh2bpp-bare.obj
 0001:000178a2       _ssh2_bare_bpp_format_packet 004188a2 f   ssh2bpp-bare.obj
 0001:00017b94       _ssh2_connection_free      00418b94 f   ssh2connection.obj
 0001:00017c67       _ssh2_connection_process_queue 00418c67 f   ssh2connection.obj
 0001:00017de6       _ssh2_connection_get_specials 00418de6 f   ssh2connection.obj
 0001:00017e3b       _ssh2_connection_special_cmd 00418e3b f   ssh2connection.obj
 0001:00017ea3       _ssh2_connection_want_user_input 00418ea3 f   ssh2connection.obj
 0001:00017eab       _ssh2_connection_got_user_input 00418eab f   ssh2connection.obj
 0001:00017ef1       _ssh2_connection_reconfigure 00418ef1 f   ssh2connection.obj
 0001:00017f1f       _ssh2_lportfwd_open        00418f1f f   ssh2connection.obj
 0001:00017f72       _ssh2_add_sharing_x11_display 00418f72 f   ssh2connection.obj
 0001:00017f93       _ssh2_remove_sharing_x11_display 00418f93 f   ssh2connection.obj
 0001:00017fb0       _ssh2_send_packet_from_downstream 00418fb0 f   ssh2connection.obj
 0001:00017ff3       _ssh2_alloc_sharing_channel 00418ff3 f   ssh2connection.obj
 0001:00018023       _ssh2_delete_sharing_channel 00419023 f   ssh2connection.obj
 0001:00018048       _ssh2_sharing_queue_global_request 00419048 f   ssh2connection.obj
 0001:00018062       _ssh2_sharing_no_more_downstreams 00419062 f   ssh2connection.obj
 0001:00018077       _ssh2_agent_forwarding_permitted 00419077 f   ssh2connection.obj
 0001:0001809a       _ssh2_terminal_size        0041909a f   ssh2connection.obj
 0001:000180c0       _ssh2_stdout_unthrottle    004190c0 f   ssh2connection.obj
 0001:000180da       _ssh2_stdin_backlog        004190da f   ssh2connection.obj
 0001:00018108       _ssh2_throttle_all_channels 00419108 f   ssh2connection.obj
 0001:0001813a       _ssh2_ldisc_option         0041913a f   ssh2connection.obj
 0001:00018147       _ssh2_set_ldisc_option     00419147 f   ssh2connection.obj
 0001:00018158       _ssh2_enable_x_fwd         00419158 f   ssh2connection.obj
 0001:00018161       _ssh2_enable_agent_fwd     00419161 f   ssh2connection.obj
 0001:0001816a       _ssh2_set_wants_user_input 0041916a f   ssh2connection.obj
 0001:00018176       _ssh2channel_write         00419176 f   ssh2connection.obj
 0001:000181c4       _ssh2channel_write_eof     004191c4 f   ssh2connection.obj
 0001:000181dd       _ssh2channel_initiate_close 004191dd f   ssh2connection.obj
 0001:00018220       _ssh2channel_unthrottle    00419220 f   ssh2connection.obj
 0001:00018271       _ssh2channel_get_conf      00419271 f   ssh2connection.obj
 0001:0001827c       _ssh2channel_window_override_removed 0041927c f   ssh2connection.obj
 0001:000182c4       _ssh2channel_x11_sharing_handover 004192c4 f   ssh2connection.obj
 0001:00018310       _ssh2channel_hint_channel_is_simple 00419310 f   ssh2connection.obj
 0001:0001833a       _ssh2_channel_check_close  0041933a f   ssh2connection.obj
 0001:000183e2       _ssh2_channel_check_throttle 004193e2 f   ssh2connection.obj
 0001:0001841a       _ssh2_channel_close_local  0041941a f   ssh2connection.obj
 0001:0001848b       _ssh2_channel_destroy      0041948b f   ssh2connection.obj
 0001:000184d8       _ssh2_channel_free         004194d8 f   ssh2connection.obj
 0001:000185a9       _ssh2_channel_open_failure_error_text 004195a9 f   ssh2connection.obj
 0001:0001861e       _ssh2_channel_try_eof      0041961e f   ssh2connection.obj
 0001:00018780       _ssh2_check_termination_callback 00419780 f   ssh2connection.obj
 0001:000187be       _ssh2_connection_filter_queue 004197be f   ssh2connection.obj
 0001:000192ce       $LN189                     0041a2ce     ssh2connection.obj
 0001:000193a2       _ssh2_handle_winadj_response 0041a3a2 f   ssh2connection.obj
 0001:000193f8       _ssh2_set_window           0041a3f8 f   ssh2connection.obj
 0001:000194d7       _ssh2_sharing_globreq_response 0041a4d7 f   ssh2connection.obj
 0001:000194f0       _ssh2_try_send             0041a4f0 f   ssh2connection.obj
 0001:00019609       _chan_open_forwarded_tcpip 0041a609 f   ssh2connection-client.obj
 0001:0001975e       _chan_open_x11             0041a75e f   ssh2connection-client.obj
 0001:0001981d       _ssh2_channel_response     0041a81d f   ssh2connection-client.obj
 0001:00019af2       _ssh2_rportfwd_cmp         0041aaf2 f   ssh2connection-client.obj
 0001:00019b2c       _ssh2_rportfwd_globreq_response 0041ab2c f   ssh2connection-client.obj
 0001:0001b7b6       _ssh_transient_hostkey_cache_cmp 0041c7b6 f   ssh2transhk.obj
 0001:0001b7d0       _ssh_transient_hostkey_cache_find 0041c7d0 f   ssh2transhk.obj
 0001:0001b8e6       _ssh2_transport_free       0041c8e6 f   ssh2transport.obj
 0001:0001ba75       _ssh2_transport_process_queue 0041ca75 f   ssh2transport.obj
 0001:0001c6d7       _ssh2_transport_get_specials 0041d6d7 f   ssh2transport.obj
 0001:0001c7a0       _ssh2_transport_special_cmd 0041d7a0 f   ssh2transport.obj
 0001:0001c82d       _ssh2_transport_want_user_input 0041d82d f   ssh2transport.obj
 0001:0001c83f       _ssh2_transport_got_user_input 0041d83f f   ssh2transport.obj
 0001:0001c851       _ssh2_transport_reconfigure 0041d851 f   ssh2transport.obj
 0001:0001caec       _ssh2_kexinit_addalg       0041daec f   ssh2transport.obj
 0001:0001cb2f       _ssh2_mkkey                0041db2f f   ssh2transport.obj
 0001:0001cc3f       _ssh2_scan_kexinits        0041dc3f f   ssh2transport.obj
 0001:0001d193       $LN95                      0041e193     ssh2transport.obj
 0001:0001d1b3       _ssh2_transport_confirm_weak_crypto_primitive 0041e1b3 f   ssh2transport.obj
 0001:0001d21e       _ssh2_transport_filter_queue 0041e21e f   ssh2transport.obj
 0001:0001d308       _ssh2_transport_gss_update 0041e308 f   ssh2transport.obj
 0001:0001d502       _ssh_ppl_ic_process_queue_callback 0041e502 f   sshcommon.obj
 0001:0001d502       _ssh2_transport_higher_layer_packet_callback 0041e502 f   ssh2transport.obj
 0001:0001d709       _ssh2_transport_set_max_data_size 0041e709 f   ssh2transport.obj
 0001:0001d726       _ssh2_transport_timer      0041e726 f   ssh2transport.obj
 0001:0001d7e2       _ssh2_transport_timer_update 0041e7e2 f   ssh2transport.obj
 0001:0001d8b4       _ssh2_write_kexinit_lists  0041e8b4 f   ssh2transport.obj
 0001:0001e031       _weak_algorithm_compare    0041f031 f   ssh2transport.obj
 0001:0001e048       _ssh2_userauth_free        0041f048 f   ssh2userauth.obj
 0001:0001e115       _ssh2_userauth_process_queue 0041f115 f   ssh2userauth.obj
 0001:00020467       _ssh2_userauth_want_user_input 00421467 f   ssh2userauth.obj
 0001:0002046f       _ssh2_userauth_got_user_input 0042146f f   ssh2userauth.obj
 0001:00020484       _ssh2_userauth_reconfigure 00421484 f   ssh2userauth.obj
 0001:0002049b       _ssh2_userauth_add_session_id 0042149b f   ssh2userauth.obj
 0001:000204c6       _ssh2_userauth_add_sigblob 004214c6 f   ssh2userauth.obj
 0001:0002061c       _ssh2_userauth_agent_callback 0042161c f   ssh2userauth.obj
 0001:0002064f       _ssh2_userauth_agent_query 0042164f f   ssh2userauth.obj
 0001:0002069e       _ssh2_userauth_antispoof_msg 0042169e f   ssh2userauth.obj
 0001:00020733       _ssh2_userauth_filter_queue 00421733 f   ssh2userauth.obj
 0001:00020818       _ssh2_userauth_gss_packet  00421818 f   ssh2userauth.obj
 0001:000209b5       _ssh2_userauth_pop         004219b5 f   ssh2userauth.obj
 0001:000209e1       _aes_select                004219e1 f   sshaes.obj
 0001:000209fd       _aes_sw_new                004219fd f   sshaes.obj
 0001:00020a1a       _aes_sw_free               00421a1a f   sshaes.obj
 0001:00020a3b       _aes_sw_setiv_cbc          00421a3b f   sshaes.obj
 0001:00020a52       _aes_sw_setiv_sdctr        00421a52 f   sshaes.obj
 0001:00020aa1       _aes_sw_setkey             00421aa1 f   sshaes.obj
 0001:00020abe       _aes_hw_new                00421abe f   sshaes.obj
 0001:00020af8       _aes_hw_free               00421af8 f   sshaes.obj
 0001:00020b1e       _aes_hw_setiv_cbc          00421b1e f   sshaes.obj
 0001:00020b2e       _aes_hw_setiv_sdctr        00421b2e f   sshaes.obj
 0001:00020b47       _aes_hw_setkey             00421b47 f   sshaes.obj
 0001:00020b75       _aes128_cbc_sw_encrypt     00421b75 f   sshaes.obj
 0001:00020b75       _aes256_cbc_sw_encrypt     00421b75 f   sshaes.obj
 0001:00020b75       _aes192_cbc_sw_encrypt     00421b75 f   sshaes.obj
 0001:00020b7a       _aes256_cbc_sw_decrypt     00421b7a f   sshaes.obj
 0001:00020b7a       _aes192_cbc_sw_decrypt     00421b7a f   sshaes.obj
 0001:00020b7a       _aes128_cbc_sw_decrypt     00421b7a f   sshaes.obj
 0001:00020b7f       _aes128_cbc_hw_encrypt     00421b7f f   sshaes.obj
 0001:00020b99       _aes128_cbc_hw_decrypt     00421b99 f   sshaes.obj
 0001:00020bb3       _aes256_sdctr_sw           00421bb3 f   sshaes.obj
 0001:00020bb3       _aes192_sdctr_sw           00421bb3 f   sshaes.obj
 0001:00020bb3       _aes128_sdctr_sw           00421bb3 f   sshaes.obj
 0001:00020bb8       _aes128_sdctr_hw           00421bb8 f   sshaes.obj
 0001:00020bd2       _aes192_cbc_hw_encrypt     00421bd2 f   sshaes.obj
 0001:00020bec       _aes192_cbc_hw_decrypt     00421bec f   sshaes.obj
 0001:00020c06       _aes192_sdctr_hw           00421c06 f   sshaes.obj
 0001:00020c20       _aes256_cbc_hw_encrypt     00421c20 f   sshaes.obj
 0001:00020c3a       _aes256_cbc_hw_decrypt     00421c3a f   sshaes.obj
 0001:00020c54       _aes256_sdctr_hw           00421c54 f   sshaes.obj
 0001:00020c6e       _GET_64BIT_LSB_FIRST       00421c6e f   sshaes.obj
 0001:00020cef       _PUT_64BIT_LSB_FIRST       00421cef f   sshaes.obj
 0001:00020d34       _aes_cbc_ni_decrypt        00421d34 f   sshaes.obj
 0001:00020d8e       _aes_cbc_ni_encrypt        00421d8e f   sshaes.obj
 0001:00020dd3       _aes_cbc_sw_decrypt        00421dd3 f   sshaes.obj
 0001:00020ee1       _aes_cbc_sw_encrypt        00421ee1 f   sshaes.obj
 0001:00020f2b       _aes_hw_available_cached   00421f2b f   sshaes.obj
 0001:00020f80       _aes_ni_128_d              00421f80 f   sshaes.obj
 0001:00021012       _aes_ni_128_e              00422012 f   sshaes.obj
 0001:000210a4       _aes_ni_192_d              004220a4 f   sshaes.obj
 0001:00021158       _aes_ni_192_e              00422158 f   sshaes.obj
 0001:0002120c       _aes_ni_256_d              0042220c f   sshaes.obj
 0001:000212e2       _aes_ni_256_e              004222e2 f   sshaes.obj
 0001:000213b8       _aes_ni_key_expand         004223b8 f   sshaes.obj
 0001:000215e6       _aes_sdctr_ni              004225e6 f   sshaes.obj
 0001:0002165c       _aes_sdctr_sw              0042265c f   sshaes.obj
 0001:00021762       _aes_sliced_d_parallel     00422762 f   sshaes.obj
 0001:00021d86       _aes_sliced_e_parallel     00422d86 f   sshaes.obj
 0001:0002238d       _aes_sliced_e_serial       0042338d f   sshaes.obj
 0001:00022765       _aes_sliced_key_setup      00423765 f   sshaes.obj
 0001:00022fe9       _aes_sliced_round_d_parallel 00423fe9 f   sshaes.obj
 0001:00023bb2       _aes_sliced_round_d_parallel_first 00424bb2 f   sshaes.obj
 0001:000240a8       _aes_sliced_round_e_parallel 004250a8 f   sshaes.obj
 0001:000247fe       _aes_sliced_round_e_parallel_last 004257fe f   sshaes.obj
 0001:00024cd7       _aes_sliced_round_e_serial 00425cd7 f   sshaes.obj
 0001:00025638       _aes_sliced_round_e_serial_last 00426638 f   sshaes.obj
 0001:00025c02       _memxor16                  00426c02 f   sshaes.obj
 0001:00025c5e       _arcfour_new               00426c5e f   ssharcf.obj
 0001:00025c7b       _arcfour_free              00426c7b f   ssharcf.obj
 0001:00025c9c       _arcfour_ssh2_setkey       00426c9c f   ssharcf.obj
 0001:00025cee       _arcfour_ssh2_block        00426cee f   ssharcf.obj
 0001:00025d09       _arcfour_block             00426d09 f   ssharcf.obj
 0001:00025d61       _arcfour_setkey            00426d61 f   ssharcf.obj
 0001:00025e5b       _aes256_pubkey_cipher      00426e5b f   sshauxcrypt.obj
 0001:00025ed3       _des3_pubkey_cipher        00426ed3 f   sshauxcrypt.obj
 0001:00025f96       _des_xdmauth_cipher        00426f96 f   sshauxcrypt.obj
 0001:00026090       _blowfish_new              00427090 f   sshblowf.obj
 0001:000260ad       _blowfish_free             004270ad f   sshblowf.obj
 0001:000260ce       _blowfish_ssh_setkey       004270ce f   sshblowf.obj
 0001:000260fb       _blowfish_ssh1_setiv       004270fb f   sshblowf.obj
 0001:0002611f       _blowfish_ssh2_setiv       0042711f f   sshblowf.obj
 0001:00026143       _blowfish_ssh1_encrypt_blk 00427143 f   sshblowf.obj
 0001:0002615e       _blowfish_ssh1_decrypt_blk 0042715e f   sshblowf.obj
 0001:00026179       _blowfish_ssh2_encrypt_blk 00427179 f   sshblowf.obj
 0001:00026194       _blowfish_ssh2_decrypt_blk 00427194 f   sshblowf.obj
 0001:000261af       _blowfish_ssh2_sdctr       004271af f   sshblowf.obj
 0001:000261ca       _GET_32BIT_LSB_FIRST       004271ca f   sshblowf.obj
 0001:000261ca       _GET_32BIT_LSB_FIRST       004271ca f   sshccp.obj
 0001:000261ed       _blowfish_decrypt          004271ed f   sshblowf.obj
 0001:00026613       _blowfish_encrypt          00427613 f   sshblowf.obj
 0001:00026e1a       _blowfish_lsb_decrypt_cbc  00427e1a f   sshblowf.obj
 0001:00026f1b       _blowfish_lsb_encrypt_cbc  00427f1b f   sshblowf.obj
 0001:00027015       _blowfish_msb_decrypt_cbc  00428015 f   sshblowf.obj
 0001:00027122       _blowfish_msb_encrypt_cbc  00428122 f   sshblowf.obj
 0001:0002721c       _blowfish_msb_sdctr        0042821c f   sshblowf.obj
 0001:0002730f       _poly_ssh2_new             0042830f f   sshccp.obj
 0001:00027323       _poly_start                00428323 f   sshccp.obj
 0001:00027347       _poly_genresult            00428347 f   sshccp.obj
 0001:0002735b       _poly_text_name            0042835b f   sshccp.obj
 0001:00027361       _ccp_new                   00428361 f   sshccp.obj
 0001:000273a1       _ccp_free                  004283a1 f   sshccp.obj
 0001:000273e0       _ccp_key                   004283e0 f   sshccp.obj
 0001:0002740d       _ccp_encrypt               0042840d f   sshccp.obj
 0001:0002740d       _ccp_decrypt               0042840d f   sshccp.obj
 0001:00027428       _ccp_encrypt_length        00428428 f   sshccp.obj
 0001:00027428       _ccp_decrypt_length        00428428 f   sshccp.obj
 0001:00027456       _bigval_add                00428456 f   sshccp.obj
 0001:000274bd       _bigval_final_reduce       004284bd f   sshccp.obj
 0001:00027560       _bigval_import_le          00428560 f   sshccp.obj
 0001:000275ae       _bigval_mul_mod_p          004285ae f   sshccp.obj
 0001:0002790e       _ccp_length_op             0042890e f   sshccp.obj
 0001:0002797e       _chacha20_encrypt          0042897e f   sshccp.obj
 0001:000279dc       _chacha20_iv               004289dc f   sshccp.obj
 0001:00027a3c       _chacha20_key              00428a3c f   sshccp.obj
 0001:00027aec       _chacha20_round            00428aec f   sshccp.obj
 0001:00027e24       _poly1305_feed             00428e24 f   sshccp.obj
 0001:00027ead       _poly1305_feed_chunk       00428ead f   sshccp.obj
 0001:00027f25       _poly1305_finalise         00428f25 f   sshccp.obj
 0001:00027fb3       _poly1305_init             00428fb3 f   sshccp.obj
 0001:00027fd5       _poly1305_key              00428fd5 f   sshccp.obj
 0001:0002806b       _poly_BinarySink_write     0042906b f   sshccp.obj
 0001:00028131       _pktin_free_queue_callback 00429131 f   sshcommon.obj
 0001:0002815c       _zombiechan_free           0042915c f   sshcommon.obj
 0001:00028189       _zombiechan_send           00429189 f   sshcommon.obj
 0001:000281af       _zombiechan_set_input_wanted 004291af f   sshcommon.obj
 0001:000281d3       _zombiechan_do_nothing     004291d3 f   sshcommon.obj
 0001:000281f7       _zombiechan_open_failure   004291f7 f   sshcommon.obj
 0001:000286b3       _pq_ensure_unlinked        004296b3 f   sshcommon.obj
 0001:00028703       _pq_in_after               00429703 f   sshcommon.obj
 0001:00028785       _pq_out_after              00429785 f   sshcommon.obj
 0001:0002908b       _ssh_bpp_input_raw_data_callback 0042a08b f   sshcommon.obj
 0001:000290a3       _ssh_bpp_output_packet_callback 0042a0a3 f   sshcommon.obj
 0001:000290fc       _ssh_pkt_BinarySink_write  0042a0fc f   sshcommon.obj
 0001:000294b3       _check_crc                 0042a4b3 f   sshcrcda.obj
 0001:00029549       _crc_update                0042a549 f   sshcrcda.obj
 0001:000297fc       _des_cbc_new               0042a7fc f   sshdes.obj
 0001:00029819       _des_cbc_free              0042a819 f   sshdes.obj
 0001:0002983a       _des_cbc_setkey            0042a83a f   sshdes.obj
 0001:00029859       _des3_cbc1_setiv           0042a859 f   sshdes.obj
 0001:00029859       _des_cbc_setiv             0042a859 f   sshdes.obj
 0001:0002986e       _des_cbc_encrypt           0042a86e f   sshdes.obj
 0001:000298ec       _des_cbc_decrypt           0042a8ec f   sshdes.obj
 0001:0002996a       _des3_sdctr_new            0042a96a f   sshdes.obj
 0001:0002996a       _des3_cbc1_new             0042a96a f   sshdes.obj
 0001:00029987       _des3_sdctr_free           0042a987 f   sshdes.obj
 0001:00029987       _des3_cbc1_free            0042a987 f   sshdes.obj
 0001:000299a8       _des3_sdctr_setkey         0042a9a8 f   sshdes.obj
 0001:000299a8       _des3_cbc1_setkey          0042a9a8 f   sshdes.obj
 0001:000299dd       _des3_cbc1_cbc_encrypt     0042a9dd f   sshdes.obj
 0001:00029a96       _des3_cbc1_cbc_decrypt     0042aa96 f   sshdes.obj
 0001:00029b43       _des3_sdctr_setiv          0042ab43 f   sshdes.obj
 0001:00029b84       _des3_sdctr_encrypt_decrypt 0042ab84 f   sshdes.obj
 0001:00029cb7       _des3_cbc3_new             0042acb7 f   sshdes.obj
 0001:00029cd4       _des3_cbc3_free            0042acd4 f   sshdes.obj
 0001:00029cf5       _des3_cbc3_setkey          0042acf5 f   sshdes.obj
 0001:00029d2a       _des3_cbc3_setiv           0042ad2a f   sshdes.obj
 0001:00029d56       _des3_cbc3_cbc_encrypt     0042ad56 f   sshdes.obj
 0001:00029e34       _des3_cbc3_cbc_decrypt     0042ae34 f   sshdes.obj
 0001:00029f16       _bitsel                    0042af16 f   sshdes.obj
 0001:00029f6e       _des_FP                    0042af6e f   sshdes.obj
 0001:00029fe4       _des_IP                    0042afe4 f   sshdes.obj
 0001:0002a059       _des_S                     0042b059 f   sshdes.obj
 0001:0002a16d       _des_f                     0042b16d f   sshdes.obj
 0001:0002a1f7       _des_inner_cipher          0042b1f7 f   sshdes.obj
 0001:0002a45a       _des_load_lr               0042b45a f   sshdes.obj
 0001:0002a4a0       _des_store_lr              0042b4a0 f   sshdes.obj
 0001:0002a4de       _dh_group1_construct       0042b4de f   sshdh.obj
 0001:0002a501       _dh_group14_construct      0042b501 f   sshdh.obj
 0001:0002a612       _dh_init                   0042b612 f   sshdh.obj
 0001:0002a717       _mp__from_string_literal   0042b717 f   sshdh.obj
 0001:0002a717       _mp__from_string_literal   0042b717 f   sshecc.obj
 0001:0002a740       _dss_freekey               0042b740 f   sshdss.obj
 0001:0002a79a       _dss_new_pub               0042b79a f   sshdss.obj
 0001:0002a85f       _dss_cache_str             0042b85f f   sshdss.obj
 0001:0002a8a6       _dss_verify                0042b8a6 f   sshdss.obj
 0001:0002aae3       _dss_public_blob           0042bae3 f   sshdss.obj
 0001:0002ab2c       _dss_private_blob          0042bb2c f   sshdss.obj
 0001:0002ab42       _dss_new_priv              0042bb42 f   sshdss.obj
 0001:0002ac4c       _dss_new_priv_openssh      0042bc4c f   sshdss.obj
 0001:0002acdf       _dss_openssh_blob          0042bcdf f   sshdss.obj
 0001:0002ad26       _dss_pubkey_bits           0042bd26 f   sshdss.obj
 0001:0002ad5e       _dss_sign                  0042bd5e f   sshdss.obj
 0001:0002aeca       _append_hex_to_strbuf      0042beca f   sshdss.obj
 0001:0002aeca       _append_hex_to_strbuf      0042beca f   sshrsa.obj
 0001:0002b015       _ec_p256                   0042c015 f   sshecc.obj
 0001:0002b103       _ec_p384                   0042c103 f   sshecc.obj
 0001:0002b1f1       _ec_p521                   0042c1f1 f   sshecc.obj
 0001:0002b2df       _ec_curve25519             0042c2df f   sshecc.obj
 0001:0002b393       _ec_ed25519                0042c393 f   sshecc.obj
 0001:0002b4a7       _ecdsa_freekey             0042c4a7 f   sshecc.obj
 0001:0002b4d6       _eddsa_freekey             0042c4d6 f   sshecc.obj
 0001:0002b505       _ecdsa_new_pub             0042c505 f   sshecc.obj
 0001:0002b5ba       _eddsa_new_pub             0042c5ba f   sshecc.obj
 0001:0002b66d       _ecdsa_cache_str           0042c66d f   sshecc.obj
 0001:0002b6b0       _eddsa_cache_str           0042c6b0 f   sshecc.obj
 0001:0002b6f3       _ecdsa_public_blob         0042c6f3 f   sshecc.obj
 0001:0002b72e       _eddsa_public_blob         0042c72e f   sshecc.obj
 0001:0002b75b       _ecdsa_private_blob        0042c75b f   sshecc.obj
 0001:0002b792       _eddsa_private_blob        0042c792 f   sshecc.obj
 0001:0002b7c9       _ecdsa_new_priv            0042c7c9 f   sshecc.obj
 0001:0002b810       _eddsa_new_priv            0042c810 f   sshecc.obj
 0001:0002b860       _eddsa_new_priv_openssh    0042c860 f   sshecc.obj
 0001:0002b975       _eddsa_openssh_blob        0042c975 f   sshecc.obj
 0001:0002ba3d       _ecdsa_new_priv_openssh    0042ca3d f   sshecc.obj
 0001:0002bac0       _ecdsa_openssh_blob        0042cac0 f   sshecc.obj
 0001:0002baf9       _ec_shared_pubkey_bits     0042caf9 f   sshecc.obj
 0001:0002bb06       _ecdsa_verify              0042cb06 f   sshecc.obj
 0001:0002bcf6       _eddsa_verify              0042ccf6 f   sshecc.obj
 0001:0002be6a       _ecdsa_sign                0042ce6a f   sshecc.obj
 0001:0002bff1       _eddsa_sign                0042cff1 f   sshecc.obj
 0001:0002c233       _ssh_ecdhkex_w_setup       0042d233 f   sshecc.obj
 0001:0002c275       _ssh_ecdhkex_m_setup       0042d275 f   sshecc.obj
 0001:0002c308       _ssh_ecdhkex_w_getpublic   0042d308 f   sshecc.obj
 0001:0002c324       _ssh_ecdhkex_m_getpublic   0042d324 f   sshecc.obj
 0001:0002c378       _ssh_ecdhkex_w_getkey      0042d378 f   sshecc.obj
 0001:0002c3dc       _ssh_ecdhkex_m_getkey      0042d3dc f   sshecc.obj
 0001:0002c4b5       _ssh_ecdhkex_w_cleanup     0042d4b5 f   sshecc.obj
 0001:0002c4c3       _ssh_ecdhkex_m_cleanup     0042d4c3 f   sshecc.obj
 0001:0002c4d1       _BinarySink_put_epoint     0042d4d1 f   sshecc.obj
 0001:0002c598       _BinarySink_put_mp_le_unsigned 0042d598 f   sshecc.obj
 0001:0002c5e2       _BinarySink_put_wpoint     0042d5e2 f   sshecc.obj
 0001:0002c6c1       _BinarySource_get_wpoint   0042d6c1 f   sshecc.obj
 0001:0002c6eb       _ecc_cache_str_shared      0042d6eb f   sshecc.obj
 0001:0002c74a       _ecdsa_decode              0042d74a f   sshecc.obj
 0001:0002c86a       _ecdsa_signing_exponent_from_data 0042d86a f   sshecc.obj
 0001:0002c8f1       _eddsa_decode              0042d8f1 f   sshecc.obj
 0001:0002c988       _eddsa_exponent_from_hash  0042d988 f   sshecc.obj
 0001:0002c9ef       _eddsa_signing_exponent_from_data 0042d9ef f   sshecc.obj
 0001:0002ca79       _initialise_common         0042da79 f   sshecc.obj
 0001:0002caa9       _initialise_wcurve         0042daa9 f   sshecc.obj
 0001:0002cb6e       _ssh_gssapi_acquire_cred   0042db6e f   sshgssc.obj
 0001:0002cc9a       _ssh_gssapi_display_status 0042dc9a f   sshgssc.obj
 0001:0002cd81       _ssh_gssapi_free_mic       0042dd81 f   sshgssc.obj
 0001:0002cd86       _ssh_gssapi_free_tok       0042dd86 f   sshgssc.obj
 0001:0002cda0       _ssh_gssapi_get_mic        0042dda0 f   sshgssc.obj
 0001:0002cdc5       _ssh_gssapi_import_name    0042ddc5 f   sshgssc.obj
 0001:0002ce1a       _ssh_gssapi_indicate_mech  0042de1a f   sshgssc.obj
 0001:0002ce35       _ssh_gssapi_init_sec_context 0042de35 f   sshgssc.obj
 0001:0002cedd       _ssh_gssapi_release_cred   0042dedd f   sshgssc.obj
 0001:0002cf1d       _ssh_gssapi_release_name   0042df1d f   sshgssc.obj
 0001:0002cf37       _ssh_gssapi_verify_mic     0042df37 f   sshgssc.obj
 0001:0002cf5c       _hmac_new                  0042df5c f   sshhmac.obj
 0001:0002d05c       _hmac_free                 0042e05c f   sshhmac.obj
 0001:0002d0af       _hmac_key                  0042e0af f   sshhmac.obj
 0001:0002d217       _hmac_start                0042e217 f   sshhmac.obj
 0001:0002d23b       _hmac_genresult            0042e23b f   sshhmac.obj
 0001:0002d29d       _hmac_text_name            0042e29d f   sshhmac.obj
 0001:0002d2d3       _ssh2_mac_prepare          0042e2d3 f   sshmac.obj
 0001:0002d399       _md5_new                   0042e399 f   sshmd5.obj
 0001:0002d3c1       _md5_copy                  0042e3c1 f   sshmd5.obj
 0001:0002d3e3       _md5_free                  0042e3e3 f   sshmd5.obj
 0001:0002d3fe       _md5_final                 0042e3fe f   sshmd5.obj
 0001:0002d549       _MD5_BinarySink_write      0042e549 f   sshmd5.obj
 0001:0002d627       _MD5_Block                 0042e627 f   sshmd5.obj
 0001:0002e36b       _prng_seed_BinarySink_write 0042f36b f   sshprng.obj
 0001:0002e581       _key_type_fp               0042f581 f   sshpubk.obj
 0001:0002e81f       $LN17                      0042f81f     sshpubk.obj
 0001:0002ea06       _read_blob                 0042fa06 f   sshpubk.obj
 0001:0002eb15       _read_body                 0042fb15 f   sshpubk.obj
 0001:0002eb7c       _read_header               0042fb7c f   sshpubk.obj
 0001:0002eee6       _rsa_ssh1_load_main        0042fee6 f   sshpubk.obj
 0001:0002fbdf       _ssh2_ppk_derivekey        00430bdf f   sshpubk.obj
 0001:00030049       _userkey_parse_line_counter 00431049 f   sshpubk.obj
 0001:000300d2       _random_create             004310d2 f   sshrand.obj
 0001:000301fa       _random_seed_callback      004311fa f   sshrand.obj
 0001:00030214       _random_timer              00431214 f   sshrand.obj
 0001:0003027c       _rsa2_freekey              0043127c f   sshrsa.obj
 0001:00030294       _rsa2_new_pub              00431294 f   sshrsa.obj
 0001:0003032c       _rsa2_cache_str            0043132c f   sshrsa.obj
 0001:0003033b       _rsa2_public_blob          0043133b f   sshrsa.obj
 0001:0003036e       _rsa2_private_blob         0043136e f   sshrsa.obj
 0001:000303aa       _rsa2_new_priv             004313aa f   sshrsa.obj
 0001:00030438       _rsa2_new_priv_openssh     00431438 f   sshrsa.obj
 0001:000304c3       _rsa2_openssh_blob         004314c3 f   sshrsa.obj
 0001:00030515       _rsa2_pubkey_bits          00431515 f   sshrsa.obj
 0001:0003054d       _rsa2_verify               0043154d f   sshrsa.obj
 0001:00030686       _rsa2_sign                 00431686 f   sshrsa.obj
 0001:000309fa       _oaep_mask                 004319fa f   sshrsa.obj
 0001:00030abc       _rsa2_hash_alg_for_flags   00431abc f   sshrsa.obj
 0001:00030af7       _rsa_pkcs1_prefix_for_hash 00431af7 f   sshrsa.obj
 0001:00030b4a       _rsa_pkcs1_signature_string 00431b4a f   sshrsa.obj
 0001:00030bf4       _rsa_privkey_op            00431bf4 f   sshrsa.obj
 0001:0003116e       _sha256_ni_new             0043216e f   sshsh256.obj
 0001:000311bd       _sha256_ni_copy            004321bd f   sshsh256.obj
 0001:000311bd       _sha1_ni_copy              004321bd f   sshsha.obj
 0001:000311ee       _sha256_ni_free            004321ee f   sshsh256.obj
 0001:000311ee       _sha1_ni_free              004321ee f   sshsha.obj
 0001:0003120f       _sha256_ni_final           0043220f f   sshsh256.obj
 0001:00031264       _sha256_select             00432264 f   sshsh256.obj
 0001:0003127d       _sha256_sw_new             0043227d f   sshsh256.obj
 0001:000312c4       _sha256_sw_copy            004322c4 f   sshsh256.obj
 0001:000312f8       _sha256_sw_free            004322f8 f   sshsh256.obj
 0001:00031316       _sha256_sw_final           00432316 f   sshsh256.obj
 0001:00031369       _sha256_block_pad          00432369 f   sshsh256.obj
 0001:000313ef       _sha1_block_write          004323ef f   sshsha.obj
 0001:000313ef       _sha256_block_write        004323ef f   sshsh256.obj
 0001:00031447       _sha256_hw_available_cached 00432447 f   sshsh256.obj
 0001:000314a9       _sha1_ni_alloc             004324a9 f   sshsha.obj
 0001:000314a9       _sha256_ni_alloc           004324a9 f   sshsh256.obj
 0001:000314c6       _sha256_ni_block           004324c6 f   sshsh256.obj
 0001:000317bc       _sha256_ni_write           004327bc f   sshsh256.obj
 0001:000317f8       _sha256_sw_block           004327f8 f   sshsh256.obj
 0001:00031af6       _sha256_sw_round           00432af6 f   sshsh256.obj
 0001:00031b7e       _sha256_sw_write           00432b7e f   sshsh256.obj
 0001:00031bba       _sha512_new                00432bba f   sshsh512.obj
 0001:00031bee       _sha512_copy               00432bee f   sshsh512.obj
 0001:00031c16       _sha512_free               00432c16 f   sshsh512.obj
 0001:00031c37       _sha512_final              00432c37 f   sshsh512.obj
 0001:00031c57       _sha384_new                00432c57 f   sshsh512.obj
 0001:00031c8b       _sha384_final              00432c8b f   sshsh512.obj
 0001:00031d2f       _SHA512_BinarySink_write   00432d2f f   sshsh512.obj
 0001:00031e69       _SHA512_Block              00432e69 f   sshsh512.obj
 0001:00032d34       _sha1_ni_new               00433d34 f   sshsha.obj
 0001:00032d83       _sha1_ni_final             00433d83 f   sshsha.obj
 0001:00032dd9       _sha1_select               00433dd9 f   sshsha.obj
 0001:00032df2       _sha1_sw_new               00433df2 f   sshsha.obj
 0001:00032e36       _sha1_sw_copy              00433e36 f   sshsha.obj
 0001:00032e65       _sha1_sw_free              00433e65 f   sshsha.obj
 0001:00032e80       _sha1_sw_final             00433e80 f   sshsha.obj
 0001:00032ed3       _sha1_block_pad            00433ed3 f   sshsha.obj
 0001:00032f59       _sha1_hw_available_cached  00433f59 f   sshsha.obj
 0001:00032fbb       _sha1_ni_block             00433fbb f   sshsha.obj
 0001:000331fd       _sha1_ni_write             004341fd f   sshsha.obj
 0001:00033239       _sha1_sw_block             00434239 f   sshsha.obj
 0001:00033650       _sha1_sw_write             00434650 f   sshsha.obj
 0001:0003368c       _share_closing             0043468c f   sshshare.obj
 0001:000336c6       _share_receive             004346c6 f   sshshare.obj
 0001:000338a0       _share_listen_closing      004348a0 f   sshshare.obj
 0001:000338d1       _share_listen_accepting    004348d1 f   sshshare.obj
 0001:00033a44       _log_downstream            00434a44 f   sshshare.obj
 0001:00033a79       _log_general               00434a79 f   sshshare.obj
 0001:00033aa9       _send_packet_to_downstream 00434aa9 f   sshshare.obj
 0001:00033c70       _share_add_channel         00434c70 f   sshshare.obj
 0001:00033d08       _share_add_forwarding      00434d08 f   sshshare.obj
 0001:00033d52       _share_add_xchannel        00434d52 f   sshshare.obj
 0001:00033dc8       _share_begin_cleanup       00434dc8 f   sshshare.obj
 0001:00033de4       _share_xchannel_server_cmp 00434de4 f   sshshare.obj
 0001:00033de4       _share_channel_us_cmp      00434de4 f   sshshare.obj
 0001:00033dff       _share_connstate_free      00434dff f   sshshare.obj
 0001:00034019       _share_disconnect          00435019 f   sshshare.obj
 0001:00034069       _share_find_channel_by_server 00435069 f   sshshare.obj
 0001:0003408e       _share_find_halfchannel    0043508e f   sshshare.obj
 0001:000340b0       _share_find_unused_id      004350b0 f   sshshare.obj
 0001:000341a1       _share_find_xchannel_by_server 004351a1 f   sshshare.obj
 0001:000341c6       _share_forwarding_cmp      004351c6 f   sshshare.obj
 0001:000341f7       _share_got_pkt_from_downstream 004351f7 f   sshshare.obj
 0001:00034d95       _share_remove_channel      00435d95 f   sshshare.obj
 0001:00034de5       _share_remove_forwarding   00435de5 f   sshshare.obj
 0001:00034e05       _share_remove_halfchannel  00435e05 f   sshshare.obj
 0001:00034e25       _share_remove_xchannel     00435e25 f   sshshare.obj
 0001:00034e56       _share_send_verstring      00435e56 f   sshshare.obj
 0001:00034fe8       _share_try_cleanup         00435fe8 f   sshshare.obj
 0001:000351f7       _share_xchannel_add_message 004361f7 f   sshshare.obj
 0001:00035340       _share_xchannel_free       00436340 f   sshshare.obj
 0001:000356ed       _ssh_verstring_free        004366ed f   sshverstring.obj
 0001:00035730       _ssh_verstring_handle_input 00436730 f   sshverstring.obj
 0001:00035aa6       _ssh_verstring_handle_output 00436aa6 f   sshverstring.obj
 0001:00035ad8       _ssh_verstring_new_pktout  00436ad8 f   sshverstring.obj
 0001:00035af4       _ssh_detect_bugs           00436af4 f   sshverstring.obj
 0001:000360d2       _ssh_version_includes_v1   004370d2 f   sshverstring.obj
 0001:000360e8       _ssh_version_includes_v2   004370e8 f   sshverstring.obj
 0001:000360fe       _ssh_versioncmp            004370fe f   sshverstring.obj
 0001:0003624c       _ssh_verstring_send        0043724c f   sshverstring.obj
 0001:00036cbb       $LN115                     00437cbb     sshzlib.obj
 0001:00036cef       _lz77_advance              00437cef f   sshzlib.obj
 0001:00036daa       _lz77_compress             00437daa f   sshzlib.obj
 0001:00037139       _lz77_hash                 00438139 f   sshzlib.obj
 0001:0003716a       _outbits                   0043816a f   sshzlib.obj
 0001:000371d0       _zlib_emit_char            004381d0 f   sshzlib.obj
 0001:0003720a       _zlib_freetable            0043820a f   sshzlib.obj
 0001:0003725e       _zlib_huflookup            0043825e f   sshzlib.obj
 0001:000372c2       _zlib_literal              004382c2 f   sshzlib.obj
 0001:000372fd       _zlib_match                004382fd f   sshzlib.obj
 0001:0003746b       _zlib_mkonetab             0043846b f   sshzlib.obj
 0001:000375b3       _zlib_mktable              004385b3 f   sshzlib.obj
 0001:000376a2       _stripctrl_check_line_limit 004386a2 f   stripctrl.obj
 0001:00037756       _stripctrl_locale_BinarySink_write 00438756 f   stripctrl.obj
 0001:000378b1       _stripctrl_locale_put_wc   004388b1 f   stripctrl.obj
 0001:0003796c       _stripctrl_locale_try_consume 0043896c f   stripctrl.obj
 0001:000379ff       _stripctrl_new_common      004389ff f   stripctrl.obj
 0001:00037abf       _compare_timer_contexts    00438abf f   timing.obj
 0001:00037ad2       _compare_timers            00438ad2 f   timing.obj
 0001:00037b2c       _init_timers               00438b2c f   timing.obj
 0001:00037cbd       _add234_internal           00438cbd f   tree234.obj
 0001:00038221       _countnode234              00439221 f   tree234.obj
 0001:000382b3       _delpos234_internal        004392b3 f   tree234.obj
 0001:00038890       _freenode234               00439890 f   tree234.obj
 0001:00038fe7       _dupvprintf_inner          00439fe7 f   utils.obj
 0001:00039106       _host_strchr_internal      0043a106 f   utils.obj
 0001:000393b3       _strbuf_BinarySink_write   0043a3b3 f   utils.obj
 0001:000394f5       _strbuf_new_general        0043a4f5 f   utils.obj
 0001:00039569       _uninitialised_queue_idempotent_callback 0043a569 f   utils.obj
 0001:000395b6       _bisearch                  0043a5b6 f   wcwidth.obj
 0001:00039670       _wc_match_fragment         0043a670 f   wildcard.obj
 0001:000397e0       _wc_match_inner            0043a7e0 f   wildcard.obj
 0001:00039968       _console_askappend         0043a968 f   wincons.obj
 0001:00039a4c       _console_logging_error     0043aa4c f   wincons.obj
 0001:00039a74       _console_eventlog          0043aa74 f   wincons.obj
 0001:0003a0ab       _console_write             0043b0ab f   wincons.obj
 0001:0003a1ad       _localexp_to_exp_lifetime  0043b1ad f   wingss.obj
 0001:0003a6d4       _ssh_sspi_acquire_cred     0043b6d4 f   wingss.obj
 0001:0003a744       _ssh_sspi_bind_fns         0043b744 f   wingss.obj
 0001:0003a796       _ssh_sspi_display_status   0043b796 f   wingss.obj
 0001:0003a84a       _ssh_sspi_free_mic         0043b84a f   wingss.obj
 0001:0003a85a       _ssh_sspi_free_tok         0043b85a f   wingss.obj
 0001:0003a87c       _ssh_sspi_get_mic          0043b87c f   wingss.obj
 0001:0003a952       _ssh_sspi_import_name      0043b952 f   wingss.obj
 0001:0003a979       _ssh_sspi_indicate_mech    0043b979 f   wingss.obj
 0001:0003a98f       _ssh_sspi_init_sec_context 0043b98f f   wingss.obj
 0001:0003aa72       _ssh_sspi_release_cred     0043ba72 f   wingss.obj
 0001:0003aaa6       _ssh_sspi_release_name     0043baa6 f   wingss.obj
 0001:0003aac4       _ssh_sspi_verify_mic       0043bac4 f   wingss.obj
 0001:0003ab99       _handle_destroy            0043bb99 f   winhandl.obj
 0001:0003ae5d       _handle_input_threadfunc@4 0043be5d f   winhandl.obj
 0001:0003b098       _handle_output_threadfunc@4 0043c098 f   winhandl.obj
 0001:0003b1ba       _handle_throttle           0043c1ba f   winhandl.obj
 0001:0003b1e4       _handle_try_output         0043c1e4 f   winhandl.obj
 0001:0003b31e       _sk_handle_close           0043c31e f   winhsock.obj
 0001:0003b37d       _sk_handle_write           0043c37d f   winhsock.obj
 0001:0003b398       _sk_handle_write_oob       0043c398 f   winhsock.obj
 0001:0003b39d       _sk_handle_write_eof       0043c39d f   winhsock.obj
 0001:0003b3ae       _sk_handle_set_frozen      0043c3ae f   winhsock.obj
 0001:0003b433       _sk_handle_peer_info       0043c433 f   winhsock.obj
 0001:0003b4be       _handle_gotdata            0043c4be f   winhsock.obj
 0001:0003b556       _handle_sentdata           0043c556 f   winhsock.obj
 0001:0003b59a       _handle_socket_unfreeze    0043c59a f   winhsock.obj
 0001:0003b63f       _handle_stderr             0043c63f f   winhsock.obj
 0001:0003b765       _errstring_compare         0043c765 f   winmisc.obj
 0001:0003b76a       _errstring_find            0043c76a f   winmisc.obj
 0001:0003bbd2       _sk_net_plug               0043cbd2 f   winnet.obj
 0001:0003bbe5       _sk_net_close              0043cbe5 f   winnet.obj
 0001:0003bc48       _sk_net_write              0043cc48 f   winnet.obj
 0001:0003bc99       _sk_net_write_oob          0043cc99 f   winnet.obj
 0001:0003bd11       _sk_net_write_eof          0043cd11 f   winnet.obj
 0001:0003bd4c       _sk_net_set_frozen         0043cd4c f   winnet.obj
 0001:0003bd8c       _sk_net_socket_error       0043cd8c f   winnet.obj
 0001:0003bd94       _sk_net_peer_info          0043cd94 f   winnet.obj
 0001:0003bee5       _cmpforsearch              0043cee5 f   winnet.obj
 0001:0003befb       _cmpfortree                0043cefb f   winnet.obj
 0001:0003bf43       _ipv4_is_local_addr        0043cf43 f   winnet.obj
 0001:0003c65f       _sk_extractaddr_tmp        0043d65f f   winnet.obj
 0001:0003cf91       _sk_net_accept             0043df91 f   winnet.obj
 0001:0003d3c0       _sk_nextaddr               0043e3c0 f   winnet.obj
 0001:0003d434       _sk_startup                0043e434 f   winnet.obj
 0001:0003d469       _socket_error_callback     0043e469 f   winnet.obj
 0001:0003d4d2       _try_connect               0043e4d2 f   winnet.obj
 0001:0003da5b       $LN41                      0043ea5b     winnet.obj
 0001:0003daeb       $LN40                      0043eaeb     winnet.obj
 0001:0003e018       _sk_namedpipeserver_plug   0043f018 f   winnps.obj
 0001:0003e02b       _sk_namedpipeserver_close  0043f02b f   winnps.obj
 0001:0003e089       _sk_namedpipeserver_socket_error 0043f089 f   winnps.obj
 0001:0003e091       _create_named_pipe         0043f091 f   winnps.obj
 0001:0003e0f4       _named_pipe_accept         0043f0f4 f   winnps.obj
 0001:0003e10d       _named_pipe_accept_loop    0043f10d f   winnps.obj
 0001:0003e1ba       _named_pipe_connect_callback 0043f1ba f   winnps.obj
 0001:0003ebbf       _really_restrict_process_acl 0043fbbf f   winsecur.obj
 0001:0003eda8       _command_read_thread@4     0043fda8 f   winsftp.obj
 0001:0003f891       _make_name                 00440891 f   winshare.obj
 0001:0003f8bd       _obfuscate_name            004408bd f   winshare.obj
 0001:0003fbd5       _access_random_seed        00440bd5 f   winstore.obj
 0001:0003fe2b       _hostkey_regname           00440e2b f   winstore.obj
 0001:000401bb       _try_random_seed           004411bb f   winstore.obj
 0001:00040251       _try_random_seed_and_free  00441251 f   winstore.obj
 0001:00040580       _x11_closing               00441580 f   x11fwd.obj
 0001:000405d7       _x11_receive               004415d7 f   x11fwd.obj
 0001:000405f5       _x11_sent                  004415f5 f   x11fwd.obj
 0001:00040609       _x11_chan_free             00441609 f   x11fwd.obj
 0001:00040668       _x11_send                  00441668 f   x11fwd.obj
 0001:000409a0       _x11_send_eof              004419a0 f   x11fwd.obj
 0001:000409e3       _x11_set_input_wanted      004419e3 f   x11fwd.obj
 0001:00040a28       _x11_log_close_msg         00441a28 f   x11fwd.obj
 0001:00040a34       _GET_16BIT_X11             00441a34 f   x11fwd.obj
 0001:00040a5a       _PUT_16BIT_X11             00441a5a f   x11fwd.obj
 0001:00040fec       _x11_parse_ip              00441fec f   x11fwd.obj
 0001:00041054       _x11_send_init_error       00442054 f   x11fwd.obj
 0001:000413e6       _x11_verify                004423e6 f   x11fwd.obj
 0001:0004160b       _xdmseen_cmp               0044260b f   x11fwd.obj
 0001:00041650       $$000000                   00442650     LIBCMT:chkstk.obj
 0001:00041680       $$000000                   00442680     LIBCMT:llmul.obj
 0001:000416c0       $$000000                   004426c0     LIBCMT:llshl.obj
 0001:000416e0       $$000000                   004426e0     LIBCMT:ullshr.obj
 0001:00041900       $$000000                   00442900     LIBCMT:ulldiv.obj
 0001:00041968       ?pre_c_initialization@@YAHXZ 00442968 f   LIBCMT:exe_main.obj
 0001:00041a13       ?post_pgo_initialization@@YAHXZ 00442a13 f   LIBCMT:exe_main.obj
 0001:00041a1b       ?pre_cpp_initialization@@YAXXZ 00442a1b f   LIBCMT:exe_main.obj
 0001:00041a2d       ?__scrt_common_main_seh@@YAHXZ 00442a2d f   LIBCMT:exe_main.obj
 0001:00041bb9       ?find_pe_section@@YAPAU_IMAGE_SECTION_HEADER@@QAEI@Z 00442bb9 f   LIBCMT:utility.obj
 0001:00041e0a       ___get_entropy             00442e0a f   LIBCMT:gs_support.obj
 0001:00042029       ?is_managed_app@@YA_NXZ    00443029 f   libucrt:exit.obj
 0001:00042120       $$000000                   00443120     LIBCMT:sehprolg4.obj
 0001:00042330       $$000000                   00443330     libvcruntime:memchr.obj
 0001:000423e0       $$000000                   004433e0     libvcruntime:memcpy.obj
 0001:00042644       TrailingUpVec              00443644     libvcruntime:memcpy.obj
 0001:000426f0       TrailingDownVec            004436f0     libvcruntime:memcpy.obj
 0001:00042960       $$000000                   00443960     libvcruntime:memmove.obj
 0001:00042bc4       TrailingUpVec              00443bc4     libvcruntime:memmove.obj
 0001:00042c70       TrailingDownVec            00443c70     libvcruntime:memmove.obj
 0001:00042ee0       $$000000                   00443ee0     libvcruntime:strchr.obj
 0001:00043010       $$000000                   00444010     libvcruntime:strrchr.obj
 0001:00043150       $$000000                   00444150     libvcruntime:memset.obj
 0001:000441ce       $LN1241                    004451ce     libvcruntime:memcmp.obj
 0001:00044250       $$000000                   00445250     libvcruntime:strstr.obj
 0001:000444c0       _ValidateLocalCookies      004454c0 f   libvcruntime:chandler4.obj
 0001:000446d0       $$000000                   004456d0     libvcruntime:exsup4.obj
 0001:00044760       __unwind_handler4          00445760 f   libvcruntime:exsup4.obj
 0001:00044a10       $$000000                   00445a10     libvcruntime:exsup.obj
 0001:00044a31       __unwind_handler           00445a31 f   libvcruntime:exsup.obj
 0001:00044b4e       ?try_get_first_available_module@@YAPAUHINSTANCE__@@QBW4module_id@?A0x09dcfcb8@@0@Z 00445b4e f   libvcruntime:winapi_downlevel.obj
 0001:00044bfa       ?try_get_function@@YAPAXW4function_id@?A0x09dcfcb8@@QBDQBW4module_id@2@2@Z 00445bfa f   libvcruntime:winapi_downlevel.obj
 0001:00045120       ??$BuildCatchObjectHelperInternal@V__FrameHandler3@@@@YAHPAUEHExceptionRecord@@PAXPBU_s_HandlerType@@PBU_s_CatchableType@@@Z 00446120 f   libvcruntime:frame.obj
 0001:0004525e       ??$BuildCatchObjectInternal@V__FrameHandler3@@@@YAXPAUEHExceptionRecord@@PAXPBU_s_HandlerType@@PBU_s_CatchableType@@@Z 0044625e f   libvcruntime:frame.obj
 0001:000452f7       ??$CatchIt@V__FrameHandler3@@@@YAXPAUEHExceptionRecord@@PAUEHRegistrationNode@@PAU_CONTEXT@@PAXPBU_s_FuncInfo@@PBU_s_HandlerType@@PBU_s_CatchableType@@PBU_s_TryBlockMapEntry@@H1EE@Z 004462f7 f   libvcruntime:frame.obj
 0001:00045377       ??$FindHandler@V__FrameHandler3@@@@YAXPAUEHExceptionRecord@@PAUEHRegistrationNode@@PAU_CONTEXT@@PAXPBU_s_FuncInfo@@EH1@Z 00446377 f   libvcruntime:frame.obj
 0001:00045716       ??$FindHandlerForForeignException@V__FrameHandler3@@@@YAXPAUEHExceptionRecord@@PAUEHRegistrationNode@@PAU_CONTEXT@@PAXPBU_s_FuncInfo@@HH1@Z 00446716 f   libvcruntime:frame.obj
 0001:00045a98       ?CallCatchBlock@@YAPAXPAUEHExceptionRecord@@PAUEHRegistrationNode@@PAU_CONTEXT@@PBU_s_FuncInfo@@PAXHK@Z 00446a98 f   libvcruntime:frame.obj
 0001:00045c5c       ?CallUnexpected@@YAXPBU_s_ESTypeList@@@Z 00446c5c f   libvcruntime:frame.obj
 0001:00045c7c       __catch$?CallUnexpected@@YAXPBU_s_ESTypeList@@@Z$0 00446c7c f   libvcruntime:frame.obj
 0001:00045c96       ?ExFilterRethrow@@YAHPAU_EXCEPTION_POINTERS@@@Z 00446c96 f   libvcruntime:frame.obj
 0001:00045de0       ?IsInExceptionSpec@@YAEPAUEHExceptionRecord@@PBU_s_ESTypeList@@@Z 00446de0 f   libvcruntime:frame.obj
 0001:00045ec0       $$000000                   00446ec0     libvcruntime:lowhelpr.obj
 0001:00046180       ??$common_assert_to_message_box@_W@@YAXQB_W0IQAX@Z 00447180 f   libucrt:assert.obj
 0001:0004621a       ??$common_assert_to_message_box_build_string@_W@@YAXQA_WIQB_W1IQAX@Z 0044721a f   libucrt:assert.obj
 0001:000466fb       ??$common_assert_to_stderr@_W@@YAXQB_W0I@Z 004476fb f   libucrt:assert.obj
 0001:000467a7       ?common_assert_to_stderr_direct@@YAXQB_W0I@Z 004477a7 f   libucrt:assert.obj
 0001:00046856       ?get_assert_format@@YAPB_W_W@Z 00447856 f   libucrt:assert.obj
 0001:00046913       _memcpy_s                  00447913 f   libucrt:cfout.obj
 0001:00046913       _memcpy_s                  00447913 f   libucrt:mbctype.obj
 0001:00046913       _memcpy_s                  00447913 f   libucrt:assert.obj
 0001:00046913       _memcpy_s                  00447913 f   libucrt:input.obj
 0001:00046913       _memcpy_s                  00447913 f   libucrt:fread.obj
 0001:000469c0       $$000000                   004479c0     libucrt:strlen.obj
 0001:00046b46       ??$common_fsopen@D@@YAPAU_iobuf@@QBD0H@Z 00447b46 f   libucrt:fopen.obj
 0001:00047bc0       $$000000                   00448bc0     libucrt:strcmp.obj
 0001:00047c50       $$000000                   00448c50     libucrt:strncmp.obj
 0001:00047cd0       $$000000                   00448cd0     libucrt:strspn.obj
 0001:00047d16       ??$?RV<lambda_2866be3712abc81a800a822484c830d8>@@AAV<lambda_39ca0ed439415581b5b15c265174cece>@@V<lambda_2b24c74d71094a6cd0cb82e44167d71b>@@@?$__crt_seh_guarded_call@X@@QAEX$$QAV<lambda_2866be3712abc81a800a822484c830d8>@@AAV<lambda_39ca0ed439415581b5b15c265174cece>@@$$QAV<lambda_2b24c74d71094a6cd0cb82e44167d71b>@@@Z 00448d16 f   libucrt:fflush.obj
 0001:00047da2       ??$?RV<lambda_2cc53f568c5a2bb6f192f930a45d44ea>@@AAV<lambda_ab61a845afdef5b7c387490eaf3616ee>@@V<lambda_c2ffc0b7726aa6be21d5f0026187e748>@@@?$__crt_seh_guarded_call@X@@QAEX$$QAV<lambda_2cc53f568c5a2bb6f192f930a45d44ea>@@AAV<lambda_ab61a845afdef5b7c387490eaf3616ee>@@$$QAV<lambda_c2ffc0b7726aa6be21d5f0026187e748>@@@Z 00448da2 f   libucrt:fflush.obj
 0001:00047e4e       ??$?RV<lambda_6d20deecaf4856105ebacbad442d1079>@@AAV<lambda_9a32fed5bf61b6b509b2d3f6003082a1>@@V<lambda_63ea2239ed67c638ddbae41947fdf875>@@@?$__crt_seh_guarded_call@H@@QAEH$$QAV<lambda_6d20deecaf4856105ebacbad442d1079>@@AAV<lambda_9a32fed5bf61b6b509b2d3f6003082a1>@@$$QAV<lambda_63ea2239ed67c638ddbae41947fdf875>@@@Z 00448e4e f   libucrt:fflush.obj
 0001:00047eae       ?common_flush_all@@YAH_N@Z 00448eae f   libucrt:fflush.obj
 0001:00047efb       ?common_flush_all_should_try_to_flush_stream@@YA_NV__crt_stdio_stream@@QAH@Z 00448efb f   libucrt:fflush.obj
 0001:00047f2e       ?is_stream_flushable_or_commitable@@YA_NJ@Z 00448f2e f   libucrt:fflush.obj
 0001:0004805e       ??$?RV<lambda_4ac01c32aa5b53846f05d0620572872e>@@AAV<lambda_5856287d7ecd2be6c9197bb4007c3f6e>@@V<lambda_e7a9868ed898c75c0f0637692d94351a>@@@?$__crt_seh_guarded_call@I@@QAEI$$QAV<lambda_4ac01c32aa5b53846f05d0620572872e>@@AAV<lambda_5856287d7ecd2be6c9197bb4007c3f6e>@@$$QAV<lambda_e7a9868ed898c75c0f0637692d94351a>@@@Z 0044905e f   libucrt:fwrite.obj
 0001:000480b9       ??R<lambda_5856287d7ecd2be6c9197bb4007c3f6e>@@QBEIXZ 004490b9 f   libucrt:fwrite.obj
 0001:000482e0       ??$?RV<lambda_9b2bd5c6bb91c5c032542faa5c3cb611>@@AAV<lambda_be68057ced330f874c40fe9612235e36>@@V<lambda_dbd837d1c0b7fc6e2d81c287c81c071b>@@@?$__crt_seh_guarded_call@H@@QAEH$$QAV<lambda_9b2bd5c6bb91c5c032542faa5c3cb611>@@AAV<lambda_be68057ced330f874c40fe9612235e36>@@$$QAV<lambda_dbd837d1c0b7fc6e2d81c287c81c071b>@@@Z 004492e0 f   libucrt:output.obj
 0001:0004833b       ??$?RV<lambda_c29ee0499b841886b80d843682cc403a>@@AAV<lambda_0be4ab1c2a6918fda4e39227d83ea893>@@V<lambda_5a3ed3da325c8ea037a470278c0f2d16>@@@?$__crt_seh_guarded_call@H@@QAEH$$QAV<lambda_c29ee0499b841886b80d843682cc403a>@@AAV<lambda_0be4ab1c2a6918fda4e39227d83ea893>@@$$QAV<lambda_5a3ed3da325c8ea037a470278c0f2d16>@@@Z 0044933b f   libucrt:output.obj
 0001:00048396       ??$common_vsprintf@Vstandard_base@__crt_stdio_output@@D@@YAH_KQADIQBDQAU__crt_locale_pointers@@1@Z 00449396 f   libucrt:output.obj
 0001:00048514       ??$common_vsprintf@Vstandard_base@__crt_stdio_output@@_W@@YAH_KQA_WIQB_WQAU__crt_locale_pointers@@QAD@Z 00449514 f   libucrt:output.obj
 0001:00048cab       ??R<lambda_0be4ab1c2a6918fda4e39227d83ea893>@@QBEHXZ 00449cab f   libucrt:output.obj
 0001:00048d6a       ??R<lambda_be68057ced330f874c40fe9612235e36>@@QBEHXZ 00449d6a f   libucrt:output.obj
 0001:0004913f       $LN53                      0044a13f     libucrt:output.obj
 0001:00049253       $LN53                      0044a253     libucrt:output.obj
 0001:0004936f       $LN53                      0044a36f     libucrt:output.obj
 0001:0004948b       $LN53                      0044a48b     libucrt:output.obj
 0001:0004a6ad       $LN20                      0044b6ad     libucrt:output.obj
 0001:0004a6c1       $LN17                      0044b6c1     libucrt:output.obj
 0001:0004b911       ??$__acrt_convert_wcs_mbs_cp@D_WV<lambda_62f6974d9771e494a5ea317cc32e971c>@@U__crt_win32_buffer_internal_dynamic_resizing@@@@YAHQBDAAV?$__crt_win32_buffer@_WU__crt_win32_buffer_internal_dynamic_resizing@@@@ABV<lambda_62f6974d9771e494a5ea317cc32e971c>@@I@Z 0044c911 f   libucrt:strftime.obj
 0001:0004b9c3       ??$__acrt_convert_wcs_mbs_cp@_WDV<lambda_0fec1a7b3f42a53036604e18c2d5e07e>@@U__crt_win32_buffer_no_resizing@@@@YAHQB_WAAV?$__crt_win32_buffer@DU__crt_win32_buffer_no_resizing@@@@ABV<lambda_0fec1a7b3f42a53036604e18c2d5e07e>@@I@Z 0044c9c3 f   libucrt:getmodulefilenamea.obj
 0001:0004b9c3       ??$__acrt_convert_wcs_mbs_cp@_WDV<lambda_0fec1a7b3f42a53036604e18c2d5e07e>@@U__crt_win32_buffer_no_resizing@@@@YAHQB_WAAV?$__crt_win32_buffer@DU__crt_win32_buffer_no_resizing@@@@ABV<lambda_0fec1a7b3f42a53036604e18c2d5e07e>@@I@Z 0044c9c3 f   libucrt:strftime.obj
 0001:0004bca0       $$000000                   0044cca0     libucrt:strcat.obj
 0001:0004bdd0       $$000000                   0044cdd0     libucrt:strcspn.obj
 0001:0004be16       ??$?RV<lambda_65fd67b065f6eb2f69d2b40e70f741d1>@@AAV<lambda_0bd0bd1e46f8138169959d81163ebf0c>@@V<lambda_3dd5c5b82bb549ede7d0dd5b9a094995>@@@?$__crt_seh_guarded_call@H@@QAEH$$QAV<lambda_65fd67b065f6eb2f69d2b40e70f741d1>@@AAV<lambda_0bd0bd1e46f8138169959d81163ebf0c>@@$$QAV<lambda_3dd5c5b82bb549ede7d0dd5b9a094995>@@@Z 0044ce16 f   libucrt:fputs.obj
 0001:0004be71       ??R<lambda_0bd0bd1e46f8138169959d81163ebf0c>@@QBEHXZ 0044ce71 f   libucrt:fputs.obj
 0001:0004c2f4       ??$common_vsscanf@D@@YAH_KQBDI1QAU__crt_locale_pointers@@QAD@Z 0044d2f4 f   libucrt:input.obj
 0001:0004cd2b       $LN38                      0044dd2b     libucrt:input.obj
 0001:0004ce4f       $LN37                      0044de4f     libucrt:input.obj
 0001:0004d621       ??R<lambda_f1fa4c266c18b246f3ed9c36247dab4f>@@QBE_NXZ 0044e621 f   libucrt:input.obj
 0001:0004d621       ??R<lambda_f765c90ab33e8386abf09c0f079d37e9>@@QBE_NXZ 0044e621 f   libucrt:input.obj
 0001:0004d621       ??R<lambda_644f8ab42ed3fd1d660977a2364b3a7d>@@QBE_NXZ 0044e621 f   libucrt:input.obj
 0001:00050193       $LN22                      00451193     libucrt:input.obj
 0001:000508d8       $LN19                      004518d8     libucrt:input.obj
 0001:000508ec       $LN16                      004518ec     libucrt:input.obj
 0001:00050c10       ?swap@@YAXPAD0I@Z          00451c10 f   libucrt:qsort.obj
 0001:00051094       ??$?RV<lambda_03b1d95aef87969028cfba75ccab2455>@@AAV<lambda_6e4b09c48022b2350581041d5f6b0c4c>@@V<lambda_22bdf7517842c4b3e53723af5aa32b9e>@@@?$__crt_seh_guarded_call@X@@QAEX$$QAV<lambda_03b1d95aef87969028cfba75ccab2455>@@AAV<lambda_6e4b09c48022b2350581041d5f6b0c4c>@@$$QAV<lambda_22bdf7517842c4b3e53723af5aa32b9e>@@@Z 00452094 f   libucrt:exit.obj
 0001:00051100       ??R<lambda_6e4b09c48022b2350581041d5f6b0c4c>@@QBE@XZ 00452100 f   libucrt:exit.obj
 0001:000511da       ?atexit_exception_filter@@YAHK@Z 004521da f   libucrt:exit.obj
 0001:000511ed       ?common_exit@@YAXHW4_crt_exit_cleanup_mode@@W4_crt_exit_return_mode@@@Z 004521ed f   libucrt:exit.obj
 0001:00051251       ?exit_or_terminate_process@@YAXI@Z 00452251 f   libucrt:exit.obj
 0001:00051293       ?try_cor_exit_process@@YAXI@Z 00452293 f   libucrt:exit.obj
 0001:00051365       ??$common_system@D@@YAHQBD@Z 00452365 f   libucrt:system.obj
 0001:000515c3       ??$common_timespec_get@U_timespec64@@@@YAHQAU_timespec64@@H@Z 004525c3 f   libucrt:time.obj
 0001:000517d5       ??$common_fgets@D@@YAPADQADHV__crt_stdio_stream@@@Z 004527d5 f   libucrt:fgets.obj
 0001:00051cd2       ??$?RV<lambda_646e26742ed01d5bc03234f44bb6d3d3>@@AAV<lambda_b37934c380d97b75fd242ea49540127a>@@V<lambda_bbd9d45274666fbb50f81a29ad795c13>@@@?$__crt_seh_guarded_call@PAD@@QAEPAD$$QAV<lambda_646e26742ed01d5bc03234f44bb6d3d3>@@AAV<lambda_b37934c380d97b75fd242ea49540127a>@@$$QAV<lambda_bbd9d45274666fbb50f81a29ad795c13>@@@Z 00452cd2 f   libucrt:setlocale.obj
 0001:00051d2d       ??R<lambda_b37934c380d97b75fd242ea49540127a>@@QBEPADXZ 00452d2d f   libucrt:setlocale.obj
 0001:00051e91       _call_wsetlocale           00452e91 f   libucrt:setlocale.obj
 0001:00051fcd       ??R<lambda_3d301b9e52f5099be73030e1f0bf487e>@@QBEIPBD@Z 00452fcd f   libucrt:mbrtowc.obj
 0001:00052134       ?_mbrtowc_s_l@@YAHPAHPA_WPBDIPAU_Mbstatet@@PAU__crt_locale_pointers@@@Z 00453134 f   libucrt:mbrtowc.obj
 0001:00052470       ?_wcrtomb_s_l@@YAHQAHQADI_WQAU_Mbstatet@@QAU__crt_locale_pointers@@@Z 00453470 f   libucrt:wcrtomb.obj
 0001:00052602       ??$common_dupenv_s@D@@YAHQAPADQAIQBDH2H@Z 00453602 f   libucrt:getenv.obj
 0001:00052667       ??$common_dupenv_s_nolock@D@@YAHQAPADQAIQBDH2H@Z 00453667 f   libucrt:getenv.obj
 0001:0005270a       ??$common_getenv@D@@YAPADQBD@Z 0045370a f   libucrt:getenv.obj
 0001:00052789       ??$common_getenv_nolock@D@@YAPADQBD@Z 00453789 f   libucrt:getenv.obj
 0001:000527f6       ??$common_getenv_s@D@@YAHQAIQADIQBD@Z 004537f6 f   libucrt:getenv.obj
 0001:00052855       ??$common_getenv_s_nolock@D@@YAHQAIQADIQBD@Z 00453855 f   libucrt:getenv.obj
 0001:00052930       $$000000                   00453930     libucrt:strncpy.obj
 0001:00052c2f       ??$common_configure_argv@D@@YAHW4_crt_argv_mode@@@Z 00453c2f f   libucrt:argv_parsing.obj
 0001:00052d65       ??$parse_command_line@D@@YAXPADPAPAD0PAI2@Z 00453d65 f   libucrt:argv_parsing.obj
 0001:00052f36       ??$common_get_or_create_environment_nolock@D@@YAPAPADXZ 00453f36 f   libucrt:environment_initialization.obj
 0001:00052f62       ??$common_initialize_environment_nolock@D@@YAHXZ 00453f62 f   libucrt:environment_initialization.obj
 0001:00052fb5       ??$create_environment@D@@YAQAPADQAD@Z 00453fb5 f   libucrt:environment_initialization.obj
 0001:00053085       ??$free_environment@_W@@YAXQAPA_W@Z 00454085 f   libucrt:environment_initialization.obj
 0001:00053085       ??$free_environment@D@@YAXQAPAD@Z 00454085 f   libucrt:environment_initialization.obj
 0001:000530b4       ??$initialize_environment_by_cloning_nolock@D@@YAHXZ 004540b4 f   libucrt:environment_initialization.obj
 0001:00053160       ??$uninitialize_environment_internal@D@@YAXAAPAPAD@Z 00454160 f   libucrt:environment_initialization.obj
 0001:0005317b       ??$uninitialize_environment_internal@_W@@YAXAAPAPA_W@Z 0045417b f   libucrt:environment_initialization.obj
 0001:000533bc       ??$?RV<lambda_135d2772fca65dc1248eeaa1b56e886a>@@AAV<lambda_2a444430fde8c29194d880d93eed5e8f>@@AAV<lambda_8dff2cf36a5417162780cd64fa2883ef>@@@?$__crt_seh_guarded_call@X@@QAEX$$QAV<lambda_135d2772fca65dc1248eeaa1b56e886a>@@AAV<lambda_2a444430fde8c29194d880d93eed5e8f>@@AAV<lambda_8dff2cf36a5417162780cd64fa2883ef>@@@Z 004543bc f   libucrt:wsetlocale.obj
 0001:00053401       ??$?RV<lambda_4fdada1b837b2abbf20876fac97688ad>@@AAV<lambda_b57350f2640456a0859d250846f69caf>@@V<lambda_eed5e4f92b5b7d55fa22c48c484aaa54>@@@?$__crt_seh_guarded_call@X@@QAEX$$QAV<lambda_4fdada1b837b2abbf20876fac97688ad>@@AAV<lambda_b57350f2640456a0859d250846f69caf>@@$$QAV<lambda_eed5e4f92b5b7d55fa22c48c484aaa54>@@@Z 00454401 f   libucrt:wsetlocale.obj
 0001:0005344e       ??$?RV<lambda_e5124f882df8998aaf41531e079ba474>@@AAV<lambda_3e16ef9562a7dcce91392c22ab16ea36>@@V<lambda_e25ca0880e6ef98be67edffd8c599615>@@@?$__crt_seh_guarded_call@X@@QAEX$$QAV<lambda_e5124f882df8998aaf41531e079ba474>@@AAV<lambda_3e16ef9562a7dcce91392c22ab16ea36>@@$$QAV<lambda_e25ca0880e6ef98be67edffd8c599615>@@@Z 0045444e f   libucrt:wsetlocale.obj
 0001:00053536       ??R<lambda_2a444430fde8c29194d880d93eed5e8f>@@QBE@XZ 00454536 f   libucrt:wsetlocale.obj
 0001:000535a0       ??R<lambda_b57350f2640456a0859d250846f69caf>@@QBEXXZ 004545a0 f   libucrt:wsetlocale.obj
 0001:000539cb       __copytlocinfo_nolock      004549cb f   libucrt:wsetlocale.obj
 0001:000539fa       __expandlocale             004549fa f   libucrt:wsetlocale.obj
 0001:00053e84       __wsetlocale_get_all       00454e84 f   libucrt:wsetlocale.obj
 0001:0005401f       __wsetlocale_nolock        0045501f f   libucrt:wsetlocale.obj
 0001:0005430f       __wsetlocale_set_cat       0045530f f   libucrt:wsetlocale.obj
 0001:000546d6       _get_default_code_page     004556d6 f   libucrt:wsetlocale.obj
 0001:00054705       _parse_bcp47               00455705 f   libucrt:wsetlocale.obj
 0001:000548ef       _parse_bcp47_code_page     004558ef f   libucrt:wsetlocale.obj
 0001:0005492e       _parse_bcp47_language      0045592e f   libucrt:wsetlocale.obj
 0001:000549a0       _parse_bcp47_region        004559a0 f   libucrt:wsetlocale.obj
 0001:00054a59       _parse_bcp47_script        00455a59 f   libucrt:wsetlocale.obj
 0001:00054ac9       _string_is_alpha           00455ac9 f   libucrt:wsetlocale.obj
 0001:00054b42       ??$?RV<lambda_69a2805e680e0e292e8ba93315fe43a8>@@AAV<lambda_f03950bc5685219e0bcd2087efbe011e>@@V<lambda_03fcd07e894ec930e3f35da366ca99d6>@@@?$__crt_seh_guarded_call@H@@QAEH$$QAV<lambda_69a2805e680e0e292e8ba93315fe43a8>@@AAV<lambda_f03950bc5685219e0bcd2087efbe011e>@@$$QAV<lambda_03fcd07e894ec930e3f35da366ca99d6>@@@Z 00455b42 f   libucrt:onexit.obj
 0001:00054b9d       ??$?RV<lambda_8e746cf0007f6ed984d6f78af1fec997>@@AAV<lambda_22ebabd17bc4fa466a2aca6d8deb888d>@@V<lambda_18ed0c0b38a6dc0daf1e7ac6d6adf05e>@@@?$__crt_seh_guarded_call@H@@QAEH$$QAV<lambda_8e746cf0007f6ed984d6f78af1fec997>@@AAV<lambda_22ebabd17bc4fa466a2aca6d8deb888d>@@$$QAV<lambda_18ed0c0b38a6dc0daf1e7ac6d6adf05e>@@@Z 00455b9d f   libucrt:onexit.obj
 0001:00054bf8       ??R<lambda_22ebabd17bc4fa466a2aca6d8deb888d>@@QBEHXZ 00455bf8 f   libucrt:onexit.obj
 0001:00054d21       ??R<lambda_f03950bc5685219e0bcd2087efbe011e>@@QBEHXZ 00455d21 f   libucrt:onexit.obj
 0001:00054e9a       _initialize_global_variables 00455e9a f   libucrt:initialization.obj
 0001:00054ea7       _initialize_c              00455ea7 f   libucrt:initialization.obj
 0001:00054ec1       _uninitialize_environment  00455ec1 f   libucrt:initialization.obj
 0001:00054ec9       _initialize_pointers       00455ec9 f   libucrt:initialization.obj
 0001:00054ef7       _uninitialize_vcruntime    00455ef7 f   libucrt:initialization.obj
 0001:00054f00       _uninitialize_allocated_memory 00455f00 f   libucrt:initialization.obj
 0001:00054f17       _uninitialize_allocated_io_buffers 00455f17 f   libucrt:initialization.obj
 0001:00054f67       ??R<lambda_af42a3ee9806e9a7305d451646e05244>@@QBEXAAPAU__crt_multibyte_data@@@Z 00455f67 f   libucrt:initialization.obj
 0001:0005538d       ??$common_xtox@K_W@@YAHKQA_WII_N@Z 0045638d f   libucrt:xtoa.obj
 0001:00055440       ??$common_xtox_s@K_W@@YAHKQA_WII_N@Z 00456440 f   libucrt:xtoa.obj
 0001:000555fd       ??$common_tcsncat_s@_W@@YAHQA_WIQB_WI@Z 004565fd f   libucrt:wcsncat_s.obj
 0001:00055838       ??$common_show_message_box@_W@@YAHQB_W0I@Z 00456838 f   libucrt:crtmbox.obj
 0001:000558c1       ??$?RV<lambda_70c0770dcc4f6ec6272bb01dc82d3c91>@@AAV<lambda_ca71763b3c0644891230e4f79ea54fa6>@@V<lambda_ca266f0f09348b8765c113e3a39a2bc1>@@@?$__crt_seh_guarded_call@H@@QAEH$$QAV<lambda_70c0770dcc4f6ec6272bb01dc82d3c91>@@AAV<lambda_ca71763b3c0644891230e4f79ea54fa6>@@$$QAV<lambda_ca266f0f09348b8765c113e3a39a2bc1>@@@Z 004568c1 f   libucrt:setvbuf.obj
 0001:0005591c       ??R<lambda_ca71763b3c0644891230e4f79ea54fa6>@@QBEHXZ 0045691c f   libucrt:setvbuf.obj
 0001:000559b6       ?set_buffer@@YAHV__crt_stdio_stream@@QADIH@Z 004569b6 f   libucrt:setvbuf.obj
 0001:00055a6b       ??$?RV<lambda_cbab9ec6f41b0180b23cc171c22676b0>@@AAV<lambda_44731a7d0e6d81c3e6aa82d741081786>@@V<lambda_4b292cb8dd18144e164572427af410ab>@@@?$__crt_seh_guarded_call@P6AXH@Z@@QAEP6AXH@Z$$QAV<lambda_cbab9ec6f41b0180b23cc171c22676b0>@@AAV<lambda_44731a7d0e6d81c3e6aa82d741081786>@@$$QAV<lambda_4b292cb8dd18144e164572427af410ab>@@@Z 00456a6b f   libucrt:signal.obj
 0001:00055acf       ?get_global_action_nolock@@YAPAP6AXH@ZH@Z 00456acf f   libucrt:signal.obj
 0001:00055b11       ?siglookup@@YAPAU__crt_signal_action_t@@HQAU1@@Z 00456b11 f   libucrt:signal.obj
 0001:00055dbc       ??$?RV<lambda_218ce3db14220d0be481dae8ef3383b6>@@AAV<lambda_628dfdc04ba53c8bfc02c9951375f3f5>@@V<lambda_57dc472bd5c9d5f3b2cbca59b8a843ae>@@@?$__crt_seh_guarded_call@H@@QAEH$$QAV<lambda_218ce3db14220d0be481dae8ef3383b6>@@AAV<lambda_628dfdc04ba53c8bfc02c9951375f3f5>@@$$QAV<lambda_57dc472bd5c9d5f3b2cbca59b8a843ae>@@@Z 00456dbc f   libucrt:close.obj
 0001:0005603c       ?find_or_allocate_unused_stream_nolock@@YA?AV__crt_stdio_stream@@XZ 0045703c f   libucrt:stream.obj
 0001:00056368       ??$common_openfile@D@@YAPAU_iobuf@@QBD0HV__crt_stdio_stream@@@Z 00457368 f   libucrt:openfile.obj
 0001:0005650a       ??$translate_text_mode_nolock@D@@YAHHQADI@Z 0045750a f   libucrt:read.obj
 0001:0005666b       ??$translate_text_mode_nolock@_W@@YAHHQA_WI@Z 0045766b f   libucrt:read.obj
 0001:0005683c       ?translate_ansi_or_utf8_nolock@@YAHHQADIQA_WI@Z 0045783c f   libucrt:read.obj
 0001:00056993       ?translate_utf16_from_console_nolock@@YAHHQA_WI@Z 00457993 f   libucrt:read.obj
 0001:00056ed2       ??$common_refill_and_read_nolock@D@@YAHV__crt_stdio_stream@@@Z 00457ed2 f   libucrt:_filbuf.obj
 0001:00057156       ??$?RV<lambda_15ade71b0218206bbe3333a0c9b79046>@@AAV<lambda_da44e0f8b0f19ba52fefafb335991732>@@V<lambda_207f2d024fc103971653565357d6cd41>@@@?$__crt_seh_guarded_call@X@@QAEX$$QAV<lambda_15ade71b0218206bbe3333a0c9b79046>@@AAV<lambda_da44e0f8b0f19ba52fefafb335991732>@@$$QAV<lambda_207f2d024fc103971653565357d6cd41>@@@Z 00458156 f   libucrt:per_thread_data.obj
 0001:000571a8       ??$?RV<lambda_38edbb1296d33220d7e4dd0ed76b244a>@@AAV<lambda_5ce1d447e08cb34b2473517608e21441>@@V<lambda_fb385d3da700c9147fc39e65dd577a8c>@@@?$__crt_seh_guarded_call@X@@QAEX$$QAV<lambda_38edbb1296d33220d7e4dd0ed76b244a>@@AAV<lambda_5ce1d447e08cb34b2473517608e21441>@@$$QAV<lambda_fb385d3da700c9147fc39e65dd577a8c>@@@Z 004581a8 f   libucrt:per_thread_data.obj
 0001:00057213       ??$?RV<lambda_6affb1475c98b40b75cdec977db92e3c>@@AAV<lambda_b8d4b9c228a6ecc3f80208dbb4b4a104>@@V<lambda_608742c3c92a14382c1684fc64f96c88>@@@?$__crt_seh_guarded_call@X@@QAEX$$QAV<lambda_6affb1475c98b40b75cdec977db92e3c>@@AAV<lambda_b8d4b9c228a6ecc3f80208dbb4b4a104>@@$$QAV<lambda_608742c3c92a14382c1684fc64f96c88>@@@Z 00458213 f   libucrt:per_thread_data.obj
 0001:00057268       ??$?RV<lambda_a7e850c220f1c8d1e6efeecdedd162c6>@@AAV<lambda_46720907175c18b6c9d2717bc0d2d362>@@V<lambda_9048902d66e8d99359bc9897bbb930a8>@@@?$__crt_seh_guarded_call@X@@QAEX$$QAV<lambda_a7e850c220f1c8d1e6efeecdedd162c6>@@AAV<lambda_46720907175c18b6c9d2717bc0d2d362>@@$$QAV<lambda_9048902d66e8d99359bc9897bbb930a8>@@@Z 00458268 f   libucrt:per_thread_data.obj
 0001:000572c2       ?construct_ptd@@YAXQAU__acrt_ptd@@QAPAU__crt_locale_data@@@Z 004582c2 f   libucrt:per_thread_data.obj
 0001:0005735b       ?destroy_fls@@YGXPAX@Z     0045835b f   libucrt:per_thread_data.obj
 0001:0005737c       ?destroy_ptd@@YAXQAU__acrt_ptd@@@Z 0045837c f   libucrt:per_thread_data.obj
 0001:00057449       ?replace_current_thread_locale_nolock@@YAXQAU__acrt_ptd@@QAU__crt_locale_data@@@Z 00458449 f   libucrt:per_thread_data.obj
 0001:000577e0       ??$?RV<lambda_9e9de3de5fa147e2223d7db92bc10aa6>@@AAV<lambda_38ce7e780aa69e748d6df282ebc68efe>@@V<lambda_8ca6da459f0f6780f1cff60fdc3d00e5>@@@?$__crt_seh_guarded_call@H@@QAEH$$QAV<lambda_9e9de3de5fa147e2223d7db92bc10aa6>@@AAV<lambda_38ce7e780aa69e748d6df282ebc68efe>@@$$QAV<lambda_8ca6da459f0f6780f1cff60fdc3d00e5>@@@Z 004587e0 f   libucrt:commit.obj
 0001:000578ff       ?write_double_translated_ansi_nolock@@YA?AUwrite_result@?A0x17268360@@HQBDI@Z 004588ff f   libucrt:write.obj
 0001:00057ca9       ?write_double_translated_unicode_nolock@@YA?AUwrite_result@?A0x17268360@@QBDI@Z 00458ca9 f   libucrt:write.obj
 0001:00057d11       ?write_requires_double_translation_nolock@@YA_NH@Z 00458d11 f   libucrt:write.obj
 0001:00057d82       ?write_text_ansi_nolock@@YA?AUwrite_result@?A0x17268360@@HQBDI@Z 00458d82 f   libucrt:write.obj
 0001:00057e5d       ?write_text_utf16le_nolock@@YA?AUwrite_result@?A0x17268360@@HQBDI@Z 00458e5d f   libucrt:write.obj
 0001:00057f46       ?write_text_utf8_nolock@@YA?AUwrite_result@?A0x17268360@@HQBDI@Z 00458f46 f   libucrt:write.obj
 0001:0005834c       ??$common_flush_and_write_nolock@D@@YAHHV__crt_stdio_stream@@@Z 0045934c f   libucrt:_flsbuf.obj
 0001:00058461       ??$common_flush_and_write_nolock@_W@@YAHHV__crt_stdio_stream@@@Z 00459461 f   libucrt:_flsbuf.obj
 0001:0005857a       ??$write_buffer_nolock@D@@YA_NDV__crt_stdio_stream@@@Z 0045957a f   libucrt:_flsbuf.obj
 0001:00058646       ??$write_buffer_nolock@_W@@YA_N_WV__crt_stdio_stream@@@Z 00459646 f   libucrt:_flsbuf.obj
 0001:00058714       ?stream_is_at_end_of_file_nolock@@YA_NV__crt_stdio_stream@@@Z 00459714 f   libucrt:_flsbuf.obj
 0001:00058ef2       ?fp_format_a@@YAHQBNPADIQADIH_NIQAU__crt_locale_pointers@@@Z 00459ef2 f   libucrt:cvt.obj
 0001:0005920b       ?fp_format_e@@YAHQBNQADI1IH_NIQAU__crt_locale_pointers@@@Z 0045a20b f   libucrt:cvt.obj
 0001:000592ad       ?fp_format_e_internal@@YAHQADIH_NIQAU_strflt@@1QAU__crt_locale_pointers@@@Z 0045a2ad f   libucrt:cvt.obj
 0001:000593f5       ?fp_format_f@@YAHQBNQADI1IHQAU__crt_locale_pointers@@@Z 0045a3f5 f   libucrt:cvt.obj
 0001:00059480       ?fp_format_f_internal@@YAHQADIHQAU_strflt@@_NQAU__crt_locale_pointers@@@Z 0045a480 f   libucrt:cvt.obj
 0001:00059551       ?fp_format_g@@YAHQBNQADI1IH_NIQAU__crt_locale_pointers@@@Z 0045a551 f   libucrt:cvt.obj
 0001:00059612       ?fp_format_nan_or_infinity@@YAHW4__acrt_fp_class@@_NPADI1@Z 0045a612 f   libucrt:cvt.obj
 0001:000596a7       ?shift_bytes@@YAXQADI0H@Z  0045a6a7 f   libucrt:cvt.obj
 0001:00059816       ?fputwc_binary_nolock@@YAG_WV__crt_stdio_stream@@@Z 0045a816 f   libucrt:fputwc.obj
 0001:00059984       ?initialize_inherited_file_handles_nolock@@YAXXZ 0045a984 f   libucrt:ioinit.obj
 0001:00059a3a       ?initialize_stdio_handles_nolock@@YAXXZ 0045aa3a f   libucrt:ioinit.obj
 0001:00059bb4       ?__acrt_LCMapStringA_stat@@YAHPAU__crt_locale_pointers@@PB_WKPBDHPADHHH@Z 0045abb4 f   libucrt:lcmapstringa.obj
 0001:00059f72       ?compute_iso_week@@YAHHHH@Z 0045af72 f   libucrt:wcsftime.obj
 0001:00059fbb       ?compute_iso_week_internal@@YAHHHH@Z 0045afbb f   libucrt:wcsftime.obj
 0001:0005a050       ?compute_iso_year@@YAHHHH@Z 0045b050 f   libucrt:wcsftime.obj
 0001:0005a07b       ?expand_time@@YA_NPAU__crt_locale_pointers@@_WPBUtm@@PAPA_WPAIPBU__crt_lc_time_data@@_N@Z 0045b07b f   libucrt:wcsftime.obj
 0001:0005aa73       $LN191                     0045ba73     libucrt:wcsftime.obj
 0001:0005aa93       ?store_number@@YAXHHQAPA_WQAI_W@Z 0045ba93 f   libucrt:wcsftime.obj
 0001:0005ab27       ?store_number_without_lead_zeroes@@YAXHQAPA_WQAI@Z 0045bb27 f   libucrt:wcsftime.obj
 0001:0005ab93       ?store_string@@YAXPB_WQAPA_WQAI@Z 0045bb93 f   libucrt:wcsftime.obj
 0001:0005abc4       ?store_winword@@YA_NQAU__crt_locale_pointers@@HQBUtm@@QAPA_WQAIQBU__crt_lc_time_data@@@Z 0045bbc4 f   libucrt:wcsftime.obj
 0001:0005b200       $$000000                   0045c200     libucrt:_strnicm.obj
 0001:0005b2cb       ?<lambda_invoker_stdcall>@<lambda_29d3c280b90b41c2ae070ffca879996a>@@CGHPA_W@Z 0045c2cb f   libucrt:winapi_thunks.obj
 0001:0005b2d8       ??$?RV<lambda_6b4b7855443974f2b4b77000ea21c99c>@@AAV<lambda_8f7d3b162ab39427f4fa9995c67a7986>@@V<lambda_cc9a5ba8a5d8428b9634eab82665e5dc>@@@?$__crt_seh_guarded_call@H@@QAEH$$QAV<lambda_6b4b7855443974f2b4b77000ea21c99c>@@AAV<lambda_8f7d3b162ab39427f4fa9995c67a7986>@@$$QAV<lambda_cc9a5ba8a5d8428b9634eab82665e5dc>@@@Z 0045c2d8 f   libucrt:winapi_thunks.obj
 0001:0005b354       ??R<lambda_29d3c280b90b41c2ae070ffca879996a>@@QBEHPA_W@Z 0045c354 f   libucrt:winapi_thunks.obj
 0001:0005b383       ?try_get_AreFileApisANSI@@YAP6GHXZXZ 0045c383 f   libucrt:winapi_thunks.obj
 0001:0005b39d       ?try_get_CompareStringEx@@YAP6GHPB_WK0H0HPAU_nlsversioninfo@@PAXJ@ZXZ 0045c39d f   libucrt:winapi_thunks.obj
 0001:0005b3b7       ?try_get_EnumSystemLocalesEx@@YAP6GHP6GHPA_WKJ@ZKJPAX@ZXZ 0045c3b7 f   libucrt:winapi_thunks.obj
 0001:0005b3d1       ?try_get_GetDateFormatEx@@YAP6GHPB_WKPBU_SYSTEMTIME@@0PA_WH0@ZXZ 0045c3d1 f   libucrt:winapi_thunks.obj
 0001:0005b3eb       ?try_get_GetLocaleInfoEx@@YAP6GHPB_WKPA_WH@ZXZ 0045c3eb f   libucrt:winapi_thunks.obj
 0001:0005b405       ?try_get_GetTimeFormatEx@@YAP6GHPB_WKPBU_SYSTEMTIME@@0PA_WH@ZXZ 0045c405 f   libucrt:winapi_thunks.obj
 0001:0005b41f       ?try_get_GetUserDefaultLocaleName@@YAP6GHPA_WH@ZXZ 0045c41f f   libucrt:winapi_thunks.obj
 0001:0005b439       ?try_get_IsValidLocaleName@@YAP6GHPB_W@ZXZ 0045c439 f   libucrt:winapi_thunks.obj
 0001:0005b453       ?try_get_LCIDToLocaleName@@YAP6GHKPA_WHK@ZXZ 0045c453 f   libucrt:winapi_thunks.obj
 0001:0005b46d       ?try_get_LCMapStringEx@@YAP6GHPB_WK0HPA_WHPAU_nlsversioninfo@@PAXJ@ZXZ 0045c46d f   libucrt:winapi_thunks.obj
 0001:0005b487       ?try_get_LocaleNameToLCID@@YAP6GKPB_WK@ZXZ 0045c487 f   libucrt:winapi_thunks.obj
 0001:0005b4a1       ?try_get_MessageBoxA@@YAP6GHPAUHWND__@@PBD1I@ZXZ 0045c4a1 f   libucrt:winapi_thunks.obj
 0001:0005b4bb       ?try_get_MessageBoxW@@YAP6GHPAUHWND__@@PB_W1I@ZXZ 0045c4bb f   libucrt:winapi_thunks.obj
 0001:0005b4d5       ?try_get_first_available_module@@YAPAUHINSTANCE__@@QBW4module_id@?A0x391cf84c@@0@Z 0045c4d5 f   libucrt:winapi_thunks.obj
 0001:0005b59c       ?try_get_function@@YAPAXW4function_id@?A0x391cf84c@@QBDQBW4module_id@2@2@Z 0045c59c f   libucrt:winapi_thunks.obj
 0001:0005bed3       ??$?RV<lambda_1f7e3ac85ca3635646511ad93ac0febe>@@AAV<lambda_555255fdfb9471e5fa7bfca50021c162>@@V<lambda_24f51f8b0c33fe186c624e6675644b7a>@@@?$__crt_seh_guarded_call@_N@@QAE_N$$QAV<lambda_1f7e3ac85ca3635646511ad93ac0febe>@@AAV<lambda_555255fdfb9471e5fa7bfca50021c162>@@$$QAV<lambda_24f51f8b0c33fe186c624e6675644b7a>@@@Z 0045ced3 f   libucrt:spawnv.obj
 0001:0005bf2e       ??$common_spawnv@D@@YAHHQBDQBQBD1@Z 0045cf2e f   libucrt:spawnv.obj
 0001:0005c11e       ??$execute_command@D@@YAHHQBDQBQBD1@Z 0045d11e f   libucrt:spawnv.obj
 0001:0005c32a       ??R<lambda_555255fdfb9471e5fa7bfca50021c162>@@QBE_NXZ 0045d32a f   libucrt:spawnv.obj
 0001:0005c468       ?accumulate_inheritable_handles@@YA_NQAPAEQAI_N@Z 0045d468 f   libucrt:spawnv.obj
 0001:0005c4ac       ??$common_spawnvp@D@@YAHHQBDQBQBD1@Z 0045d4ac f   libucrt:spawnvp.obj
 0001:0005c8b1       ??$common_lseek@J@@YAJHJH@Z 0045d8b1 f   libucrt:lseek.obj
 0001:0005c9a3       ??$common_lseek@_J@@YA_JH_JH@Z 0045d9a3 f   libucrt:lseek.obj
 0001:0005caaf       ??$common_lseek_nolock@J@@YAJHJH@Z 0045daaf f   libucrt:lseek.obj
 0001:0005cb06       ??$common_lseek_nolock@_J@@YA_JH_JH@Z 0045db06 f   libucrt:lseek.obj
 0001:0005cb82       ?common_lseek_do_seek_nolock@@YAJQAXJH@Z 0045db82 f   libucrt:lseek.obj
 0001:0005cc9e       ?_mbstowcs_l_helper@@YAIPA_WPBDIPAU__crt_locale_pointers@@@Z 0045dc9e f   libucrt:mbstowcs.obj
 0001:0005cf41       ?_wcstombs_l_helper@@YAIPADPB_WIPAU__crt_locale_pointers@@@Z 0045df41 f   libucrt:wcstombs.obj
 0001:0005d6d5       ??$common_tcsncpy_s@_W@@YAHQA_WIQB_WI@Z 0045e6d5 f   libucrt:wcsncpy_s.obj
 0001:0005d7ab       ?<lambda_invoker_cdecl>@<lambda_838c7f62c73c983481e27c09e84b0b5d>@@CAHPBX0@Z 0045e7ab f   libucrt:argv_wildcards.obj
 0001:0005d7c3       ??$__acrt_convert_wcs_mbs_cp@_WDV<lambda_28bda7af82a03b66c1cb3803a755f95d>@@U__crt_win32_buffer_internal_dynamic_resizing@@@@YAHQB_WAAV?$__crt_win32_buffer@DU__crt_win32_buffer_internal_dynamic_resizing@@@@ABV<lambda_28bda7af82a03b66c1cb3803a755f95d>@@I@Z 0045e7c3 f   libucrt:argv_wildcards.obj
 0001:0005d892       ??$common_expand_argv_wildcards@D@@YAHQAPADQAPAPAD@Z 0045e892 f   libucrt:argv_wildcards.obj
 0001:0005da81       ??$copy_and_add_argument_to_buffer@D@@YAHQBD0IAAV?$argument_list@D@?A0x5f5c8891@@@Z 0045ea81 f   libucrt:argv_wildcards.obj
 0001:0005db32       ??$expand_argument_wildcards@D@@YAHQAD0AAV?$argument_list@D@?A0x5f5c8891@@@Z 0045eb32 f   libucrt:argv_wildcards.obj
 0001:0005ddc5       ?expand_if_necessary@?$argument_list@D@?A0x5f5c8891@@AAEHXZ 0045edc5 f   libucrt:argv_wildcards.obj
 0001:0005de57       ??$?RV<lambda_ceb1ee4838e85a9d631eb091e2fbe199>@@AAV<lambda_ae742caa10f662c28703da3d2ea5e57e>@@V<lambda_cd08b5d6af4937fe54fc07d0c9bf6b37>@@@?$__crt_seh_guarded_call@X@@QAEX$$QAV<lambda_ceb1ee4838e85a9d631eb091e2fbe199>@@AAV<lambda_ae742caa10f662c28703da3d2ea5e57e>@@$$QAV<lambda_cd08b5d6af4937fe54fc07d0c9bf6b37>@@@Z 0045ee57 f   libucrt:mbctype.obj
 0001:0005dea4       ??R<lambda_ae742caa10f662c28703da3d2ea5e57e>@@QBEXXZ 0045eea4 f   libucrt:mbctype.obj
 0001:0005df27       ?CPtoLocaleName@@YAPB_WH@Z 0045ef27 f   libucrt:mbctype.obj
 0001:0005df65       ?getSystemCP@@YAHH@Z       0045ef65 f   libucrt:mbctype.obj
 0001:0005dfd6       ?setSBCS@@YAXPAU__crt_multibyte_data@@@Z 0045efd6 f   libucrt:mbctype.obj
 0001:0005e03b       ?setSBUpLow@@YAXPAU__crt_multibyte_data@@@Z 0045f03b f   libucrt:mbctype.obj
 0001:0005e1bc       ?setmbcp_internal@@YAHH_NQAU__acrt_ptd@@QAPAU__crt_multibyte_data@@@Z 0045f1bc f   libucrt:mbctype.obj
 0001:0005e2d5       ?update_thread_multibyte_data_internal@@YAPAU__crt_multibyte_data@@QAU__acrt_ptd@@QAPAU1@@Z 0045f2d5 f   libucrt:mbctype.obj
 0001:0005e5c3       ?x_ismbbtype_l@@YAHPAU__crt_locale_pointers@@IHH@Z 0045f5c3 f   libucrt:ismbbyte.obj
 0001:0005e632       ?find_end_of_double_null_terminated_sequence@@YAPB_WQB_W@Z 0045f632 f   libucrt:get_environment_from_os.obj
 0001:0005e6ed       ??$common_set_variable_in_environment_nolock@D@@YAHQADH@Z 0045f6ed f   libucrt:setenv.obj
 0001:0005e92b       ??$copy_environment@D@@YAPAPADQAPAD@Z 0045f92b f   libucrt:setenv.obj
 0001:0005e9db       ??$ensure_current_environment_is_not_initial_environment_nolock@D@@YAXXZ 0045f9db f   libucrt:setenv.obj
 0001:0005e9f5       ??$find_in_environment_nolock@D@@YAHQBDI@Z 0045f9f5 f   libucrt:setenv.obj
 0001:0005fa39       ?free_crt_array_internal@@YAXQAPBXI@Z 00460a39 f   libucrt:inittime.obj
 0001:0005fa71       ?initialize_lc_time@@YA_NQAU__crt_lc_time_data@@QAU__crt_locale_data@@@Z 00460a71 f   libucrt:inittime.obj
 0001:00060390       _GetLocaleNameFromDefault  00461390 f   libucrt:get_qualified_locale.obj
 0001:00060417       _GetLocaleNameFromLangCountry 00461417 f   libucrt:get_qualified_locale.obj
 0001:000604b0       _GetLocaleNameFromLanguage 004614b0 f   libucrt:get_qualified_locale.obj
 0001:00060509       _GetPrimaryLen             00461509 f   libucrt:get_qualified_locale.obj
 0001:0006053d       _LangCountryEnumProcEx@12  0046153d f   libucrt:get_qualified_locale.obj
 0001:0006081d       _LanguageEnumProcEx@12     0046181d f   libucrt:get_qualified_locale.obj
 0001:000608dc       _ProcessCodePage           004618dc f   libucrt:get_qualified_locale.obj
 0001:000609d2       _TestDefaultCountry        004619d2 f   libucrt:get_qualified_locale.obj
 0001:00060a1f       _TranslateName             00461a1f f   libucrt:get_qualified_locale.obj
 0001:00060c87       _CountryEnumProc@4         00461c87 f   libucrt:getqloc_downlevel.obj
 0001:00060d2e       _GetLcidFromCountry        00461d2e f   libucrt:getqloc_downlevel.obj
 0001:00060d79       _GetLcidFromLangCountry    00461d79 f   libucrt:getqloc_downlevel.obj
 0001:00060e14       _GetLcidFromLanguage       00461e14 f   libucrt:getqloc_downlevel.obj
 0001:00060e73       _GetPrimaryLen             00461e73 f   libucrt:getqloc_downlevel.obj
 0001:00060e9f       _LangCountryEnumProc@4     00461e9f f   libucrt:getqloc_downlevel.obj
 0001:000610f2       _LanguageEnumProc@4        004620f2 f   libucrt:getqloc_downlevel.obj
 0001:000611c7       _LcidFromHexString         004621c7 f   libucrt:getqloc_downlevel.obj
 0001:00061218       _ProcessCodePage           00462218 f   libucrt:getqloc_downlevel.obj
 0001:000612f9       _TestDefaultCountry        004622f9 f   libucrt:getqloc_downlevel.obj
 0001:0006131e       _TestDefaultLanguage       0046231e f   libucrt:getqloc_downlevel.obj
 0001:0006138c       _TranslateName             0046238c f   libucrt:getqloc_downlevel.obj
 0001:0006179b       ___hw_cw_sse2              0046279b f   libucrt:ieee87.obj
 0001:00061c21       __hw_cw                    00462c21 f   libucrt:ieee87.obj
 0001:00061e6c       ??$common_sopen_dispatch@D@@YAHQBDHHHQAHH@Z 00462e6c f   libucrt:open.obj
 0001:00061f2d       ?configure_text_mode@@YAHHUfile_options@?A0xa9d50aae@@HAAW4__crt_lowio_text_mode@@@Z 00462f2d f   libucrt:open.obj
 0001:00062180       ?create_file@@YAPAXQB_WQAU_SECURITY_ATTRIBUTES@@Ufile_options@?A0xa9d50aae@@@Z 00463180 f   libucrt:open.obj
 0001:000621a5       ?decode_open_create_flags@@YAKH@Z 004631a5 f   libucrt:open.obj
 0001:00062215       ?decode_options@@YA?AUfile_options@?A0xa9d50aae@@HHH@Z 00463215 f   libucrt:open.obj
 0001:0006238f       ?truncate_ctrl_z_if_present@@YAHH@Z 0046338f f   libucrt:open.obj
 0001:00063ea4       ?tzset_from_environment_nolock@@YAXPAD@Z 00464ea4 f   libucrt:tzset.obj
 0001:0006407f       ?tzset_from_system_nolock@@YAXXZ 0046507f f   libucrt:tzset.obj
 0001:000641da       ?tzset_nolock@@YAXXZ       004651da f   libucrt:tzset.obj
 0001:00064315       ?to_abstract_control@@YA?AW4__acrt_fenv_abstract_control@@W4__acrt_fenv_machine_sse_control@@@Z 00465315 f   libucrt:_fenvutils.obj
 0001:000643d1       ?to_abstract_control@@YA?AW4__acrt_fenv_abstract_control@@W4__acrt_fenv_machine_x87_control@@@Z 004653d1 f   libucrt:_fenvutils.obj
 0001:0006448a       ?to_machine_sse_control@@YA?AW4__acrt_fenv_machine_sse_control@@W4__acrt_fenv_abstract_control@@@Z 0046548a f   libucrt:_fenvutils.obj
 0001:00064557       ?to_machine_x87_control@@YA?AW4__acrt_fenv_machine_x87_control@@W4__acrt_fenv_abstract_control@@@Z 00465557 f   libucrt:_fenvutils.obj
 0001:000648db       ?GetTableIndexFromLocaleName@@YAHPB_W@Z 004658db f   libucrt:lcidtoname_downlevel.obj
 0001:00064a01       ??$construct_command_line@D@@YAHQBQBDQAPAD@Z 00465a01 f   libucrt:cenvarg.obj
 0001:00064ad1       ??$construct_environment_block@D@@YAHQBQBDQAPAD@Z 00465ad1 f   libucrt:cenvarg.obj
 0001:00064ee6       ??$common_getpath@D@@YAPADQBDQADI@Z 00465ee6 f   libucrt:getpath.obj
 0001:00064fb5       ?InternalCompareStringA@@YAHPAU__crt_locale_pointers@@PB_WKPBDH2HH@Z 00465fb5 f   libucrt:comparestringa.obj
 0001:00065286       ??$common_tcsncpy_s@D@@YAHQADIQBDI@Z 00466286 f   libucrt:strncpy_s.obj
 0001:00065350       $$000000                   00466350     libucrt:strpbrk.obj
 0001:00065434       ?initialize_multibyte@@YAHXZ 00466434 f   libucrt:multibyte_initializer.obj
 0001:000654d8       ?InternalGetLocaleInfoA@@YAHQAU__crt_locale_pointers@@QB_WKQADH@Z 004664d8 f   libucrt:getlocaleinfoa.obj
 0001:00065b1d       ?__dcrt_lowio_initialize_console_output@@YAXXZ 00466b1d f   libucrt:initcon.obj
 0001:00065c80       $$000000                   00466c80     libucrt:log10_impl.obj
 0001:00065d90       $$000000                   00466d90     libucrt:ceil_pentium4.obj
 0001:00065f00       $$000000                   00466f00     libucrt:log10_pentium4.obj
 0001:00066190       $$000000                   00467190     libucrt:87tran.obj
 0001:000663a0       $$000000                   004673a0     libucrt:87disp.obj
 0001:00066600       $$000000                   00467600     libucrt:common.obj
 0001:00066790       $$000000                   00467790     libucrt:genexcep.obj
 0001:00067830       $$000000                   00468830     LIBCMT:ulldvrm.obj
 0001:00067900       $$000000                   00468900     LIBCMT:lldiv.obj
 0001:000679b0       $$000000                   004689b0     LIBCMT:lldvrm.obj
 0001:00067a90       $$000000                   00468a90     LIBCMT:llrem.obj
 0001:00067b50       $$000000                   00468b50     LIBCMT:alloca16.obj
 0001:00067b80       $$000000                   00468b80     LIBCMT:ftol2.obj
 0001:00067d79       __ehhandler$?CallUnexpected@@YAXPBU_s_ESTypeList@@@Z 00468d79 f   libvcruntime:frame.obj
 0001:00067d94       __unwindfunclet$?_wcrtomb_s_l@@YAHQAHQADI_WQAU_Mbstatet@@QAU__crt_locale_pointers@@@Z$0 00468d94 f   libucrt:wcrtomb.obj
 0001:00067d9c       __ehhandler$?_wcrtomb_s_l@@YAHQAHQADI_WQAU_Mbstatet@@QAU__crt_locale_pointers@@@Z 00468d9c f   libucrt:wcrtomb.obj
 0001:00067db7       __unwindfunclet$?_wcstombs_l_helper@@YAIPADPB_WIPAU__crt_locale_pointers@@@Z$0 00468db7 f   libucrt:wcstombs.obj
 0001:00067dbf       __ehhandler$?_wcstombs_l_helper@@YAIPADPB_WIPAU__crt_locale_pointers@@@Z 00468dbf f   libucrt:wcstombs.obj
 0002:00000260       ?pre_cpp_initializer@@3P6AXXZA 00469260     LIBCMT:exe_main.obj
 0002:0000026c       ?pre_c_initializer@@3P6AHXZA 0046926c     LIBCMT:exe_main.obj
 0002:00000270       ?post_pgo_initializer@@3P6AHXZA 00469270     LIBCMT:exe_main.obj
 0002:000002b0       _agentf_channelvt          004692b0     agentf.obj
 0002:00000cd0       _ErrorSocket_sockvt        00469cd0     errsock.obj
 0002:00000f78       _mainchan_channelvt        00469f78     mainchan.obj
 0002:000019fc       _nullplug_plugvt           0046a9fc     nullplug.obj
 0002:00001a18       _oids                      0046aa18     pgssapi.obj
 0002:00001aa8       _PortForwarding_plugvt     0046aaa8     portfwd.obj
 0002:00001abc       _PortListener_plugvt       0046aabc     portfwd.obj
 0002:00001ad0       _PortForwarding_channelvt  0046aad0     portfwd.obj
 0002:00001e9c       _ProxySocket_sockvt        0046ae9c     proxy.obj
 0002:00001ec0       _ProxySocket_plugvt        0046aec0     proxy.obj
 0002:00002688       _psftp_seat_vt             0046b688     psftp.obj
 0002:00005140       _ciphernames               0046e140     settings.obj
 0002:000051b0       _kexnames                  0046e1b0     settings.obj
 0002:00005210       _hknames                   0046e210     settings.obj
 0002:00005260       ?defaults@?BG@??load_open_settings@@9@9 0046e260     settings.obj
 0002:000052b8       ?defaults@?BJ@??load_open_settings@@9@9 0046e2b8     settings.obj
 0002:000063d4       ?messages@?1??fxp_got_status@@9@9 0046f3d4     sftp.obj
 0002:000068c4       _Ssh_plugvt                0046f8c4     ssh.obj
 0002:00006a10       _ssh1_bpp_vtable           0046fa10     ssh1bpp.obj
 0002:00006cd0       _ssh1_connection_vtable    0046fcd0     ssh1connection.obj
 0002:00006cf0       _ssh1_connlayer_vtable     0046fcf0     ssh1connection.obj
 0002:00006d50       _ssh1channel_vtable        0046fd50     ssh1connection.obj
 0002:00006ff8       _ssh1mainchan_vtable       0046fff8     ssh1connection-client.obj
 0002:00007270       _ssh1_login_vtable         00470270     ssh1login.obj
 0002:0000810c       _ssh2_bpp_vtable           0047110c     ssh2bpp.obj
 0002:00008440       _ssh2_bare_bpp_vtable      00471440     ssh2bpp-bare.obj
 0002:00008490       _ssh2_connection_vtable    00471490     ssh2connection.obj
 0002:000084b0       _ssh2_connlayer_vtable     004714b0     ssh2connection.obj
 0002:00008510       ?reasons@?1??ssh2_channel_open_failure_error_text@@9@9 00471510     ssh2connection.obj
 0002:00008528       _ssh2channel_vtable        00471528     ssh2connection.obj
 0002:00009668       _macs                      00472668     ssh2transport.obj
 0002:00009678       _buggymacs                 00472678     ssh2transport.obj
 0002:00009684       _ssh_comp_none             00472684     ssh2transport.obj
 0002:000096a8       _compressions              004726a8     ssh2transport.obj
 0002:000096b0       _ssh2_transport_vtable     004726b0     ssh2transport.obj
 0002:000096d0       _kexlist_descr             004726d0     ssh2transport.obj
 0002:000096f0       ?ssh2_disconnect_reasons@?1??ssh2_common_filter_queue@@9@9 004726f0     ssh2transport.obj
 0002:0000a0c0       _ssh2_userauth_vtable      004730c0     ssh2userauth.obj
 0002:0000afb8       _ssh_rijndael_lysator      00473fb8     sshaes.obj
 0002:0000aff8       _aes_list                  00473ff8     sshaes.obj
 0002:0000b014       _key_setup_round_constants 00474014     sshaes.obj
 0002:0000b428       _arcfour_list              00474428     ssharcf.obj
 0002:0000b568       _parray                    00474568     sshblowf.obj
 0002:0000b5b0       _sbox0                     004745b0     sshblowf.obj
 0002:0000b9b0       _sbox1                     004749b0     sshblowf.obj
 0002:0000bdb0       _sbox2                     00474db0     sshblowf.obj
 0002:0000c1b0       _sbox3                     004751b0     sshblowf.obj
 0002:0000c5b0       _blowfish_list             004755b0     sshblowf.obj
 0002:0000c6c4       ?constant@?1??chacha20_key@@9@9 004756c4     sshccp.obj
 0002:0000c6d4       _ccp_list                  004756d4     sshccp.obj
 0002:0000c748       _zombiechan_channelvt      00475748     sshcommon.obj
 0002:0000c7a0       ?modes_names_types@?1??get_ttymodes_from_conf@@9@9 004757a0     sshcommon.obj
 0002:0000ca28       ?valid_bitmap@?1??ssh2_bpp_check_unimplemented@@9@9 00475a28     sshcommon.obj
 0002:0000dab0       ?tbl@?1??des_S@@9@9        00476ab0     sshdes.obj
 0002:0000dcb0       ?PC1@?1??des_key_setup@@9@9 00476cb0     sshdes.obj
 0002:0000dcec       ?PC2_7531@?1??des_key_setup@@9@9 00476cec     sshdes.obj
 0002:0000dd0c       ?PC2_6420@?1??des_key_setup@@9@9 00476d0c     sshdes.obj
 0002:0000dd30       ?leftshifts@?1??des_key_setup@@9@9 00476d30     sshdes.obj
 0002:0000dd70       _des_list                  00476d70     sshdes.obj
 0002:0000dd78       _des3_list                 00476d78     sshdes.obj
 0002:0000de1c       _extra_group1              00476e1c     sshdh.obj
 0002:0000de24       _ssh_diffiehellman_group1_sha1 00476e24     sshdh.obj
 0002:0000de38       _group1_list               00476e38     sshdh.obj
 0002:0000de3c       _extra_group14             00476e3c     sshdh.obj
 0002:0000de44       _ssh_diffiehellman_group14_sha256 00476e44     sshdh.obj
 0002:0000de58       _ssh_diffiehellman_group14_sha1 00476e58     sshdh.obj
 0002:0000de6c       _group14_list              00476e6c     sshdh.obj
 0002:0000de74       _extra_gex                 00476e74     sshdh.obj
 0002:0000de7c       _ssh_diffiehellman_gex_sha256 00476e7c     sshdh.obj
 0002:0000de90       _ssh_diffiehellman_gex_sha1 00476e90     sshdh.obj
 0002:0000dea4       _gex_list                  00476ea4     sshdh.obj
 0002:0000deac       _ssh_gssk5_diffiehellman_gex_sha1 00476eac     sshdh.obj
 0002:0000dec0       _ssh_gssk5_diffiehellman_group14_sha1 00476ec0     sshdh.obj
 0002:0000ded4       _ssh_gssk5_diffiehellman_group1_sha1 00476ed4     sshdh.obj
 0002:0000dee8       _gssk5_sha1_kex_list       00476ee8     sshdh.obj
 0002:0000e590       _nistp256_oid              00477590     sshecc.obj
 0002:0000e5a8       _nistp384_oid              004775a8     sshecc.obj
 0002:0000e5c0       _nistp521_oid              004775c0     sshecc.obj
 0002:0000e5d8       _kex_extra_curve25519      004775d8     sshecc.obj
 0002:0000e628       _ec_kex_list               00477628     sshecc.obj
 0002:0000fda0       ?sha1_asn1_prefix@?2??rsa_pkcs1_prefix_for_hash@@9@9 00478da0     sshrsa.obj
 0002:0000fdb0       ?sha256_asn1_prefix@?3??rsa_pkcs1_prefix_for_hash@@9@9 00478db0     sshrsa.obj
 0002:0000fdc4       ?sha512_asn1_prefix@?4??rsa_pkcs1_prefix_for_hash@@9@9 00478dc4     sshrsa.obj
 0002:0000fdd8       _ssh_rsa_kex_extra_sha1    00478dd8     sshrsa.obj
 0002:0000fddc       _ssh_rsa_kex_extra_sha256  00478ddc     sshrsa.obj
 0002:0000fde0       _ssh_rsa_kex_sha1          00478de0     sshrsa.obj
 0002:0000fdf4       _ssh_rsa_kex_sha256        00478df4     sshrsa.obj
 0002:0000fe08       _rsa_kex_list              00478e08     sshrsa.obj
 0002:0001007c       _sha256_initial_state      0047907c     sshsh256.obj
 0002:000100a0       _sha256_round_constants    004790a0     sshsh256.obj
 0002:00010428       ?iv@?1??SHA512_Core_Init@@9@9 00479428     sshsh512.obj
 0002:00010468       ?iv@?1??SHA384_Core_Init@@9@9 00479468     sshsh512.obj
 0002:000104a8       ?k@?1??SHA512_Block@@9@9   004794a8     sshsh512.obj
 0002:000107c0       _sha1_initial_state        004797c0     sshsha.obj
 0002:00010850       ?reason@?2??share_try_cleanup@@9@9 00479850     sshshare.obj
 0002:00010878       ?lang@?2??share_try_cleanup@@9@9 00479878     sshshare.obj
 0002:0001087c       ?expected_verstring_prefix@?1??share_receive@@9@9 0047987c     sshshare.obj
 0002:000108ac       _ssh_sharing_conn_plugvt   004798ac     sshshare.obj
 0002:000108c0       _ssh_sharing_listen_plugvt 004798c0     sshshare.obj
 0002:00010f74       _ssh_verstring_vtable      00479f74     sshverstring.obj
 0002:000116fc       ?lenlenmap@?1??zlib_decompress_block@@9@9 0047a6fc     sshzlib.obj
 0002:00011710       _mirrorbytes               0047a710     sshzlib.obj
 0002:00011810       _lencodes                  0047a810     sshzlib.obj
 0002:00011970       _distcodes                 0047a970     sshzlib.obj
 0002:00011db0       ?base64_chars@?1??base64_encode_atom@@9@9 0047adb0     utils.obj
 0002:00011f60       ?combining@?1??mk_wcwidth@@9@9 0047af60     wcwidth.obj
 0002:000123d0       ?wide@?1??mk_wcwidth@@9@9  0047b3d0     wcwidth.obj
 0002:00012720       ?ambiguous@?1??mk_wcwidth_cjk@@9@9 0047b720     wcwidth.obj
 0002:00012d18       ?absentmsg_batch@?1??console_verify_ssh_host_key@@9@9 0047bd18     wincons.obj
 0002:00012dd8       ?absentmsg@?1??console_verify_ssh_host_key@@9@9 0047bdd8     wincons.obj
 0002:00012f98       ?wrongmsg_batch@?1??console_verify_ssh_host_key@@9@9 0047bf98     wincons.obj
 0002:000130e0       ?wrongmsg@?1??console_verify_ssh_host_key@@9@9 0047c0e0     wincons.obj
 0002:00013388       ?abandoned@?1??console_verify_ssh_host_key@@9@9 0047c388     wincons.obj
 0002:000133a0       ?msg@?1??console_confirm_weak_crypto_primitive@@9@9 0047c3a0     wincons.obj
 0002:00013420       ?msg_batch@?1??console_confirm_weak_crypto_primitive@@9@9 0047c420     wincons.obj
 0002:00013494       ?abandoned@?1??console_confirm_weak_crypto_primitive@@9@9 0047c494     wincons.obj
 0002:000134b0       ?msg@?1??console_confirm_weak_cached_hostkey@@9@9 0047c4b0     wincons.obj
 0002:000135b0       ?msg_batch@?1??console_confirm_weak_cached_hostkey@@9@9 0047c5b0     wincons.obj
 0002:000136a4       ?abandoned@?1??console_confirm_weak_cached_hostkey@@9@9 0047c6a4     wincons.obj
 0002:000136c0       ?msgtemplate@?1??console_askappend@@9@9 0047c6c0     wincons.obj
 0002:00013800       ?msgtemplate_batch@?1??console_askappend@@9@9 0047c800     wincons.obj
 0002:00013850       ?message@?1??old_keyfile_warning@@9@9 0047c850     wincons.obj
 0002:000139b8       _default_logpolicy_vt      0047c9b8     wincons.obj
 0002:0001436c       _HandleSocket_sockvt       0047d36c     winhsock.obj
 0002:000144c4       ?hex@?1??escape_registry_key@@9@9 0047d4c4     winmisc.obj
 0002:00014584       _NetSocket_sockvt          0047d584     winnet.obj
 0002:00015228       _NamedPipeServerSocket_sockvt 0047e228     winnps.obj
 0002:000153d4       ?nastyace@?1??really_restrict_process_acl@@9@9 0047e3d4     winsecur.obj
 0002:00015624       ?eventtypes@?N@??do_eventsel_loop@@9@9 0047e624     winsftp.obj
 0002:00015818       _reg_jumplist_key          0047e818     winstore.obj
 0002:0001581c       _reg_jumplist_value        0047e81c     winstore.obj
 0002:00015820       _puttystr                  0047e820     winstore.obj
 0002:000159a0       _unitab_xterm_std          0047e9a0     winucs.obj
 0002:000159e0       _iso_8859_1                0047e9e0     winucs.obj
 0002:00015aa0       _iso_8859_2                0047eaa0     winucs.obj
 0002:00015b60       _iso_8859_3                0047eb60     winucs.obj
 0002:00015c20       _iso_8859_4                0047ec20     winucs.obj
 0002:00015ce0       _iso_8859_5                0047ece0     winucs.obj
 0002:00015da0       _iso_8859_6                0047eda0     winucs.obj
 0002:00015e60       _iso_8859_7                0047ee60     winucs.obj
 0002:00015f20       _iso_8859_8                0047ef20     winucs.obj
 0002:00015fe0       _iso_8859_9                0047efe0     winucs.obj
 0002:000160a0       _iso_8859_10               0047f0a0     winucs.obj
 0002:00016160       _iso_8859_11               0047f160     winucs.obj
 0002:00016220       _iso_8859_13               0047f220     winucs.obj
 0002:000162e0       _iso_8859_14               0047f2e0     winucs.obj
 0002:000163a0       _iso_8859_15               0047f3a0     winucs.obj
 0002:00016460       _iso_8859_16               0047f460     winucs.obj
 0002:00016520       _roman8                    0047f520     winucs.obj
 0002:000165e0       _koi8_u                    0047f5e0     winucs.obj
 0002:000166e0       _vscii                     0047f6e0     winucs.obj
 0002:000168e0       _dec_mcs                   0047f8e0     winucs.obj
 0002:000169a0       _mazovia                   0047f9a0     winucs.obj
 0002:00016aa0       _cp_list                   0047faa0     winucs.obj
 0002:00016cf0       ?poorman_scoacs@?BG@??init_ucs@@9@9 0047fcf0     winucs.obj
 0002:00016d78       ?poorman_latin1@?BG@??init_ucs@@9@9 0047fd78     winucs.obj
 0002:00016ddc       ?poorman_vt100@?BG@??init_ucs@@9@9 0047fddc     winucs.obj
 0002:00016e00       ?cyrtab@?1??xlat_uskbd2cyrllic@@9@9 0047fe00     winucs.obj
 0002:00016f00       ?composetbl@?1??check_compose_internal@@9@9 0047ff00     winucs.obj
 0002:00017764       _X11Connection_plugvt      00480764     x11fwd.obj
 0002:00017778       _X11Connection_channelvt   00480778     x11fwd.obj
 0002:00017b34       _GS_ExceptionPointers      00480b34     LIBCMT:gs_report.obj
 0002:00017b40       ?tokenTable@@3QBQBDB       00480b40     libvcruntime:undname.obj
 0002:00017b80       ?nameTable@@3QBQBDB        00480b80     libvcruntime:undname.obj
 0002:00017ccc       ?rttiTable@@3QBQBDB        00480ccc     libvcruntime:undname.obj
 0002:000182d0       ?module_names@?A0x09dcfcb8@@3QBQB_WB 004812d0     libvcruntime:winapi_downlevel.obj
 0002:00018378       ?candidate_modules@?1??try_get_FlsAlloc@@YAP6GKP6GXPAX@Z@ZXZ@4QBW4module_id@?A0x09dcfcb8@@B 00481378     libvcruntime:winapi_downlevel.obj
 0002:0001838c       ?candidate_modules@?1??try_get_FlsFree@@YAP6GHK@ZXZ@4QBW4module_id@?A0x09dcfcb8@@B 0048138c     libvcruntime:winapi_downlevel.obj
 0002:0001839c       ?candidate_modules@?1??try_get_FlsGetValue@@YAP6GPAXK@ZXZ@4QBW4module_id@?A0x09dcfcb8@@B 0048139c     libvcruntime:winapi_downlevel.obj
 0002:000183b0       ?candidate_modules@?1??try_get_FlsSetValue@@YAP6GHKPAX@ZXZ@4QBW4module_id@?A0x09dcfcb8@@B 004813b0     libvcruntime:winapi_downlevel.obj
 0002:000183c4       ?candidate_modules@?1??try_get_InitializeCriticalSectionEx@@YAP6GHPAU_RTL_CRITICAL_SECTION@@KK@ZXZ@4QBW4module_id@?A0x09dcfcb8@@B 004813c4     libvcruntime:winapi_downlevel.obj
 0002:00018428       ?ExceptionTemplate@?1??_CxxThrowException@@9@8@4UEHExceptionRecord@@B 00481428     libvcruntime:throw.obj
 0002:00019080       ?large_power_indices@?1??multiply_by_power_of_ten@__crt_strtox@@YA_NAAUbig_integer@2@I@Z@4QBUunpack_index@?1??12@YA_N0I@Z@B 00482080     libucrt:input.obj
 0002:00019374       ?comspec_name@?1???$common_system@D@@YAHQBD@Z@4QBDB 00482374     libucrt:system.obj
 0002:0001937c       ?cmd_exe@?1???$common_system@D@@YAHQBD@Z@4QBDB 0048237c     libucrt:system.obj
 0002:00019384       ?slash_c@?1???$common_system@D@@YAHQBD@Z@4QBDB 00482384     libucrt:system.obj
 0002:00019428       __first_127char            00482428     libucrt:wsetlocale.obj
 0002:000195a0       ___acrt_initializers       004825a0     libucrt:initialization.obj
 0002:00019620       ?errtable@@3QBUerrentry@?A0x31fdb9ec@@B 00482620     libucrt:errno.obj
 0002:0001a470       ?strings@?1??fp_format_nan_or_infinity@@YAHW4__acrt_fp_class@@_NPADI1@Z@4QAY03QBDA 00483470     libucrt:cvt.obj
 0002:0001a520       ?module_names@?A0x391cf84c@@3QBQB_WB 00483520     libucrt:winapi_thunks.obj
 0002:0001a998       ?candidate_modules@?1??try_get_AreFileApisANSI@@YAP6GHXZXZ@4QBW4module_id@?A0x391cf84c@@B 00483998     libucrt:winapi_thunks.obj
 0002:0001a9ac       ?candidate_modules@?1??try_get_CompareStringEx@@YAP6GHPB_WK0H0HPAU_nlsversioninfo@@PAXJ@ZXZ@4QBW4module_id@?A0x391cf84c@@B 004839ac     libucrt:winapi_thunks.obj
 0002:0001a9c4       ?candidate_modules@?1??try_get_EnumSystemLocalesEx@@YAP6GHP6GHPA_WKJ@ZKJPAX@ZXZ@4QBW4module_id@?A0x391cf84c@@B 004839c4     libucrt:winapi_thunks.obj
 0002:0001a9e0       ?candidate_modules@?1??try_get_FlsAlloc@@YAP6GKP6GXPAX@Z@ZXZ@4QBW4module_id@?A0x391cf84c@@B 004839e0     libucrt:winapi_thunks.obj
 0002:0001a9e8       ?candidate_modules@?1??try_get_FlsFree@@YAP6GHK@ZXZ@4QBW4module_id@?A0x391cf84c@@B 004839e8     libucrt:winapi_thunks.obj
 0002:0001a9f0       ?candidate_modules@?1??try_get_FlsGetValue@@YAP6GPAXK@ZXZ@4QBW4module_id@?A0x391cf84c@@B 004839f0     libucrt:winapi_thunks.obj
 0002:0001a9f8       ?candidate_modules@?1??try_get_FlsSetValue@@YAP6GHKPAX@ZXZ@4QBW4module_id@?A0x391cf84c@@B 004839f8     libucrt:winapi_thunks.obj
 0002:0001aa00       ?candidate_modules@?1??try_get_GetActiveWindow@@YAP6GPAUHWND__@@XZXZ@4QBW4module_id@?A0x391cf84c@@B 00483a00     libucrt:winapi_thunks.obj
 0002:0001aa18       ?candidate_modules@?1??try_get_GetDateFormatEx@@YAP6GHPB_WKPBU_SYSTEMTIME@@0PA_WH0@ZXZ@4QBW4module_id@?A0x391cf84c@@B 00483a18     libucrt:winapi_thunks.obj
 0002:0001aa30       ?candidate_modules@?1??try_get_GetLastActivePopup@@YAP6GPAUHWND__@@PAU2@@ZXZ@4QBW4module_id@?A0x391cf84c@@B 00483a30     libucrt:winapi_thunks.obj
 0002:0001aa4c       ?candidate_modules@?1??try_get_GetLocaleInfoEx@@YAP6GHPB_WKPA_WH@ZXZ@4QBW4module_id@?A0x391cf84c@@B 00483a4c     libucrt:winapi_thunks.obj
 0002:0001aa64       ?candidate_modules@?1??try_get_GetProcessWindowStation@@YAP6GPAUHWINSTA__@@XZXZ@4QBW4module_id@?A0x391cf84c@@B 00483a64     libucrt:winapi_thunks.obj
 0002:0001aa84       ?candidate_modules@?1??try_get_GetSystemTimePreciseAsFileTime@@YAP6GXPAU_FILETIME@@@ZXZ@4QBW4module_id@?A0x391cf84c@@B 00483a84     libucrt:winapi_thunks.obj
 0002:0001aaa8       ?candidate_modules@?1??try_get_GetTimeFormatEx@@YAP6GHPB_WKPBU_SYSTEMTIME@@0PA_WH@ZXZ@4QBW4module_id@?A0x391cf84c@@B 00483aa8     libucrt:winapi_thunks.obj
 0002:0001aac0       ?candidate_modules@?1??try_get_GetUserDefaultLocaleName@@YAP6GHPA_WH@ZXZ@4QBW4module_id@?A0x391cf84c@@B 00483ac0     libucrt:winapi_thunks.obj
 0002:0001aae4       ?candidate_modules@?1??try_get_GetUserObjectInformationW@@YAP6GHPAXH0KPAK@ZXZ@4QBW4module_id@?A0x391cf84c@@B 00483ae4     libucrt:winapi_thunks.obj
 0002:0001ab08       ?candidate_modules@?1??try_get_InitializeCriticalSectionEx@@YAP6GHPAU_RTL_CRITICAL_SECTION@@KK@ZXZ@4QBW4module_id@?A0x391cf84c@@B 00483b08     libucrt:winapi_thunks.obj
 0002:0001ab10       ?candidate_modules@?1??try_get_IsValidLocaleName@@YAP6GHPB_W@ZXZ@4QBW4module_id@?A0x391cf84c@@B 00483b10     libucrt:winapi_thunks.obj
 0002:0001ab2c       ?candidate_modules@?1??try_get_LCMapStringEx@@YAP6GHPB_WK0HPA_WHPAU_nlsversioninfo@@PAXJ@ZXZ@4QBW4module_id@?A0x391cf84c@@B 00483b2c     libucrt:winapi_thunks.obj
 0002:0001ab44       ?candidate_modules@?1??try_get_LCIDToLocaleName@@YAP6GHKPA_WHK@ZXZ@4QBW4module_id@?A0x391cf84c@@B 00483b44     libucrt:winapi_thunks.obj
 0002:0001ab60       ?candidate_modules@?1??try_get_LocaleNameToLCID@@YAP6GKPB_WK@ZXZ@4QBW4module_id@?A0x391cf84c@@B 00483b60     libucrt:winapi_thunks.obj
 0002:0001ab7c       ?candidate_modules@?1??try_get_MessageBoxA@@YAP6GHPAUHWND__@@PBD1I@ZXZ@4QBW4module_id@?A0x391cf84c@@B 00483b7c     libucrt:winapi_thunks.obj
 0002:0001ab90       ?candidate_modules@?1??try_get_MessageBoxW@@YAP6GHPAUHWND__@@PB_W1I@ZXZ@4QBW4module_id@?A0x391cf84c@@B 00483b90     libucrt:winapi_thunks.obj
 0002:0001aba4       ?candidate_modules@?1??try_get_AppPolicyGetProcessTerminationMethod@@YAP6GJPAXPAW4AppPolicyProcessTerminationMethod@@@ZXZ@4QBW4module_id@?A0x391cf84c@@B 00483ba4     libucrt:winapi_thunks.obj
 0002:0001abd0       ?candidate_modules@?1??try_get_AppPolicyGetShowDeveloperDiagnostic@@YAP6GJPAXPAW4AppPolicyShowDeveloperDiagnostic@@@ZXZ@4QBW4module_id@?A0x391cf84c@@B 00483bd0     libucrt:winapi_thunks.obj
 0002:0001abf8       ?candidate_modules@?1??try_get_AppPolicyGetWindowingModel@@YAP6GJPAXPAW4AppPolicyWindowingModel@@@ZXZ@4QBW4module_id@?A0x391cf84c@@B 00483bf8     libucrt:winapi_thunks.obj
 0002:0001ac18       ?dot_slash@?CB@???$common_spawnv@D@@YAHHQBDQBQBD1@Z@4QBDB 00483c18     libucrt:spawnv.obj
 0002:0001ac1c       ?extensions@?CP@???$common_spawnv@D@@YAHHQBDQBQBD1@Z@4QAY04$$CBDA 00483c1c     libucrt:spawnv.obj
 0002:0001ac30       ?_mb_locale_names@@3QBQB_WB 00483c30     libucrt:mbctype.obj
 0002:0001ba40       ?large_power_indices@?1??multiply_by_power_of_ten@__crt_strtox@@YA_NAAUbig_integer@2@I@Z@4QBUunpack_index@?1??12@YA_N0I@Z@B 00484a40     libucrt:cfout.obj
 0002:0001bb00       ?LcidToLocaleNameTable@?A0x881e4c05@@3QBULcidToLocaleName@1@B 00484b00     libucrt:lcidtoname_downlevel.obj
 0002:0001cc20       ?LocaleNameToIndexTable@?A0x881e4c05@@3QBULocaleNameIndex@1@B 00485c20     libucrt:lcidtoname_downlevel.obj
 0002:0001db70       ?equal_sign@?BD@???$construct_environment_block@D@@YAHQBQBDQAPAD@Z@4QBDB 00486b70     libucrt:cenvarg.obj
 0002:0001db74       _over                      00486b74     libucrt:fpctrl.obj
 0002:0001db80       _under                     00486b80     libucrt:fpctrl.obj
 0002:0001dba0       LOG_name                   00486ba0     libucrt:log10_impl.obj
 0002:0001dbb0       _One                       00486bb0     libucrt:ceil_pentium4.obj
 0002:0001dbc0       _Bns                       00486bc0     libucrt:ceil_pentium4.obj
 0002:0001dbd0       _Zero                      00486bd0     libucrt:ceil_pentium4.obj
 0002:0001dbe0       _S                         00486be0     libucrt:ceil_pentium4.obj
 0002:0001dbf0       _NegZero                   00486bf0     libucrt:ceil_pentium4.obj
 0002:0001dc00       emask                      00486c00     libucrt:log10_pentium4.obj
 0002:0001dc10       CC                         00486c10     libucrt:log10_pentium4.obj
 0002:0001dc20       Magic                      00486c20     libucrt:log10_pentium4.obj
 0002:0001dc30       hi_mask                    00486c30     libucrt:log10_pentium4.obj
 0002:0001dc40       LOG10_2                    00486c40     libucrt:log10_pentium4.obj
 0002:0001dc50       place_L                    00486c50     libucrt:log10_pentium4.obj
 0002:0001dc70       One                        00486c70     libucrt:log10_pentium4.obj
 0002:0001dc80       Zero                       00486c80     libucrt:log10_pentium4.obj
 0002:0001dc90       Two52                      00486c90     libucrt:log10_pentium4.obj
 0002:0001dca0       Infs                       00486ca0     libucrt:log10_pentium4.obj
 0002:0001dcb0       NaN                        00486cb0     libucrt:log10_pentium4.obj
 0002:0001dcc0       coeff                      00486cc0     libucrt:log10_pentium4.obj
 0002:0001dd1e       _log2max                   00486d1e     libucrt:87tran.obj
 0002:0001dd28       _smallarg                  00486d28     libucrt:87tran.obj
 0002:0001dd32       _half                      00486d32     libucrt:87tran.obj
 0002:0001dd7e       One                        00486d7e     libucrt:87disp.obj
 0002:0001dd86       Three                      00486d86     libucrt:87disp.obj
 0002:0001dd8e       XAMtoTagTab                00486d8e     libucrt:87disp.obj
 0002:0001dda0       One                        00486da0     libucrt:common.obj
 0002:0001ddb4       DblMax                     00486db4     libucrt:common.obj
 0002:0001ddbc       DblMin                     00486dbc     libucrt:common.obj
 0002:0001ddc4       IeeeAdjO                   00486dc4     libucrt:common.obj
 0002:0001ddcc       IeeeAdjU                   00486dcc     libucrt:common.obj
 0002:0001ddd4       _infinity                  00486dd4     libucrt:common.obj
 0002:0001dddc       _zero                      00486ddc     libucrt:common.obj
 0002:0001e648       ?_names@?1??_get_fname@@9@9 00487648     libucrt:fpexcept.obj
 0002:0001ec88       __sehtable$?__scrt_common_main_seh@@YAHXZ 00487c88     LIBCMT:exe_main.obj
 0002:0001eca8       __sehtable$___scrt_is_nonwritable_in_current_image 00487ca8     LIBCMT:utility.obj
 0002:0001ecc8       __sehtable$?FrameUnwindToState@__FrameHandler3@@SAXPAUEHRegistrationNode@@PAXPBU_s_FuncInfo@@H@Z 00487cc8     libvcruntime:frame.obj
 0002:0001ecf0       __sehtable$?CallCatchBlock@@YAPAXPAUEHExceptionRecord@@PAUEHRegistrationNode@@PAU_CONTEXT@@PBU_s_FuncInfo@@PAXHK@Z 00487cf0     libvcruntime:frame.obj
 0002:0001ed18       __catchsym$?CallUnexpected@@YAXPBU_s_ESTypeList@@@Z$2 00487d18     libvcruntime:frame.obj
 0002:0001ed28       __unwindtable$?CallUnexpected@@YAXPBU_s_ESTypeList@@@Z 00487d28     libvcruntime:frame.obj
 0002:0001ed38       __tryblocktable$?CallUnexpected@@YAXPBU_s_ESTypeList@@@Z 00487d38     libvcruntime:frame.obj
 0002:0001ed4c       __ehfuncinfo$?CallUnexpected@@YAXPBU_s_ESTypeList@@@Z 00487d4c     libvcruntime:frame.obj
 0002:0001ed70       __sehtable$??$BuildCatchObjectHelperInternal@V__FrameHandler3@@@@YAHPAUEHExceptionRecord@@PAXPBU_s_HandlerType@@PBU_s_CatchableType@@@Z 00487d70     libvcruntime:frame.obj
 0002:0001ed90       __sehtable$??$BuildCatchObjectInternal@V__FrameHandler3@@@@YAXPAUEHExceptionRecord@@PAXPBU_s_HandlerType@@PBU_s_CatchableType@@@Z 00487d90     libvcruntime:frame.obj
 0002:0001ee00       __sehtable$___DestructExceptionObject 00487e00     libvcruntime:ehhelpers.obj
 0002:0001ee20       __sehtable$_fclose         00487e20     libucrt:fclose.obj
 0002:0001ee40       __sehtable$??$common_fsopen@D@@YAPAU_iobuf@@QBD0H@Z 00487e40     libucrt:fopen.obj
 0002:0001ee60       __sehtable$_fread_s        00487e60     libucrt:fread.obj
 0002:0001ee80       __sehtable$??$?RV<lambda_2866be3712abc81a800a822484c830d8>@@AAV<lambda_39ca0ed439415581b5b15c265174cece>@@V<lambda_2b24c74d71094a6cd0cb82e44167d71b>@@@?$__crt_seh_guarded_call@X@@QAEX$$QAV<lambda_2866be3712abc81a800a822484c830d8>@@AAV<lambda_39ca0ed439415581b5b15c265174cece>@@$$QAV<lambda_2b24c74d71094a6cd0cb82e44167d71b>@@@Z 00487e80     libucrt:fflush.obj
 0002:0001eea0       __sehtable$??$?RV<lambda_2cc53f568c5a2bb6f192f930a45d44ea>@@AAV<lambda_ab61a845afdef5b7c387490eaf3616ee>@@V<lambda_c2ffc0b7726aa6be21d5f0026187e748>@@@?$__crt_seh_guarded_call@X@@QAEX$$QAV<lambda_2cc53f568c5a2bb6f192f930a45d44ea>@@AAV<lambda_ab61a845afdef5b7c387490eaf3616ee>@@$$QAV<lambda_c2ffc0b7726aa6be21d5f0026187e748>@@@Z 00487ea0     libucrt:fflush.obj
 0002:0001eec0       __sehtable$??$?RV<lambda_6d20deecaf4856105ebacbad442d1079>@@AAV<lambda_9a32fed5bf61b6b509b2d3f6003082a1>@@V<lambda_63ea2239ed67c638ddbae41947fdf875>@@@?$__crt_seh_guarded_call@H@@QAEH$$QAV<lambda_6d20deecaf4856105ebacbad442d1079>@@AAV<lambda_9a32fed5bf61b6b509b2d3f6003082a1>@@$$QAV<lambda_63ea2239ed67c638ddbae41947fdf875>@@@Z 00487ec0     libucrt:fflush.obj
 0002:0001eee0       __sehtable$??$?RV<lambda_4ac01c32aa5b53846f05d0620572872e>@@AAV<lambda_5856287d7ecd2be6c9197bb4007c3f6e>@@V<lambda_e7a9868ed898c75c0f0637692d94351a>@@@?$__crt_seh_guarded_call@I@@QAEI$$QAV<lambda_4ac01c32aa5b53846f05d0620572872e>@@AAV<lambda_5856287d7ecd2be6c9197bb4007c3f6e>@@$$QAV<lambda_e7a9868ed898c75c0f0637692d94351a>@@@Z 00487ee0     libucrt:fwrite.obj
 0002:0001ef00       __sehtable$??$?RV<lambda_c29ee0499b841886b80d843682cc403a>@@AAV<lambda_0be4ab1c2a6918fda4e39227d83ea893>@@V<lambda_5a3ed3da325c8ea037a470278c0f2d16>@@@?$__crt_seh_guarded_call@H@@QAEH$$QAV<lambda_c29ee0499b841886b80d843682cc403a>@@AAV<lambda_0be4ab1c2a6918fda4e39227d83ea893>@@$$QAV<lambda_5a3ed3da325c8ea037a470278c0f2d16>@@@Z 00487f00     libucrt:output.obj
 0002:0001ef20       __sehtable$??$?RV<lambda_9b2bd5c6bb91c5c032542faa5c3cb611>@@AAV<lambda_be68057ced330f874c40fe9612235e36>@@V<lambda_dbd837d1c0b7fc6e2d81c287c81c071b>@@@?$__crt_seh_guarded_call@H@@QAEH$$QAV<lambda_9b2bd5c6bb91c5c032542faa5c3cb611>@@AAV<lambda_be68057ced330f874c40fe9612235e36>@@$$QAV<lambda_dbd837d1c0b7fc6e2d81c287c81c071b>@@@Z 00487f20     libucrt:output.obj
 0002:0001ef40       __sehtable$??$?RV<lambda_65fd67b065f6eb2f69d2b40e70f741d1>@@AAV<lambda_0bd0bd1e46f8138169959d81163ebf0c>@@V<lambda_3dd5c5b82bb549ede7d0dd5b9a094995>@@@?$__crt_seh_guarded_call@H@@QAEH$$QAV<lambda_65fd67b065f6eb2f69d2b40e70f741d1>@@AAV<lambda_0bd0bd1e46f8138169959d81163ebf0c>@@$$QAV<lambda_3dd5c5b82bb549ede7d0dd5b9a094995>@@@Z 00487f40     libucrt:fputs.obj
 0002:0001ef60       __sehtable$??R<lambda_6e4b09c48022b2350581041d5f6b0c4c>@@QBE@XZ 00487f60     libucrt:exit.obj
 0002:0001ef80       __sehtable$??$?RV<lambda_03b1d95aef87969028cfba75ccab2455>@@AAV<lambda_6e4b09c48022b2350581041d5f6b0c4c>@@V<lambda_22bdf7517842c4b3e53723af5aa32b9e>@@@?$__crt_seh_guarded_call@X@@QAEX$$QAV<lambda_03b1d95aef87969028cfba75ccab2455>@@AAV<lambda_6e4b09c48022b2350581041d5f6b0c4c>@@$$QAV<lambda_22bdf7517842c4b3e53723af5aa32b9e>@@@Z 00487f80     libucrt:exit.obj
 0002:0001efa0       __sehtable$_fgetc          00487fa0     libucrt:fgetc.obj
 0002:0001efc0       __sehtable$??$common_fgets@D@@YAPADQADHV__crt_stdio_stream@@@Z 00487fc0     libucrt:fgets.obj
 0002:0001efe0       __sehtable$_fputc          00487fe0     libucrt:fputc.obj
 0002:0001f000       __sehtable$_rewind         00488000     libucrt:rewind.obj
 0002:0001f020       __sehtable$_ungetc         00488020     libucrt:ungetc.obj
 0002:0001f040       __sehtable$??$?RV<lambda_646e26742ed01d5bc03234f44bb6d3d3>@@AAV<lambda_b37934c380d97b75fd242ea49540127a>@@V<lambda_bbd9d45274666fbb50f81a29ad795c13>@@@?$__crt_seh_guarded_call@PAD@@QAEPAD$$QAV<lambda_646e26742ed01d5bc03234f44bb6d3d3>@@AAV<lambda_b37934c380d97b75fd242ea49540127a>@@$$QAV<lambda_bbd9d45274666fbb50f81a29ad795c13>@@@Z 00488040     libucrt:setlocale.obj
 0002:0001f05c       __unwindtable$?_wcrtomb_s_l@@YAHQAHQADI_WQAU_Mbstatet@@QAU__crt_locale_pointers@@@Z 0048805c     libucrt:wcrtomb.obj
 0002:0001f064       __ehfuncinfo$?_wcrtomb_s_l@@YAHQAHQADI_WQAU_Mbstatet@@QAU__crt_locale_pointers@@@Z 00488064     libucrt:wcrtomb.obj
 0002:0001f088       __sehtable$??$common_getenv@D@@YAPADQBD@Z 00488088     libucrt:getenv.obj
 0002:0001f0a8       __sehtable$??$common_getenv_s@D@@YAHQAIQADIQBD@Z 004880a8     libucrt:getenv.obj
 0002:0001f0c8       __sehtable$??$common_dupenv_s@D@@YAHQAPADQAIQBDH2H@Z 004880c8     libucrt:getenv.obj
 0002:0001f0e8       __sehtable$??$?RV<lambda_e5124f882df8998aaf41531e079ba474>@@AAV<lambda_3e16ef9562a7dcce91392c22ab16ea36>@@V<lambda_e25ca0880e6ef98be67edffd8c599615>@@@?$__crt_seh_guarded_call@X@@QAEX$$QAV<lambda_e5124f882df8998aaf41531e079ba474>@@AAV<lambda_3e16ef9562a7dcce91392c22ab16ea36>@@$$QAV<lambda_e25ca0880e6ef98be67edffd8c599615>@@@Z 004880e8     libucrt:wsetlocale.obj
 0002:0001f108       __sehtable$??$?RV<lambda_4fdada1b837b2abbf20876fac97688ad>@@AAV<lambda_b57350f2640456a0859d250846f69caf>@@V<lambda_eed5e4f92b5b7d55fa22c48c484aaa54>@@@?$__crt_seh_guarded_call@X@@QAEX$$QAV<lambda_4fdada1b837b2abbf20876fac97688ad>@@AAV<lambda_b57350f2640456a0859d250846f69caf>@@$$QAV<lambda_eed5e4f92b5b7d55fa22c48c484aaa54>@@@Z 00488108     libucrt:wsetlocale.obj
 0002:0001f128       __sehtable$??$?RV<lambda_135d2772fca65dc1248eeaa1b56e886a>@@AAV<lambda_2a444430fde8c29194d880d93eed5e8f>@@AAV<lambda_8dff2cf36a5417162780cd64fa2883ef>@@@?$__crt_seh_guarded_call@X@@QAEX$$QAV<lambda_135d2772fca65dc1248eeaa1b56e886a>@@AAV<lambda_2a444430fde8c29194d880d93eed5e8f>@@AAV<lambda_8dff2cf36a5417162780cd64fa2883ef>@@@Z 00488128     libucrt:wsetlocale.obj
 0002:0001f148       __sehtable$??$?RV<lambda_8e746cf0007f6ed984d6f78af1fec997>@@AAV<lambda_22ebabd17bc4fa466a2aca6d8deb888d>@@V<lambda_18ed0c0b38a6dc0daf1e7ac6d6adf05e>@@@?$__crt_seh_guarded_call@H@@QAEH$$QAV<lambda_8e746cf0007f6ed984d6f78af1fec997>@@AAV<lambda_22ebabd17bc4fa466a2aca6d8deb888d>@@$$QAV<lambda_18ed0c0b38a6dc0daf1e7ac6d6adf05e>@@@Z 00488148     libucrt:onexit.obj
 0002:0001f168       __sehtable$??$?RV<lambda_69a2805e680e0e292e8ba93315fe43a8>@@AAV<lambda_f03950bc5685219e0bcd2087efbe011e>@@V<lambda_03fcd07e894ec930e3f35da366ca99d6>@@@?$__crt_seh_guarded_call@H@@QAEH$$QAV<lambda_69a2805e680e0e292e8ba93315fe43a8>@@AAV<lambda_f03950bc5685219e0bcd2087efbe011e>@@$$QAV<lambda_03fcd07e894ec930e3f35da366ca99d6>@@@Z 00488168     libucrt:onexit.obj
 0002:0001f188       __sehtable$_terminate      00488188     libucrt:terminate.obj
 0002:0001f1a8       __sehtable$??$?RV<lambda_70c0770dcc4f6ec6272bb01dc82d3c91>@@AAV<lambda_ca71763b3c0644891230e4f79ea54fa6>@@V<lambda_ca266f0f09348b8765c113e3a39a2bc1>@@@?$__crt_seh_guarded_call@H@@QAEH$$QAV<lambda_70c0770dcc4f6ec6272bb01dc82d3c91>@@AAV<lambda_ca71763b3c0644891230e4f79ea54fa6>@@$$QAV<lambda_ca266f0f09348b8765c113e3a39a2bc1>@@@Z 004881a8     libucrt:setvbuf.obj
 0002:0001f1c8       __sehtable$_raise          004881c8     libucrt:signal.obj
 0002:0001f1e8       __sehtable$??$?RV<lambda_cbab9ec6f41b0180b23cc171c22676b0>@@AAV<lambda_44731a7d0e6d81c3e6aa82d741081786>@@V<lambda_4b292cb8dd18144e164572427af410ab>@@@?$__crt_seh_guarded_call@P6AXH@Z@@QAEP6AXH@Z$$QAV<lambda_cbab9ec6f41b0180b23cc171c22676b0>@@AAV<lambda_44731a7d0e6d81c3e6aa82d741081786>@@$$QAV<lambda_4b292cb8dd18144e164572427af410ab>@@@Z 004881e8     libucrt:signal.obj
 0002:0001f208       __sehtable$??$?RV<lambda_218ce3db14220d0be481dae8ef3383b6>@@AAV<lambda_628dfdc04ba53c8bfc02c9951375f3f5>@@V<lambda_57dc472bd5c9d5f3b2cbca59b8a843ae>@@@?$__crt_seh_guarded_call@H@@QAEH$$QAV<lambda_218ce3db14220d0be481dae8ef3383b6>@@AAV<lambda_628dfdc04ba53c8bfc02c9951375f3f5>@@$$QAV<lambda_57dc472bd5c9d5f3b2cbca59b8a843ae>@@@Z 00488208     libucrt:close.obj
 0002:0001f228       __sehtable$?__acrt_stdio_allocate_stream@@YA?AV__crt_stdio_stream@@XZ 00488228     libucrt:stream.obj
 0002:0001f248       __sehtable$__read          00488248     libucrt:read.obj
 0002:0001f268       __sehtable$??$?RV<lambda_15ade71b0218206bbe3333a0c9b79046>@@AAV<lambda_da44e0f8b0f19ba52fefafb335991732>@@V<lambda_207f2d024fc103971653565357d6cd41>@@@?$__crt_seh_guarded_call@X@@QAEX$$QAV<lambda_15ade71b0218206bbe3333a0c9b79046>@@AAV<lambda_da44e0f8b0f19ba52fefafb335991732>@@$$QAV<lambda_207f2d024fc103971653565357d6cd41>@@@Z 00488268     libucrt:per_thread_data.obj
 0002:0001f288       __sehtable$??$?RV<lambda_a7e850c220f1c8d1e6efeecdedd162c6>@@AAV<lambda_46720907175c18b6c9d2717bc0d2d362>@@V<lambda_9048902d66e8d99359bc9897bbb930a8>@@@?$__crt_seh_guarded_call@X@@QAEX$$QAV<lambda_a7e850c220f1c8d1e6efeecdedd162c6>@@AAV<lambda_46720907175c18b6c9d2717bc0d2d362>@@$$QAV<lambda_9048902d66e8d99359bc9897bbb930a8>@@@Z 00488288     libucrt:per_thread_data.obj
 0002:0001f2a8       __sehtable$??$?RV<lambda_38edbb1296d33220d7e4dd0ed76b244a>@@AAV<lambda_5ce1d447e08cb34b2473517608e21441>@@V<lambda_fb385d3da700c9147fc39e65dd577a8c>@@@?$__crt_seh_guarded_call@X@@QAEX$$QAV<lambda_38edbb1296d33220d7e4dd0ed76b244a>@@AAV<lambda_5ce1d447e08cb34b2473517608e21441>@@$$QAV<lambda_fb385d3da700c9147fc39e65dd577a8c>@@@Z 004882a8     libucrt:per_thread_data.obj
 0002:0001f2c8       __sehtable$??$?RV<lambda_6affb1475c98b40b75cdec977db92e3c>@@AAV<lambda_b8d4b9c228a6ecc3f80208dbb4b4a104>@@V<lambda_608742c3c92a14382c1684fc64f96c88>@@@?$__crt_seh_guarded_call@X@@QAEX$$QAV<lambda_6affb1475c98b40b75cdec977db92e3c>@@AAV<lambda_b8d4b9c228a6ecc3f80208dbb4b4a104>@@$$QAV<lambda_608742c3c92a14382c1684fc64f96c88>@@@Z 004882c8     libucrt:per_thread_data.obj
 0002:0001f2e8       __sehtable$??$?RV<lambda_9e9de3de5fa147e2223d7db92bc10aa6>@@AAV<lambda_38ce7e780aa69e748d6df282ebc68efe>@@V<lambda_8ca6da459f0f6780f1cff60fdc3d00e5>@@@?$__crt_seh_guarded_call@H@@QAEH$$QAV<lambda_9e9de3de5fa147e2223d7db92bc10aa6>@@AAV<lambda_38ce7e780aa69e748d6df282ebc68efe>@@$$QAV<lambda_8ca6da459f0f6780f1cff60fdc3d00e5>@@@Z 004882e8     libucrt:commit.obj
 0002:0001f308       __sehtable$__write         00488308     libucrt:write.obj
 0002:0001f328       __sehtable$___acrt_initialize_lowio 00488328     libucrt:ioinit.obj
 0002:0001f348       __sehtable$??$?RV<lambda_6b4b7855443974f2b4b77000ea21c99c>@@AAV<lambda_8f7d3b162ab39427f4fa9995c67a7986>@@V<lambda_cc9a5ba8a5d8428b9634eab82665e5dc>@@@?$__crt_seh_guarded_call@H@@QAEH$$QAV<lambda_6b4b7855443974f2b4b77000ea21c99c>@@AAV<lambda_8f7d3b162ab39427f4fa9995c67a7986>@@$$QAV<lambda_cc9a5ba8a5d8428b9634eab82665e5dc>@@@Z 00488348     libucrt:winapi_thunks.obj
 0002:0001f368       __sehtable$__fcloseall     00488368     libucrt:closeall.obj
 0002:0001f388       __sehtable$??$?RV<lambda_1f7e3ac85ca3635646511ad93ac0febe>@@AAV<lambda_555255fdfb9471e5fa7bfca50021c162>@@V<lambda_24f51f8b0c33fe186c624e6675644b7a>@@@?$__crt_seh_guarded_call@_N@@QAE_N$$QAV<lambda_1f7e3ac85ca3635646511ad93ac0febe>@@AAV<lambda_555255fdfb9471e5fa7bfca50021c162>@@$$QAV<lambda_24f51f8b0c33fe186c624e6675644b7a>@@@Z 00488388     libucrt:spawnv.obj
 0002:0001f3a8       __sehtable$??$common_lseek@J@@YAJHJH@Z 004883a8     libucrt:lseek.obj
 0002:0001f3c8       __sehtable$??$common_lseek@_J@@YA_JH_JH@Z 004883c8     libucrt:lseek.obj
 0002:0001f3e4       __unwindtable$?_wcstombs_l_helper@@YAIPADPB_WIPAU__crt_locale_pointers@@@Z 004883e4     libucrt:wcstombs.obj
 0002:0001f3ec       __ehfuncinfo$?_wcstombs_l_helper@@YAIPADPB_WIPAU__crt_locale_pointers@@@Z 004883ec     libucrt:wcstombs.obj
 0002:0001f410       __sehtable$?update_thread_multibyte_data_internal@@YAPAU__crt_multibyte_data@@QAU__acrt_ptd@@QAPAU1@@Z 00488410     libucrt:mbctype.obj
 0002:0001f430       __sehtable$??$?RV<lambda_ceb1ee4838e85a9d631eb091e2fbe199>@@AAV<lambda_ae742caa10f662c28703da3d2ea5e57e>@@V<lambda_cd08b5d6af4937fe54fc07d0c9bf6b37>@@@?$__crt_seh_guarded_call@X@@QAEX$$QAV<lambda_ceb1ee4838e85a9d631eb091e2fbe199>@@AAV<lambda_ae742caa10f662c28703da3d2ea5e57e>@@$$QAV<lambda_cd08b5d6af4937fe54fc07d0c9bf6b37>@@@Z 00488430     libucrt:mbctype.obj
 0002:0001f450       __sehtable$__alloc_osfhnd  00488450     libucrt:osfinfo.obj
 0002:0001f470       __sehtable$___acrt_lowio_ensure_fh_exists 00488470     libucrt:osfinfo.obj
 0002:0001f490       __sehtable$___acrt_update_thread_locale_data 00488490     libucrt:locale_refcounting.obj
 0002:0001f4b0       __sehtable$__query_new_handler 004884b0     libucrt:new_handler.obj
 0002:0001f4d0       __sehtable$??$common_sopen_dispatch@D@@YAHQBDHHHQAHH@Z 004884d0     libucrt:open.obj
 0002:0001f4f0       __sehtable$___tzset        004884f0     libucrt:tzset.obj
 0002:0001f510       __sehtable$___set_fpsr_sse2 00488510     libucrt:fpctrl.obj
 0002:0001f530       __sehtable$__IsNonwritableInCurrentImage 00488530     LIBCMT:pesect.obj
 0002:0001f8f2       .idata$6                   004888f2     advapi32:ADVAPI32.dll
 0002:0001f978       .idata$6                   00488978     user32:USER32.dll
 0002:0001fedc       .idata$6                   00488edc     kernel32:KERNEL32.dll
 0003:00000000       _subkeytypes               0048a000     conf.obj
 0003:00000318       _valuetypes                0048a318     conf.obj
 0003:0000062c       _nullplug_plug             0048a62c     nullplug.obj
 0003:0000064c       _gss_mech_krb5_desc        0048a64c     pgssapi.obj
 0003:00000658       _psftp_seat                0048a658     psftp.obj
 0003:00000660       _sftp_lookup               0048a660     psftp.obj
 0003:00000890       _pktin_freeq_head          0048a890     sshcommon.obj
 0003:0000089c       _ic_pktin_free             0048a89c     sshcommon.obj
 0003:000008ac       ?algs_with_oid@?1??ec_alg_by_oid@@9@9 0048a8ac     sshecc.obj
 0003:000008c0       _sftp_ssh_socket           0048a8c0     winsftp.obj
 0003:000008c4       _netevent                  0048a8c4     winsftp.obj
 0003:00000900       ?__vcrt_flsindex@@3KA      0048a900     libvcruntime:per_thread_data.obj
 0003:000009d0       __ctype_loc_style          0048a9d0     libucrt:wsetlocale.obj
 0003:000009d4       ?errno_no_memory@@3HA      0048a9d4     libucrt:errno.obj
 0003:000009d8       ?doserrno_no_memory@@3KA   0048a9d8     libucrt:errno.obj
 0003:00000ae8       ?__acrt_flsindex@@3KA      0048aae8     libucrt:per_thread_data.obj
 0003:00000e18       __mbctypes                 0048ae18     libucrt:mbctype.obj
 0003:00000f20       __mbcasemaps               0048af20     libucrt:mbctype.obj
 0003:00001020       ?__rgctypeflag@@3PADA      0048b020     libucrt:mbctype.obj
 0003:00001028       ?__rgcode_page_info@@3PAUcode_page_info@@A 0048b028     libucrt:mbctype.obj
 0003:00001178       ?tzstd_program@@3PADA      0048b178     libucrt:timeset.obj
 0003:000011b8       ?tzdst_program@@3PADA      0048b1b8     libucrt:timeset.obj
 0003:000011f8       ?tzname_states@@3PAY01PADA 0048b1f8     libucrt:timeset.obj
 0003:00001200       ?dststart@@3Utransitiondate@?A0x7639d0b4@@A 0048b200     libucrt:tzset.obj
 0003:0000120c       ?dstend@@3Utransitiondate@?A0x7639d0b4@@A 0048b20c     libucrt:tzset.obj
 0003:00001220       ?__DAZ_ENABLED@?1??__set_fpsr_sse2@@9@9 0048b220     libucrt:fpctrl.obj
 0003:00001224       ?__dcrt_lowio_console_output_handle@@3PAXA 0048b224     libucrt:initcon.obj
 0003:000012a0       _saves                     0048b2a0     cmdline.obj
 0003:000012b8       _cmdline_password          0048b2b8     cmdline.obj
 0003:000012bc       ?tried_once@?1??cmdline_get_passwd_input@@9@9 0048b2bc     cmdline.obj
 0003:000012bd       _seen_hostname_argument    0048b2bd     cmdline.obj
 0003:000012be       _seen_port_argument        0048b2be     cmdline.obj
 0003:000012c1       _verbose                   0048b2c1     psftp.obj
 0003:000012c4       _psftp_logctx              0048b2c4     psftp.obj
 0003:000012c8       _backend                   0048b2c8     psftp.obj
 0003:000012cc       _string_scc                0048b2cc     psftp.obj
 0003:000012d0       _received_data             0048b2d0     psftp.obj
 0003:000012e4       _stderr_bs                 0048b2e4     psftp.obj
 0003:000012e8       _stderr_ss                 0048b2e8     psftp.obj
 0003:000012f4       _stderr_scc                0048b2f4     psftp.obj
 0003:000012f8       _fxp_error_message         0048b2f8     sftp.obj
 0003:000012fc       _fxp_errtype               0048b2fc     sftp.obj
 0003:00001300       _sftp_requests             0048b300     sftp.obj
 0003:00001304       ?initialised@?1??aes_hw_available_cached@@9@9 0048b304     sshaes.obj
 0003:00001305       ?hw_available@?1??aes_hw_available_cached@@9@9 0048b305     sshaes.obj
 0003:0000130c       ?curve@?1??ec_p256@@9@9    0048b30c     sshecc.obj
 0003:00001330       ?initialised@?1??ec_p256@@9@9 0048b330     sshecc.obj
 0003:00001331       ?initialised@?1??ec_p384@@9@9 0048b331     sshecc.obj
 0003:00001332       ?initialised@?1??ec_p521@@9@9 0048b332     sshecc.obj
 0003:00001333       ?initialised@?1??ec_curve25519@@9@9 0048b333     sshecc.obj
 0003:00001334       ?curve@?1??ec_p384@@9@9    0048b334     sshecc.obj
 0003:00001358       ?curve@?1??ec_p521@@9@9    0048b358     sshecc.obj
 0003:0000137c       ?curve@?1??ec_curve25519@@9@9 0048b37c     sshecc.obj
 0003:000013a0       ?curve@?1??ec_ed25519@@9@9 0048b3a0     sshecc.obj
 0003:000013c4       ?initialised@?1??ec_ed25519@@9@9 0048b3c4     sshecc.obj
 0003:000013d4       _random_timer_ctx          0048b3d4     sshrand.obj
 0003:000013d8       _global_prng               0048b3d8     sshrand.obj
 0003:000013dc       _next_noise_collection     0048b3dc     sshrand.obj
 0003:000013e0       ?initialised@?1??sha256_hw_available_cached@@9@9 0048b3e0     sshsh256.obj
 0003:000013e1       ?hw_available@?1??sha256_hw_available_cached@@9@9 0048b3e1     sshsh256.obj
 0003:000013e2       ?initialised@?1??sha1_hw_available_cached@@9@9 0048b3e2     sshsha.obj
 0003:000013e3       ?hw_available@?1??sha1_hw_available_cached@@9@9 0048b3e3     sshsha.obj
 0003:000013e4       _timers                    0048b3e4     timing.obj
 0003:000013e8       _timer_contexts            0048b3e8     timing.obj
 0003:000013ec       _now                       0048b3ec     timing.obj
 0003:000013f0       ?attempted@?1??got_crypt@@9@9 0048b3f0     wincapi.obj
 0003:000013f1       ?successful@?1??got_crypt@@9@9 0048b3f1     wincapi.obj
 0003:000013f4       ?crypt@?1??got_crypt@@9@9  0048b3f4     wincapi.obj
 0003:00001400       _p_AcquireCredentialsHandleA 0048b400     wingss.obj
 0003:00001404       _p_InitializeSecurityContextA 0048b404     wingss.obj
 0003:00001408       _p_FreeContextBuffer       0048b408     wingss.obj
 0003:0000140c       _p_FreeCredentialsHandle   0048b40c     wingss.obj
 0003:00001410       _p_DeleteSecurityContext   0048b410     wingss.obj
 0003:00001414       _p_QueryContextAttributesA 0048b414     wingss.obj
 0003:00001418       _p_MakeSignature           0048b418     wingss.obj
 0003:0000141c       _p_VerifySignature         0048b41c     wingss.obj
 0003:00001420       _p_AddDllDirectory         0048b420     wingss.obj
 0003:00001424       ?kernel32_module@?1??ssh_gss_setup@@9@9 0048b424     wingss.obj
 0003:00001428       _handles_by_evtomain       0048b428     winhandl.obj
 0003:0000142c       ?kernel32_module@?1??sk_handle_peer_info@@9@9 0048b42c     winhsock.obj
 0003:00001430       ?p_GetNamedPipeClientProcessId@?1??sk_handle_peer_info@@9@9 0048b430     winhsock.obj
 0003:00001434       ?p_GetUserNameExA@?1??get_username@@9@9 0048b434     winmisc.obj
 0003:00001438       ?tried_usernameex@?2??get_username@@9@9 0048b438     winmisc.obj
 0003:0000143c       ?kernel32_module@?1??dll_hijacking_protection@@9@9 0048b43c     winmisc.obj
 0003:00001440       ?p_SetDefaultDllDirectories@?1??dll_hijacking_protection@@9@9 0048b440     winmisc.obj
 0003:00001444       ?kernel32_module@?1??init_winver@@9@9 0048b444     winmisc.obj
 0003:00001448       ?p_GetVersionExA@?1??init_winver@@9@9 0048b448     winmisc.obj
 0003:0000144c       ?sysdir@?1??load_system32_dll@@9@9 0048b44c     winmisc.obj
 0003:00001450       ?sysdirsize@?1??load_system32_dll@@9@9 0048b450     winmisc.obj
 0003:00001454       _errstrings                0048b454     winmisc.obj
 0003:00001458       _sktree                    0048b458     winnet.obj
 0003:0000145c       _p_WSAStartup              0048b45c     winnet.obj
 0003:00001460       _p_WSACleanup              0048b460     winnet.obj
 0003:00001464       _p_closesocket             0048b464     winnet.obj
 0003:00001468       _p_ntohl                   0048b468     winnet.obj
 0003:0000146c       _p_htonl                   0048b46c     winnet.obj
 0003:00001470       _p_htons                   0048b470     winnet.obj
 0003:00001474       _p_ntohs                   0048b474     winnet.obj
 0003:00001478       _p_gethostname             0048b478     winnet.obj
 0003:0000147c       _p_gethostbyname           0048b47c     winnet.obj
 0003:00001480       _p_getservbyname           0048b480     winnet.obj
 0003:00001484       _p_inet_addr               0048b484     winnet.obj
 0003:00001488       _p_inet_ntoa               0048b488     winnet.obj
 0003:0000148c       _p_inet_ntop               0048b48c     winnet.obj
 0003:00001490       _p_connect                 0048b490     winnet.obj
 0003:00001494       _p_bind                    0048b494     winnet.obj
 0003:00001498       _p_setsockopt              0048b498     winnet.obj
 0003:0000149c       _p_socket                  0048b49c     winnet.obj
 0003:000014a0       _p_listen                  0048b4a0     winnet.obj
 0003:000014a4       _p_send                    0048b4a4     winnet.obj
 0003:000014a8       _p_shutdown                0048b4a8     winnet.obj
 0003:000014ac       _p_ioctlsocket             0048b4ac     winnet.obj
 0003:000014b0       _p_accept                  0048b4b0     winnet.obj
 0003:000014b4       _p_getpeername             0048b4b4     winnet.obj
 0003:000014b8       _p_recv                    0048b4b8     winnet.obj
 0003:000014bc       _p_WSAIoctl                0048b4bc     winnet.obj
 0003:000014c0       _p_getaddrinfo             0048b4c0     winnet.obj
 0003:000014c4       _p_freeaddrinfo            0048b4c4     winnet.obj
 0003:000014c8       _p_getnameinfo             0048b4c8     winnet.obj
 0003:000014cc       _p_gai_strerror            0048b4cc     winnet.obj
 0003:000014d0       _p_WSAAddressToStringA     0048b4d0     winnet.obj
 0003:000014d4       _winsock_module            0048b4d4     winnet.obj
 0003:000014d8       _wsadata                   0048b4d8     winnet.obj
 0003:00001668       _winsock2_module           0048b668     winnet.obj
 0003:0000166c       _wship6_module             0048b66c     winnet.obj
 0003:00001670       _local_interfaces          0048b670     winnet.obj
 0003:00001b30       _n_local_interfaces        0048bb30     winnet.obj
 0003:00001b34       _p_CryptAcquireContextA    0048bb34     winnoise.obj
 0003:00001b38       _p_CryptGenRandom          0048bb38     winnoise.obj
 0003:00001b3c       _p_CryptReleaseContext     0048bb3c     winnoise.obj
 0003:00001b40       _wincrypt_module           0048bb40     winnoise.obj
 0003:00001b44       _worldsid                  0048bb44     winsecur.obj
 0003:00001b48       _networksid                0048bb48     winsecur.obj
 0003:00001b4c       _usersid                   0048bb4c     winsecur.obj
 0003:00001b50       ?attempted@?1??got_advapi@@9@9 0048bb50     winsecur.obj
 0003:00001b51       ?successful@?1??got_advapi@@9@9 0048bb51     winsecur.obj
 0003:00001b54       ?advapi@?1??got_advapi@@9@9 0048bb54     winsecur.obj
 0003:00001b58       _tried_shgetfolderpath     0048bb58     winstore.obj
 0003:00001b5c       _shell32_module            0048bb5c     winstore.obj
 0003:00001b60       _p_SHGetFolderPathA        0048bb60     winstore.obj
 0003:00001b64       ?c@?1??check_compose_internal@@9@9 0048bb64     winucs.obj
 0003:00001b68       ?buf@?1??cp_name@@9@9      0048bb68     winucs.obj
 0003:00001b88       _GS_ExceptionRecord        0048bb88     LIBCMT:gs_report.obj
 0003:00001bd8       _GS_ContextRecord          0048bbd8     LIBCMT:gs_report.obj
 0003:00001eac       ?is_initialized_as_dll@@3_NA 0048beac     LIBCMT:utility.obj
 0003:00001ead       ?module_local_atexit_table_initialized@@3_NA 0048bead     LIBCMT:utility.obj
 0003:00001eb0       ?module_local_atexit_table@@3U_onexit_table_t@@A 0048beb0     LIBCMT:utility.obj
 0003:00001ebc       ?module_local_at_quick_exit_table@@3U_onexit_table_t@@A 0048bebc     LIBCMT:utility.obj
 0003:00001edc       ?__vcrt_startup_thread_ptd@@3U__vcrt_ptd@@A 0048bedc     libvcruntime:per_thread_data.obj
 0003:00001f04       ___vcrt_lock_table         0048bf04     libvcruntime:locks.obj
 0003:00001f1c       ___vcrt_locks_initialized  0048bf1c     libvcruntime:locks.obj
 0003:00001f48       ?heap@@3V_HeapManager@@A   0048bf48     libvcruntime:undname.obj
 0003:00001f5c       ?module_handles@@3PAPAUHINSTANCE__@@A 0048bf5c     libvcruntime:winapi_downlevel.obj
 0003:00001f68       ?function_pointers@@3PAPAXA 0048bf68     libvcruntime:winapi_downlevel.obj
 0003:00001f90       ?c_termination_complete@@3JA 0048bf90     libucrt:exit.obj
 0003:00001f94       ?thread_local_exit_callback_func@@3P6GXPAXK0@ZA 0048bf94     libucrt:exit.obj
 0003:00001f9c       ?mbst@?1??mbrtowc@@9@4U_Mbstatet@@A 0048bf9c     libucrt:mbrtowc.obj
 0003:00001fa4       ?local_state@?6??_wcrtomb_s_l@@YAHQAHQADI_WQAU_Mbstatet@@QAU__crt_locale_pointers@@@Z@4U2@A 0048bfa4     libucrt:wcrtomb.obj
 0003:00001fac       ?__acrt_app_type@@3W4_crt_app_type@@A 0048bfac     libucrt:report_runtime_error.obj
 0003:00001fb0       ?user_matherr@@3V?$dual_state_global@P6AHPAU_exception@@@Z@__crt_state_management@@A 0048bfb0     libucrt:matherr.obj
 0003:00001fb8       ?program_name@?1???$common_configure_argv@D@@YAHW4_crt_argv_mode@@@Z@4PADA 0048bfb8     libucrt:argv_parsing.obj
 0003:000020ec       ?__acrt_global_new_mode@@3V?$dual_state_global@J@__crt_state_management@@A 0048c0ec     libucrt:new_mode.obj
 0003:0000210c       ?__acrt_invalid_parameter_handler@@3V?$dual_state_global@P6AXPB_W00II@Z@__crt_state_management@@A 0048c10c     libucrt:invalid_parameter.obj
 0003:00002110       ___acrt_error_mode         0048c110     libucrt:set_error_mode.obj
 0003:00002114       ?ctrlc_action@@3V?$dual_state_global@P6AXH@Z@__crt_state_management@@A 0048c114     libucrt:signal.obj
 0003:00002118       ?ctrlbreak_action@@3V?$dual_state_global@P6AXH@Z@__crt_state_management@@A 0048c118     libucrt:signal.obj
 0003:0000211c       ?abort_action@@3V?$dual_state_global@P6AXH@Z@__crt_state_management@@A 0048c11c     libucrt:signal.obj
 0003:00002120       ?term_action@@3V?$dual_state_global@P6AXH@Z@__crt_state_management@@A 0048c120     libucrt:signal.obj
 0003:00002128       ?__acrt_lock_table@@3PAU_RTL_CRITICAL_SECTION@@A 0048c128     libucrt:locks.obj
 0003:00002278       ?__acrt_locks_initialized@@3IA 0048c278     libucrt:locks.obj
 0003:00002284       ?internal_state@?1??_mbtowc_l@@9@4U_Mbstatet@@A 0048c284     libucrt:mbtowc.obj
 0003:0000228c       ?enable_percent_n@@3IA     0048c28c     libucrt:printf_count_output.obj
 0003:00002498       ?module_handles@@3PAPAUHINSTANCE__@@A 0048c498     libucrt:winapi_thunks.obj
 0003:000024e8       ?encoded_function_pointers@@3PAPAXA 0048c4e8     libucrt:winapi_thunks.obj
 0003:00002570       ?static_enum_proc@?1??enum_system_locales_ex_nolock@@YAHQ6GHPA_WKJ@Z@Z@4P6GH0KJ@ZA 0048c570     libucrt:winapi_thunks.obj
 0003:00002574       ?state_cache@?1???$get_cached_win_policy@Udeveloper_information_policy_properties@?1??__acrt_get_developer_information_policy@@YA?AW4developer_information_policy@@XZ@@@YA?AW4developer_information_policy@@W4AppPolicyShowDeveloperDiagnostic@@@Z@4JA 0048c574     libucrt:win_policies.obj
 0003:00002578       ?state_cache@?1???$get_cached_win_policy@Uwindowing_model_policy_properties@?1??__acrt_get_windowing_model_policy@@YA?AW4windowing_model_policy@@XZ@@@YA?AW4windowing_model_policy@@W4AppPolicyWindowingModel@@@Z@4JA 0048c578     libucrt:win_policies.obj
 0003:0000257c       ?internal_pst@?1??__mbrtoc32_utf8@__crt_mbstring@@YAIPA_UPBDIPAU_Mbstatet@@@Z@4U3@A 0048c57c     libucrt:mbrtoc32.obj
 0003:00002584       ?internal_pst@?1??__c16rtomb_utf8@__crt_mbstring@@YAIPAD_SPAU_Mbstatet@@@Z@4U3@A 0048c584     libucrt:c16rtomb.obj
 0003:00002598       ?fSystemSet@@3HA           0048c598     libucrt:mbctype.obj
 0003:0000259c       ?initialized@?1??__acrt_initialize_multibyte@@9@4_NA 0048c59c     libucrt:mbctype.obj
 0003:000025b0       ?__acrt_new_handler@@3V?$dual_state_global@P6AHI@Z@__crt_state_management@@A 0048c5b0     libucrt:new_handler.obj
 0003:000025c0       ?_tzname@@3V?$dual_state_global@PAPAD@__crt_state_management@@A 0048c5c0     libucrt:timeset.obj
 0003:000025c4       ?last_tz@@3PADA            0048c5c4     libucrt:tzset.obj
 0003:000025c8       ?tz_api_used@@3HA          0048c5c8     libucrt:tzset.obj
 0003:000025d0       ?tz_info@@3U_TIME_ZONE_INFORMATION@@A 0048c5d0     libucrt:tzset.obj
 0003:0000267c       ?first_time@?1??__tzset@@9@4JA 0048c67c     libucrt:tzset.obj
 0003:00002688       __pmatherr_set             0048c688     libucrt:libm_error.obj
 0004:000001e0       $R000000                   0048d1e0     psftp.res
 0004:00000308       $R000128                   0048d308     psftp.res
 0004:000005f0       $R000410                   0048d5f0     psftp.res
 0004:00000c58       $R000A78                   0048dc58     psftp.res
 0004:00000d08       $R000B28                   0048dd08     psftp.res
 0004:00000e38       $R000C58                   0048de38     psftp.res
 0004:00001168       $R000F88                   0048e168     psftp.res
 0004:000011c8       $R000FE8                   0048e1c8     psftp.res
